ARM GAS  C:\Users\deathc\AppData\Local\Temp\cc1pP50L.s 			page 1


   1              		.syntax unified
   2              		.cpu cortex-m4
   3              		.eabi_attribute 27, 1
   4              		.fpu fpv4-sp-d16
   5              		.eabi_attribute 20, 1
   6              		.eabi_attribute 21, 1
   7              		.eabi_attribute 23, 3
   8              		.eabi_attribute 24, 1
   9              		.eabi_attribute 25, 1
  10              		.eabi_attribute 26, 1
  11              		.eabi_attribute 30, 1
  12              		.eabi_attribute 34, 1
  13              		.eabi_attribute 18, 4
  14              		.thumb
  15              		.syntax unified
  16              		.file	"ble_application.c"
  17              		.text
  18              	.Ltext0:
  19              		.cfi_sections	.debug_frame
  20              		.section	.text.UpdateCccdStatusInGattDb,"ax",%progbits
  21              		.align	2
  22              		.global	UpdateCccdStatusInGattDb
  23              		.thumb
  24              		.thumb_func
  25              		.type	UpdateCccdStatusInGattDb, %function
  26              	UpdateCccdStatusInGattDb:
  27              	.LFB649:
  28              		.file 1 "ble_application.c"
   1:ble_application.c **** /******************************************************************************
   2:ble_application.c **** * File Name: ble_application.c
   3:ble_application.c **** *
   4:ble_application.c **** * Version: 1.20
   5:ble_application.c **** *
   6:ble_application.c **** * Description: This file contains functions that handle custom BLE services
   7:ble_application.c **** *
   8:ble_application.c **** * Related Document: CE220167_BLE_UI.pdf
   9:ble_application.c **** *
  10:ble_application.c **** * Hardware Dependency: CY8CKIT-062-BLE PSoC 6 BLE Pioneer Kit
  11:ble_application.c **** *                      CY8CKIT-028-EPD E-INK Display Shield
  12:ble_application.c **** *
  13:ble_application.c **** *******************************************************************************
  14:ble_application.c **** * Copyright (2018), Cypress Semiconductor Corporation. All rights reserved.
  15:ble_application.c **** *******************************************************************************
  16:ble_application.c **** * This software, including source code, documentation and related materials
  17:ble_application.c **** * (“Software”), is owned by Cypress Semiconductor Corporation or one of its
  18:ble_application.c **** * subsidiaries (“Cypress”) and is protected by and subject to worldwide patent
  19:ble_application.c **** * protection (United States and foreign), United States copyright laws and
  20:ble_application.c **** * international treaty provisions. Therefore, you may use this Software only
  21:ble_application.c **** * as provided in the license agreement accompanying the software package from
  22:ble_application.c **** * which you obtained this Software (“EULA”).
  23:ble_application.c **** *
  24:ble_application.c **** * If no EULA applies, Cypress hereby grants you a personal, nonexclusive,
  25:ble_application.c **** * non-transferable license to copy, modify, and compile the Software source
  26:ble_application.c **** * code solely for use in connection with Cypress’s integrated circuit products.
  27:ble_application.c **** * Any reproduction, modification, translation, compilation, or representation
  28:ble_application.c **** * of this Software except as specified above is prohibited without the express
  29:ble_application.c **** * written permission of Cypress.
ARM GAS  C:\Users\deathc\AppData\Local\Temp\cc1pP50L.s 			page 2


  30:ble_application.c **** *
  31:ble_application.c **** * Disclaimer: THIS SOFTWARE IS PROVIDED AS-IS, WITH NO WARRANTY OF ANY KIND, 
  32:ble_application.c **** * EXPRESS OR IMPLIED, INCLUDING, BUT NOT LIMITED TO, NONINFRINGEMENT, IMPLIED 
  33:ble_application.c **** * WARRANTIES OF MERCHANTABILITY AND FITNESS FOR A PARTICULAR PURPOSE. Cypress 
  34:ble_application.c **** * reserves the right to make changes to the Software without notice. Cypress 
  35:ble_application.c **** * does not assume any liability arising out of the application or use of the 
  36:ble_application.c **** * Software or any product or circuit described in the Software. Cypress does 
  37:ble_application.c **** * not authorize its products for use in any products where a malfunction or 
  38:ble_application.c **** * failure of the Cypress product may reasonably be expected to result in 
  39:ble_application.c **** * significant property damage, injury or death (“High Risk Product”). By 
  40:ble_application.c **** * including Cypress’s product in a High Risk Product, the manufacturer of such 
  41:ble_application.c **** * system or application assumes all risk of such use and in doing so agrees to 
  42:ble_application.c **** * indemnify Cypress against all liability.
  43:ble_application.c **** *******************************************************************************/
  44:ble_application.c **** /******************************************************************************
  45:ble_application.c **** * This file contains functions that handle custom BLE services, which includes
  46:ble_application.c **** * the CapSense Slider service, CapSense button service and the RGB LED service
  47:ble_application.c **** *******************************************************************************/
  48:ble_application.c **** 
  49:ble_application.c **** /* Header file includes */
  50:ble_application.c **** #include "ble_application.h"
  51:ble_application.c **** #include "custom_flash.h"
  52:ble_application.c **** //===================================================================
  53:ble_application.c **** uint8_t opdata[20];
  54:ble_application.c **** uint8_t returndata[20];
  55:ble_application.c **** uint8_t testdata[20];
  56:ble_application.c **** uint8_t BDaddr[6]={0};
  57:ble_application.c **** 
  58:ble_application.c **** typedef enum
  59:ble_application.c **** {
  60:ble_application.c ****     CHECK_DEVICEID  = 0x01,
  61:ble_application.c ****     CHECK_RTC,
  62:ble_application.c ****     CHECK_SENSORDATA,
  63:ble_application.c ****     CHECK_BATTERYLEVEL,
  64:ble_application.c ****     SET_RTC
  65:ble_application.c **** }Op_code_e;
  66:ble_application.c **** Op_code_e opcode;
  67:ble_application.c **** //===================================================================
  68:ble_application.c **** /* Indexes of a two-byte CCCD array */
  69:ble_application.c **** #define CCCD_INDEX_0            (uint8_t) (0x00u)
  70:ble_application.c **** #define CCCD_INDEX_1            (uint8_t) (0x01u)
  71:ble_application.c **** 
  72:ble_application.c **** /* Bit mask for the notification bit in CCCD (Client Characteristic Configuration 
  73:ble_application.c ****    Descriptor), which is written by the client device */
  74:ble_application.c **** #define CCCD_NOTIFY_ENABLED     (uint8_t) (0x01u)
  75:ble_application.c **** #define CCCD_NOTIFY_DISABLED    (uint8_t) (0x00u)
  76:ble_application.c **** 
  77:ble_application.c **** #define CCCD_INDICATE_ENABLED   (uint8_t) (0x02u)
  78:ble_application.c **** #define CCCD_INDICATE_DISABLED  (uint8_t) (0x00u)
  79:ble_application.c **** 
  80:ble_application.c **** 
  81:ble_application.c **** /* 'connectionHandle' stores the BLE connection parameters */
  82:ble_application.c **** cy_stc_ble_conn_handle_t static connectionHandle;
  83:ble_application.c **** 
  84:ble_application.c **** uint8_t static NotificationStatus       = CCCD_NOTIFY_DISABLED;
  85:ble_application.c **** uint8_t static IndicateStatus           = CCCD_INDICATE_DISABLED;
  86:ble_application.c **** uint8_t static Indicateresflag          = 1;
ARM GAS  C:\Users\deathc\AppData\Local\Temp\cc1pP50L.s 			page 3


  87:ble_application.c **** 
  88:ble_application.c **** /* This flag is used to restart advertisements in the main control loop */
  89:ble_application.c **** bool    static restartBleAdvertisement   = false;
  90:ble_application.c **** extern uint8_t flag;
  91:ble_application.c **** /*******************************************************************************
  92:ble_application.c **** * Function Name: void UpdateCccdStatusInGattDb
  93:ble_application.c **** *                (cy_ble_gatt_db_attr_handle_t cccdHandle, uint8_t value)                          
  94:ble_application.c **** ********************************************************************************
  95:ble_application.c **** * Summary:
  96:ble_application.c **** *  This function updates the notification status (lower byte of CCCD array) of
  97:ble_application.c **** *  a characteristic in GATT DB with the provided parameters
  98:ble_application.c **** *
  99:ble_application.c **** * Parameters:
 100:ble_application.c **** *  cccdHandle:	CCCD handle of the service
 101:ble_application.c **** *  value     :  Notification status. Valid values are CCCD_NOTIFY_DISABLED and
 102:ble_application.c **** *               CCCD_NOTIFY_ENABLED
 103:ble_application.c **** *
 104:ble_application.c **** * Return:
 105:ble_application.c **** *  void
 106:ble_application.c **** *
 107:ble_application.c **** *******************************************************************************/
 108:ble_application.c **** void UpdateCccdStatusInGattDb(cy_ble_gatt_db_attr_handle_t cccdHandle,
 109:ble_application.c **** 	uint8_t value)
 110:ble_application.c **** {
  29              		.loc 1 110 0
  30              		.cfi_startproc
  31              		@ args = 0, pretend = 0, frame = 40
  32              		@ frame_needed = 0, uses_anonymous_args = 0
  33              	.LVL0:
  34 0000 00B5     		push	{lr}
  35              		.cfi_def_cfa_offset 4
  36              		.cfi_offset 14, -4
  37 0002 8BB0     		sub	sp, sp, #44
  38              		.cfi_def_cfa_offset 48
 111:ble_application.c ****     /* Local variable to store the current CCCD value */
 112:ble_application.c **** 	uint8_t cccdValue[CY_BLE_CCCD_LEN];
 113:ble_application.c **** 	
 114:ble_application.c ****     /* Load the notification status to the CCCD array */
 115:ble_application.c **** 	cccdValue[CCCD_INDEX_0] = value;
  39              		.loc 1 115 0
  40 0004 8DF82410 		strb	r1, [sp, #36]
 116:ble_application.c **** 	cccdValue[CCCD_INDEX_1] = CY_BLE_CCCD_DEFAULT;
  41              		.loc 1 116 0
  42 0008 0021     		movs	r1, #0
  43              	.LVL1:
  44 000a 8DF82510 		strb	r1, [sp, #37]
 117:ble_application.c **** 	
 118:ble_application.c ****     /* Local variable that stores notification data parameters */
 119:ble_application.c **** 	cy_stc_ble_gatt_handle_value_pair_t  cccdValuePair = 
  45              		.loc 1 119 0
  46 000e 06AA     		add	r2, sp, #24
  47 0010 0791     		str	r1, [sp, #28]
  48 0012 0891     		str	r1, [sp, #32]
  49 0014 09AB     		add	r3, sp, #36
  50              	.LVL2:
  51 0016 0693     		str	r3, [sp, #24]
  52 0018 0223     		movs	r3, #2
ARM GAS  C:\Users\deathc\AppData\Local\Temp\cc1pP50L.s 			page 4


  53              	.LVL3:
  54 001a ADF81C30 		strh	r3, [sp, #28]	@ movhi
  55 001e ADF82000 		strh	r0, [sp, #32]	@ movhi
 120:ble_application.c **** 	{
 121:ble_application.c **** 		.attrHandle = cccdHandle,
 122:ble_application.c **** 		.value.len = CY_BLE_CCCD_LEN,
 123:ble_application.c **** 		.value.val = cccdValue
 124:ble_application.c **** 	};
 125:ble_application.c **** 	
 126:ble_application.c ****     /* Local variable that stores attribute value */
 127:ble_application.c **** 	cy_stc_ble_gatts_db_attr_val_info_t  cccdAttributeHandle=
  56              		.loc 1 127 0
  57 0022 01AB     		add	r3, sp, #4
  58 0024 0491     		str	r1, [sp, #16]
  59 0026 0591     		str	r1, [sp, #20]
  60 0028 07CA     		ldmia	r2, {r0, r1, r2}
  61              	.LVL4:
  62 002a 83E80700 		stmia	r3, {r0, r1, r2}
  63 002e 074B     		ldr	r3, .L4
  64 0030 1A88     		ldrh	r2, [r3]
  65 0032 ADF81220 		strh	r2, [sp, #18]	@ movhi
 128:ble_application.c **** 	{
 129:ble_application.c **** 		.connHandle = connectionHandle,
 130:ble_application.c **** 		.handleValuePair = cccdValuePair,
 131:ble_application.c **** 		.offset = CY_BLE_CCCD_DEFAULT,
 132:ble_application.c **** 	};
 133:ble_application.c **** 	
 134:ble_application.c ****     /* Extract flag value from the connection handle */
 135:ble_application.c **** 	if(connectionHandle.bdHandle == 0u)
  66              		.loc 1 135 0
  67 0036 1B78     		ldrb	r3, [r3]	@ zero_extendqisi2
  68 0038 13B1     		cbz	r3, .L2
 136:ble_application.c **** 	{
 137:ble_application.c **** 		cccdAttributeHandle.flags = CY_BLE_GATT_DB_LOCALLY_INITIATED;
 138:ble_application.c **** 	}
 139:ble_application.c **** 	else
 140:ble_application.c **** 	{
 141:ble_application.c **** 		cccdAttributeHandle.flags = CY_BLE_GATT_DB_PEER_INITIATED;
  69              		.loc 1 141 0
  70 003a 4023     		movs	r3, #64
  71 003c 8DF81430 		strb	r3, [sp, #20]
  72              	.L2:
 142:ble_application.c **** 	}
 143:ble_application.c **** 	
 144:ble_application.c ****     /* Update the CCCD attribute value per the input parameters */
 145:ble_application.c **** 	Cy_BLE_GATTS_WriteAttributeValueCCCD(&cccdAttributeHandle);
  73              		.loc 1 145 0
  74 0040 01A8     		add	r0, sp, #4
  75 0042 FFF7FEFF 		bl	Cy_BLE_GATTS_WriteAttributeValueCCCD
  76              	.LVL5:
 146:ble_application.c **** }
  77              		.loc 1 146 0
  78 0046 0BB0     		add	sp, sp, #44
  79              		.cfi_def_cfa_offset 4
  80              		@ sp needed
  81 0048 5DF804FB 		ldr	pc, [sp], #4
  82              	.LVL6:
ARM GAS  C:\Users\deathc\AppData\Local\Temp\cc1pP50L.s 			page 5


  83              	.L5:
  84              		.align	2
  85              	.L4:
  86 004c 00000000 		.word	.LANCHOR0
  87              		.cfi_endproc
  88              	.LFE649:
  89              		.size	UpdateCccdStatusInGattDb, .-UpdateCccdStatusInGattDb
  90              		.section	.text.Updateattributevalue,"ax",%progbits
  91              		.align	2
  92              		.global	Updateattributevalue
  93              		.thumb
  94              		.thumb_func
  95              		.type	Updateattributevalue, %function
  96              	Updateattributevalue:
  97              	.LFB651:
 147:ble_application.c **** 
 148:ble_application.c **** 
 149:ble_application.c **** /*******************************************************************************
 150:ble_application.c **** * Function Name: void SendNotification(cy_stc_ble_conn_handle_t connectionhandle,
 151:ble_application.c **** *   `                                  cy_ble_gatt_db_attr_handle_t charachandle,
 152:ble_application.c **** *                                      uint8_t *Data)
 153:ble_application.c **** ********************************************************************************
 154:ble_application.c **** * Summary:
 155:ble_application.c **** *  Send RGB LED data as BLE Notifications. This function updates
 156:ble_application.c **** *  the notification handle with data and triggers the BLE component to send
 157:ble_application.c **** *  notification
 158:ble_application.c **** *
 159:ble_application.c **** * Parameters:
 160:ble_application.c **** *  rgbData:	pointer to an array containing RGB color and Intensity values
 161:ble_application.c **** *
 162:ble_application.c **** * Return:
 163:ble_application.c **** *  void
 164:ble_application.c **** *
 165:ble_application.c **** *******************************************************************************/
 166:ble_application.c **** void SendNotification(cy_ble_gatt_db_attr_handle_t charachandle,uint8_t *Data,uint8 len)
 167:ble_application.c **** {
 168:ble_application.c ****        /* Local variable that stores data parameters */
 169:ble_application.c ****     cy_stc_ble_gatt_handle_value_pair_t  dataHandle = 
 170:ble_application.c ****     {
 171:ble_application.c ****         .attrHandle = CY_BLE_SIMON_SERVICE_SIMON_TEST_CHARACTERISTIC_CHAR_HANDLE,
 172:ble_application.c ****         .value.val  = Data,
 173:ble_application.c ****         .value.len  = len 
 174:ble_application.c ****     };
 175:ble_application.c ****     
 176:ble_application.c ****     /* Local variable that stores attribute value */
 177:ble_application.c ****     cy_stc_ble_gatts_db_attr_val_info_t  AttributeValue = 
 178:ble_application.c ****     {
 179:ble_application.c ****         .handleValuePair = dataHandle,
 180:ble_application.c ****         .offset = CY_BLE_CCCD_DEFAULT,
 181:ble_application.c ****         .connHandle = connectionHandle,
 182:ble_application.c ****         .flags = CY_BLE_GATT_DB_LOCALLY_INITIATED
 183:ble_application.c ****     };
 184:ble_application.c **** 
 185:ble_application.c ****     /* Send updated handle as an attribute to the central device, 
 186:ble_application.c ****        so that the central reads the new data */
 187:ble_application.c ****     Cy_BLE_GATTS_WriteAttributeValue(&AttributeValue);
 188:ble_application.c ****     if(GetNotificationStatus())
ARM GAS  C:\Users\deathc\AppData\Local\Temp\cc1pP50L.s 			page 6


 189:ble_application.c ****     {
 190:ble_application.c ****         /* Make sure that stack is not busy, then send the notification. Note that 
 191:ble_application.c ****            the number of buffers in the BLE stack that holds the application data 
 192:ble_application.c ****            payload are limited, and there are chances that notification might drop 
 193:ble_application.c ****            a packet if the BLE stack buffers are not available. This error condition
 194:ble_application.c ****            is not handled in this example project */
 195:ble_application.c ****     	if(Cy_BLE_GATT_GetBusyStatus(connectionHandle.attId) 
 196:ble_application.c ****     		== CY_BLE_STACK_STATE_FREE)
 197:ble_application.c **** //        while(Cy_BLE_GATT_GetBusyStatus(connectionHandle.attId) != CY_BLE_STACK_STATE_FREE);
 198:ble_application.c ****     	{
 199:ble_application.c ****             /* Local variable that stores RGB LED notification data parameters */
 200:ble_application.c ****     		cy_stc_ble_gatts_handle_value_ntf_t NotificationHandle = 
 201:ble_application.c ****     		{
 202:ble_application.c ****                 .connHandle = connectionHandle,             //connection handle
 203:ble_application.c ****                 .handleValPair.attrHandle = charachandle,   //character handle                     
 204:ble_application.c ****                 .handleValPair.value.val = Data,            //notification data
 205:ble_application.c ****                 .handleValPair.value.len = len               //character length
 206:ble_application.c ****             };
 207:ble_application.c **** 
 208:ble_application.c ****             /* Send the updated handle as part of attribute for notifications */
 209:ble_application.c ****             if(Cy_BLE_GATTS_Notification(&NotificationHandle)!= CY_BLE_SUCCESS) //CY_BLE_EVT_STACK_
 210:ble_application.c ****             {
 211:ble_application.c ****                 //error handle
 212:ble_application.c **** //                while(1);
 213:ble_application.c ****             }
 214:ble_application.c ****         }
 215:ble_application.c **** //        else
 216:ble_application.c **** //        {
 217:ble_application.c **** ////            while(1);
 218:ble_application.c **** //        }
 219:ble_application.c ****     }
 220:ble_application.c **** }
 221:ble_application.c **** /*******************************************************************************
 222:ble_application.c **** * Function Name: void Updateateattributevalue(void)
 223:ble_application.c **** ********************************************************************************
 224:ble_application.c **** * Summary:
 225:ble_application.c **** *  Receive the new data and update the read characteristic handle so that the
 226:ble_application.c **** *  next read from the BLE central device gives the current data.
 227:ble_application.c **** *
 228:ble_application.c **** * Parameters:
 229:ble_application.c **** *  connectionhandle:type 'cy_stc_ble_conn_handle_t',it's the handle of current 
 230:ble_application.c **** *  connection.
 231:ble_application.c **** *  charachandle:type 'cy_ble_gatt_db_attr_handle_t',it is the handle of the 
 232:ble_application.c **** *  characteritic that you want to write.
 233:ble_application.c **** *  value: uint8_t pointer of the buffer you want to write into the charactristic
 234:ble_application.c **** *  length: the length of the value.
 235:ble_application.c **** * Return:
 236:ble_application.c **** *  void
 237:ble_application.c **** *
 238:ble_application.c **** *******************************************************************************/
 239:ble_application.c **** void Updateattributevalue(cy_stc_ble_conn_handle_t connectionhandle,cy_ble_gatt_db_attr_handle_t ch
 240:ble_application.c **** {
  98              		.loc 1 240 0
  99              		.cfi_startproc
 100              		@ args = 0, pretend = 0, frame = 40
 101              		@ frame_needed = 0, uses_anonymous_args = 0
 102              	.LVL7:
ARM GAS  C:\Users\deathc\AppData\Local\Temp\cc1pP50L.s 			page 7


 103 0000 30B5     		push	{r4, r5, lr}
 104              		.cfi_def_cfa_offset 12
 105              		.cfi_offset 4, -12
 106              		.cfi_offset 5, -8
 107              		.cfi_offset 14, -4
 108 0002 8BB0     		sub	sp, sp, #44
 109              		.cfi_def_cfa_offset 56
 110 0004 0546     		mov	r5, r0	@ movhi
 111 0006 ADF80400 		strh	r0, [sp, #4]	@ movhi
 241:ble_application.c ****     /* Local variable that stores data parameters */
 242:ble_application.c **** 	cy_stc_ble_gatt_handle_value_pair_t  Handle = 
 112              		.loc 1 242 0
 113 000a 07A8     		add	r0, sp, #28
 114 000c 0024     		movs	r4, #0
 115 000e 0894     		str	r4, [sp, #32]
 116 0010 0994     		str	r4, [sp, #36]
 117 0012 0792     		str	r2, [sp, #28]
 118 0014 ADF82030 		strh	r3, [sp, #32]	@ movhi
 119 0018 ADF82410 		strh	r1, [sp, #36]	@ movhi
 243:ble_application.c **** 	{
 244:ble_application.c **** 		.attrHandle = charachandle,
 245:ble_application.c **** 		.value.val  = value,
 246:ble_application.c **** 		.value.len  = length 
 247:ble_application.c **** 	};
 248:ble_application.c **** 	
 249:ble_application.c ****     /* Local variable that stores attribute value */
 250:ble_application.c **** 	cy_stc_ble_gatts_db_attr_val_info_t  AttributeValue = 
 120              		.loc 1 250 0
 121 001c 02AB     		add	r3, sp, #8
 122              	.LVL8:
 123 001e 07C8     		ldmia	r0, {r0, r1, r2}
 124              	.LVL9:
 125 0020 83E80700 		stmia	r3, {r0, r1, r2}
 126 0024 ADF81440 		strh	r4, [sp, #20]	@ movhi
 127 0028 ADF81650 		strh	r5, [sp, #22]	@ movhi
 128 002c 8DF81840 		strb	r4, [sp, #24]
 251:ble_application.c **** 	{
 252:ble_application.c **** 		.handleValuePair = Handle,
 253:ble_application.c **** 		.offset = CY_BLE_CCCD_DEFAULT,
 254:ble_application.c **** 		.connHandle = connectionhandle,
 255:ble_application.c **** 		.flags = CY_BLE_GATT_DB_LOCALLY_INITIATED
 256:ble_application.c **** 	};
 257:ble_application.c **** 
 258:ble_application.c ****     /* Send updated  charachandle as an attribute to the central device, 
 259:ble_application.c ****        so that the central reads the new data */
 260:ble_application.c **** 	Cy_BLE_GATTS_WriteAttributeValue(&AttributeValue);
 129              		.loc 1 260 0
 130 0030 1846     		mov	r0, r3
 131              	.LVL10:
 132 0032 FFF7FEFF 		bl	Cy_BLE_GATTS_WriteAttributeValue
 133              	.LVL11:
 261:ble_application.c **** 	
 262:ble_application.c **** 
 263:ble_application.c **** }
 134              		.loc 1 263 0
 135 0036 0BB0     		add	sp, sp, #44
 136              		.cfi_def_cfa_offset 12
ARM GAS  C:\Users\deathc\AppData\Local\Temp\cc1pP50L.s 			page 8


 137              		@ sp needed
 138 0038 30BD     		pop	{r4, r5, pc}
 139              		.cfi_endproc
 140              	.LFE651:
 141              		.size	Updateattributevalue, .-Updateattributevalue
 142 003a 00BF     		.section	.text.HandleDisconnectEvent,"ax",%progbits
 143              		.align	2
 144              		.global	HandleDisconnectEvent
 145              		.thumb
 146              		.thumb_func
 147              		.type	HandleDisconnectEvent, %function
 148              	HandleDisconnectEvent:
 149              	.LFB653:
 264:ble_application.c **** 
 265:ble_application.c **** 
 266:ble_application.c **** void Handlecustomdata(cy_stc_ble_gatts_write_cmd_req_param_t 
 267:ble_application.c **** 	*writeRequest)
 268:ble_application.c **** {
 269:ble_application.c ****     uint16 CRCresult=1;
 270:ble_application.c ****     uint8_t datalen=0;
 271:ble_application.c ****     if (writeRequest->handleValPair.attrHandle == 
 272:ble_application.c **** 		CY_BLE_SIMON_SERVICE_SIMON_INDICATE_CHARAC_CHAR_HANDLE)
 273:ble_application.c **** 	{
 274:ble_application.c ****         /* Extract the write value sent by the Client for RGB LED Color 
 275:ble_application.c ****            characteristic */
 276:ble_application.c ****         datalen = writeRequest->handleValPair.value.len;
 277:ble_application.c **** 		for(uint8_t i=0;i<datalen;i++)
 278:ble_application.c **** 		{
 279:ble_application.c **** 			opdata[i] = writeRequest->handleValPair.value.val[i];
 280:ble_application.c **** 		}
 281:ble_application.c ****         
 282:ble_application.c ****         if(opdata[0] == 0xfe)
 283:ble_application.c ****         {
 284:ble_application.c ****             switch(opdata[1])
 285:ble_application.c ****             {
 286:ble_application.c ****                 case 01:
 287:ble_application.c ****                 
 288:ble_application.c ****                 if(opdata[2] == CHECK_DEVICEID)
 289:ble_application.c ****                 {
 290:ble_application.c ****                     //checkCRC
 291:ble_application.c ****                     CRCresult = GetCRC16(opdata,datalen);
 292:ble_application.c ****                     if(CRCresult == (((uint16)opdata[4]<<8)&opdata[3]))
 293:ble_application.c ****                     {
 294:ble_application.c ****                         returndata[0] = 0xFE;
 295:ble_application.c ****                         returndata[1] = 01;
 296:ble_application.c ****                         returndata[2] = CHECK_DEVICEID;
 297:ble_application.c ****                         memcpy(&returndata[3],BDaddr,6);
 298:ble_application.c ****                         //calculate CRC 
 299:ble_application.c ****                         CRCresult = GetCRC16(returndata,8);
 300:ble_application.c ****                         returndata[9] = (uint8_t)CRCresult;
 301:ble_application.c ****                         returndata[10] = (uint8_t)(CRCresult>>8);
 302:ble_application.c ****                         SendNotification(CY_BLE_SIMON_SERVICE_SIMON_TEST_CHARACTERISTIC_CHAR_HANDLE
 303:ble_application.c ****                                 returndata,20);
 304:ble_application.c ****                     }
 305:ble_application.c ****                 }
 306:ble_application.c ****                 else if(opdata[2] == CHECK_RTC)
 307:ble_application.c ****                 {
ARM GAS  C:\Users\deathc\AppData\Local\Temp\cc1pP50L.s 			page 9


 308:ble_application.c ****                     //CRC
 309:ble_application.c ****                     CRCresult = GetCRC16(opdata,datalen);
 310:ble_application.c ****                     if(CRCresult == (((uint16)opdata[4]<<8)&opdata[3]))
 311:ble_application.c ****                     {
 312:ble_application.c ****                         returndata[0] = 0xFE;\
 313:ble_application.c ****                         returndata[1] = 0x01;
 314:ble_application.c ****                         returndata[2] = CHECK_RTC;
 315:ble_application.c ****                         Getrtctimearray(&returndata[3]);
 316:ble_application.c ****                         //calculate CRC 
 317:ble_application.c ****                         CRCresult = GetCRC16(returndata,9);
 318:ble_application.c ****                         returndata[9] = CRCresult;
 319:ble_application.c ****                         returndata[10] = CRCresult>>8;
 320:ble_application.c ****                         SendNotification(CY_BLE_SIMON_SERVICE_SIMON_TEST_CHARACTERISTIC_CHAR_HANDLE
 321:ble_application.c ****                                 returndata,20);
 322:ble_application.c ****                     }
 323:ble_application.c ****                 }
 324:ble_application.c ****                 else if(opdata[2] == CHECK_BATTERYLEVEL)
 325:ble_application.c ****                 {
 326:ble_application.c ****                     //CRC
 327:ble_application.c ****                     CRCresult = GetCRC16(opdata,datalen);
 328:ble_application.c ****                     if(CRCresult == (((uint16)opdata[4]<<8)&opdata[3]))
 329:ble_application.c ****                     {
 330:ble_application.c ****                         returndata[0] = 0xFE;
 331:ble_application.c ****                         returndata[1] = 0x01;
 332:ble_application.c ****                         returndata[2] = CHECK_BATTERYLEVEL;
 333:ble_application.c ****                         returndata[3] = 0x64;
 334:ble_application.c ****                         //calculate CRC 
 335:ble_application.c ****                         CRCresult = GetCRC16(returndata,4);
 336:ble_application.c ****                         returndata[4] = CRCresult;
 337:ble_application.c ****                         returndata[5] = CRCresult>>8;
 338:ble_application.c ****                         SendNotification(CY_BLE_SIMON_SERVICE_SIMON_TEST_CHARACTERISTIC_CHAR_HANDLE
 339:ble_application.c ****                                 returndata,20);
 340:ble_application.c ****                     }
 341:ble_application.c ****                 }
 342:ble_application.c ****                 else if(opdata[2] == CHECK_SENSORDATA)
 343:ble_application.c ****                 {
 344:ble_application.c ****                     
 345:ble_application.c ****                     //CRC
 346:ble_application.c ****                     CRCresult = GetCRC16(opdata,datalen);
 347:ble_application.c ****                     if(CRCresult == (((uint16)opdata[6]<<8)&opdata[5]))
 348:ble_application.c ****                     {
 349:ble_application.c ****                         flag = 1;
 350:ble_application.c ****                     }
 351:ble_application.c **** //                    {
 352:ble_application.c **** ////                        flag = 1；
 353:ble_application.c **** //                        returndata[0] = 0xFE;
 354:ble_application.c **** //                        returndata[1] = 0x01;
 355:ble_application.c **** //                        returndata[2] = CHECK_SENSORDATA;
 356:ble_application.c **** //                        returndata[3] = 0x64;
 357:ble_application.c **** //                        //calculate CRC 
 358:ble_application.c **** //                        returndata[4] = CRCresult;
 359:ble_application.c **** //                        returndata[5] = CRCresult>>8;
 360:ble_application.c **** //                        SendNotification(CY_BLE_SIMON_SERVICE_SIMON_TEST_CHARACTERISTIC_CHAR_HAND
 361:ble_application.c **** //                                returndata,20);
 362:ble_application.c **** //                        
 363:ble_application.c **** //                    }
 364:ble_application.c ****                 }
ARM GAS  C:\Users\deathc\AppData\Local\Temp\cc1pP50L.s 			page 10


 365:ble_application.c ****                 
 366:ble_application.c ****                 break;
 367:ble_application.c ****                 
 368:ble_application.c ****                 case 05:
 369:ble_application.c ****                 if(opdata[2] == CHECK_RTC)
 370:ble_application.c ****                 {
 371:ble_application.c ****                     CRCresult = GetCRC16(opdata,datalen);
 372:ble_application.c ****                     if(CRCresult == (((uint16)opdata[10]<<8)&opdata[9]))
 373:ble_application.c ****                     {
 374:ble_application.c ****                     Setrtctime(opdata[3],opdata[4],opdata[5],opdata[6],opdata[7],opdata[8]);
 375:ble_application.c ****                     returndata[0]=0xfe;
 376:ble_application.c ****                     returndata[1]=0x05;
 377:ble_application.c ****                     returndata[2]=0x02;
 378:ble_application.c ****                     CRCresult = GetCRC16(returndata,3);
 379:ble_application.c ****                     returndata[3] = CRCresult;
 380:ble_application.c ****                     returndata[4] = CRCresult>>8;
 381:ble_application.c ****                     SendNotification(CY_BLE_SIMON_SERVICE_SIMON_TEST_CHARACTERISTIC_CHAR_HANDLE,   
 382:ble_application.c ****                                 returndata,20);
 383:ble_application.c ****                     }
 384:ble_application.c ****                 }
 385:ble_application.c ****                 break;
 386:ble_application.c ****                 
 387:ble_application.c ****                 default:
 388:ble_application.c ****                 break;
 389:ble_application.c ****             }
 390:ble_application.c ****         }
 391:ble_application.c **** 
 392:ble_application.c ****         Updateattributevalue(connectionHandle,CY_BLE_SIMON_SERVICE_SIMON_TEST_CHARACTERISTIC_CHAR_H
 393:ble_application.c **** 
 394:ble_application.c **** 	}
 395:ble_application.c ****     
 396:ble_application.c **** }
 397:ble_application.c **** 
 398:ble_application.c **** /*******************************************************************************
 399:ble_application.c **** * Function Name: void HandleDisconnectEvent(void)
 400:ble_application.c **** ********************************************************************************
 401:ble_application.c **** * Summary:
 402:ble_application.c **** *  This functions handles the 'disconnect' event for the service
 403:ble_application.c **** *
 404:ble_application.c **** * Parameters:
 405:ble_application.c **** *  void
 406:ble_application.c **** *
 407:ble_application.c **** * Return:
 408:ble_application.c **** *  void
 409:ble_application.c **** *
 410:ble_application.c **** *******************************************************************************/
 411:ble_application.c **** void HandleDisconnectEvent(void)
 412:ble_application.c **** {
 150              		.loc 1 412 0
 151              		.cfi_startproc
 152              		@ args = 0, pretend = 0, frame = 0
 153              		@ frame_needed = 0, uses_anonymous_args = 0
 154 0000 08B5     		push	{r3, lr}
 155              		.cfi_def_cfa_offset 8
 156              		.cfi_offset 3, -8
 157              		.cfi_offset 14, -4
 413:ble_application.c ****     //clear the connectionhandle
ARM GAS  C:\Users\deathc\AppData\Local\Temp\cc1pP50L.s 			page 11


 414:ble_application.c ****     connectionHandle.attId =0;
 158              		.loc 1 414 0
 159 0002 074B     		ldr	r3, .L10
 160 0004 0021     		movs	r1, #0
 161 0006 5970     		strb	r1, [r3, #1]
 415:ble_application.c ****     connectionHandle.bdHandle = 0;
 162              		.loc 1 415 0
 163 0008 1970     		strb	r1, [r3]
 416:ble_application.c ****     
 417:ble_application.c ****     restartBleAdvertisement = true;
 164              		.loc 1 417 0
 165 000a 0122     		movs	r2, #1
 166 000c 9A70     		strb	r2, [r3, #2]
 418:ble_application.c ****     /* Reset RGB notification flag to prevent further notifications
 419:ble_application.c ****        being sent to Central device after next connection. */
 420:ble_application.c **** 	NotificationStatus = CCCD_NOTIFY_DISABLED;
 167              		.loc 1 420 0
 168 000e D970     		strb	r1, [r3, #3]
 169              	.LVL12:
 170              	.LBB12:
 171              	.LBB13:
 172              		.file 2 "Generated_Source\\PSoC6\\pdl\\drivers/peripheral/gpio/cy_gpio.h"
   1:Generated_Source\PSoC6\pdl\drivers/peripheral/gpio/cy_gpio.h **** /***************************************************************************//**
   2:Generated_Source\PSoC6\pdl\drivers/peripheral/gpio/cy_gpio.h **** * \file cy_gpio.h
   3:Generated_Source\PSoC6\pdl\drivers/peripheral/gpio/cy_gpio.h **** * \version 1.20
   4:Generated_Source\PSoC6\pdl\drivers/peripheral/gpio/cy_gpio.h **** *
   5:Generated_Source\PSoC6\pdl\drivers/peripheral/gpio/cy_gpio.h **** * Provides an API declaration of the GPIO driver
   6:Generated_Source\PSoC6\pdl\drivers/peripheral/gpio/cy_gpio.h **** *
   7:Generated_Source\PSoC6\pdl\drivers/peripheral/gpio/cy_gpio.h **** ********************************************************************************
   8:Generated_Source\PSoC6\pdl\drivers/peripheral/gpio/cy_gpio.h **** * \copyright
   9:Generated_Source\PSoC6\pdl\drivers/peripheral/gpio/cy_gpio.h **** * Copyright 2016-2018, Cypress Semiconductor Corporation. All rights reserved.
  10:Generated_Source\PSoC6\pdl\drivers/peripheral/gpio/cy_gpio.h **** * You may use this file only in accordance with the license, terms, conditions,
  11:Generated_Source\PSoC6\pdl\drivers/peripheral/gpio/cy_gpio.h **** * disclaimers, and limitations in the end user license agreement accompanying
  12:Generated_Source\PSoC6\pdl\drivers/peripheral/gpio/cy_gpio.h **** * the software package with which this file was provided.
  13:Generated_Source\PSoC6\pdl\drivers/peripheral/gpio/cy_gpio.h **** *******************************************************************************/
  14:Generated_Source\PSoC6\pdl\drivers/peripheral/gpio/cy_gpio.h **** 
  15:Generated_Source\PSoC6\pdl\drivers/peripheral/gpio/cy_gpio.h **** /**
  16:Generated_Source\PSoC6\pdl\drivers/peripheral/gpio/cy_gpio.h **** * \addtogroup group_gpio
  17:Generated_Source\PSoC6\pdl\drivers/peripheral/gpio/cy_gpio.h **** * \{
  18:Generated_Source\PSoC6\pdl\drivers/peripheral/gpio/cy_gpio.h **** * The GPIO driver provides an API to configure and access device Input/Output pins.
  19:Generated_Source\PSoC6\pdl\drivers/peripheral/gpio/cy_gpio.h **** *
  20:Generated_Source\PSoC6\pdl\drivers/peripheral/gpio/cy_gpio.h **** * The functions and other declarations used in this driver are in cy_gpio.h. 
  21:Generated_Source\PSoC6\pdl\drivers/peripheral/gpio/cy_gpio.h **** * You can include cy_pdl.h (ModusToolbox only) to get access to all functions 
  22:Generated_Source\PSoC6\pdl\drivers/peripheral/gpio/cy_gpio.h **** * and declarations in the PDL.
  23:Generated_Source\PSoC6\pdl\drivers/peripheral/gpio/cy_gpio.h **** *
  24:Generated_Source\PSoC6\pdl\drivers/peripheral/gpio/cy_gpio.h **** * IO pins include all general purpose types such as GPIO, SIO, HSIO, AUXIO, and
  25:Generated_Source\PSoC6\pdl\drivers/peripheral/gpio/cy_gpio.h **** * their variants.
  26:Generated_Source\PSoC6\pdl\drivers/peripheral/gpio/cy_gpio.h **** *
  27:Generated_Source\PSoC6\pdl\drivers/peripheral/gpio/cy_gpio.h **** * Initialization can be performed either at the port level or by configuring the
  28:Generated_Source\PSoC6\pdl\drivers/peripheral/gpio/cy_gpio.h **** * individual pins. For efficient use of code space, port
  29:Generated_Source\PSoC6\pdl\drivers/peripheral/gpio/cy_gpio.h **** * configuration should be used in the field. Refer to the product device header files 
  30:Generated_Source\PSoC6\pdl\drivers/peripheral/gpio/cy_gpio.h **** * for the list of supported ports and pins.
  31:Generated_Source\PSoC6\pdl\drivers/peripheral/gpio/cy_gpio.h **** * 
  32:Generated_Source\PSoC6\pdl\drivers/peripheral/gpio/cy_gpio.h **** * - Single pin configuration is performed by using \ref Cy_GPIO_Pin_FastInit 
  33:Generated_Source\PSoC6\pdl\drivers/peripheral/gpio/cy_gpio.h **** *   (provide specific values) or \ref Cy_GPIO_Pin_Init (provide a filled
  34:Generated_Source\PSoC6\pdl\drivers/peripheral/gpio/cy_gpio.h **** *   cy_stc_gpio_pin_config_t structure).
  35:Generated_Source\PSoC6\pdl\drivers/peripheral/gpio/cy_gpio.h **** * - An entire port can be configured using \ref Cy_GPIO_Port_Init. Provide a filled 
ARM GAS  C:\Users\deathc\AppData\Local\Temp\cc1pP50L.s 			page 12


  36:Generated_Source\PSoC6\pdl\drivers/peripheral/gpio/cy_gpio.h **** *   cy_stc_gpio_prt_config_t structure. The values in the structure are 
  37:Generated_Source\PSoC6\pdl\drivers/peripheral/gpio/cy_gpio.h **** *   bitfields representing the desired value for each pin in the port.
  38:Generated_Source\PSoC6\pdl\drivers/peripheral/gpio/cy_gpio.h **** * - Pin configuration and management is based on the port address and pin number.
  39:Generated_Source\PSoC6\pdl\drivers/peripheral/gpio/cy_gpio.h **** *   \ref Cy_GPIO_PortToAddr function can optionally be used to calculate the port
  40:Generated_Source\PSoC6\pdl\drivers/peripheral/gpio/cy_gpio.h **** *   address from the port number at run-time.
  41:Generated_Source\PSoC6\pdl\drivers/peripheral/gpio/cy_gpio.h **** *
  42:Generated_Source\PSoC6\pdl\drivers/peripheral/gpio/cy_gpio.h **** * Once the pin/port initialization is complete, each pin can be accessed by 
  43:Generated_Source\PSoC6\pdl\drivers/peripheral/gpio/cy_gpio.h **** * specifying the port (GPIO_PRT_Type) and the pin (0-7) in the provided API 
  44:Generated_Source\PSoC6\pdl\drivers/peripheral/gpio/cy_gpio.h **** * functions.
  45:Generated_Source\PSoC6\pdl\drivers/peripheral/gpio/cy_gpio.h **** *
  46:Generated_Source\PSoC6\pdl\drivers/peripheral/gpio/cy_gpio.h **** * \section group_gpio_configuration Configuration Considerations
  47:Generated_Source\PSoC6\pdl\drivers/peripheral/gpio/cy_gpio.h **** *
  48:Generated_Source\PSoC6\pdl\drivers/peripheral/gpio/cy_gpio.h **** * 1. Pin multiplexing is controlled through the High-Speed IO Matrix (HSIOM) selection.
  49:Generated_Source\PSoC6\pdl\drivers/peripheral/gpio/cy_gpio.h **** *    This allows the pin to connect to signal sources/sinks throughout the device,
  50:Generated_Source\PSoC6\pdl\drivers/peripheral/gpio/cy_gpio.h **** *    as defined by the pin HSIOM selection options (en_hsiom_sel_t).
  51:Generated_Source\PSoC6\pdl\drivers/peripheral/gpio/cy_gpio.h **** * 2. All pins are initialized to High-Z drive mode with HSIOM connected to CPU (SW
  52:Generated_Source\PSoC6\pdl\drivers/peripheral/gpio/cy_gpio.h **** *    control digital pin only) at Power-On-Reset(POR).
  53:Generated_Source\PSoC6\pdl\drivers/peripheral/gpio/cy_gpio.h **** * 3. Some API functions perform read-modify-write operations on shared port
  54:Generated_Source\PSoC6\pdl\drivers/peripheral/gpio/cy_gpio.h **** *    registers. These functions are not thread safe and care must be taken when
  55:Generated_Source\PSoC6\pdl\drivers/peripheral/gpio/cy_gpio.h **** *    called by the application.
  56:Generated_Source\PSoC6\pdl\drivers/peripheral/gpio/cy_gpio.h **** * 4. Digital input buffer provides a high-impedance buffer for the external 
  57:Generated_Source\PSoC6\pdl\drivers/peripheral/gpio/cy_gpio.h **** *    digital input. The input buffer is connected to the HSIOM for routing to 
  58:Generated_Source\PSoC6\pdl\drivers/peripheral/gpio/cy_gpio.h **** *    the CPU port registers and selected peripheral. Enabling the input 
  59:Generated_Source\PSoC6\pdl\drivers/peripheral/gpio/cy_gpio.h **** *    buffer provides possibility to read the pin state via the CPU.
  60:Generated_Source\PSoC6\pdl\drivers/peripheral/gpio/cy_gpio.h **** *    If pin is connected to an analog signal, the input buffer should be 
  61:Generated_Source\PSoC6\pdl\drivers/peripheral/gpio/cy_gpio.h **** *    disabled to avoid crowbar currents. For more information refer to device 
  62:Generated_Source\PSoC6\pdl\drivers/peripheral/gpio/cy_gpio.h **** *    TRM and the device datasheet.
  63:Generated_Source\PSoC6\pdl\drivers/peripheral/gpio/cy_gpio.h **** *
  64:Generated_Source\PSoC6\pdl\drivers/peripheral/gpio/cy_gpio.h **** * Multiple pins on a port can be updated using direct port register writes with an
  65:Generated_Source\PSoC6\pdl\drivers/peripheral/gpio/cy_gpio.h **** * appropriate port mask. An example is shown below, highlighting the different ways of 
  66:Generated_Source\PSoC6\pdl\drivers/peripheral/gpio/cy_gpio.h **** * configuring Port 1 pins using:
  67:Generated_Source\PSoC6\pdl\drivers/peripheral/gpio/cy_gpio.h **** * 
  68:Generated_Source\PSoC6\pdl\drivers/peripheral/gpio/cy_gpio.h **** * - Port output data register
  69:Generated_Source\PSoC6\pdl\drivers/peripheral/gpio/cy_gpio.h **** * - Port output data set register
  70:Generated_Source\PSoC6\pdl\drivers/peripheral/gpio/cy_gpio.h **** * - Port output data clear register
  71:Generated_Source\PSoC6\pdl\drivers/peripheral/gpio/cy_gpio.h **** *
  72:Generated_Source\PSoC6\pdl\drivers/peripheral/gpio/cy_gpio.h **** * \snippet gpio/gpio_v1_10_sut_01.cydsn/main_cm4.c Cy_GPIO_Snippet
  73:Generated_Source\PSoC6\pdl\drivers/peripheral/gpio/cy_gpio.h **** *
  74:Generated_Source\PSoC6\pdl\drivers/peripheral/gpio/cy_gpio.h **** * \section group_gpio_more_information More Information
  75:Generated_Source\PSoC6\pdl\drivers/peripheral/gpio/cy_gpio.h **** *
  76:Generated_Source\PSoC6\pdl\drivers/peripheral/gpio/cy_gpio.h **** * Refer to the technical reference manual (TRM) and the device datasheet.
  77:Generated_Source\PSoC6\pdl\drivers/peripheral/gpio/cy_gpio.h **** *
  78:Generated_Source\PSoC6\pdl\drivers/peripheral/gpio/cy_gpio.h **** * \section group_gpio_MISRA MISRA-C Compliance
  79:Generated_Source\PSoC6\pdl\drivers/peripheral/gpio/cy_gpio.h **** * The GPIO driver has the following specific deviations:
  80:Generated_Source\PSoC6\pdl\drivers/peripheral/gpio/cy_gpio.h **** *
  81:Generated_Source\PSoC6\pdl\drivers/peripheral/gpio/cy_gpio.h **** * <table class="doxtable">
  82:Generated_Source\PSoC6\pdl\drivers/peripheral/gpio/cy_gpio.h **** *   <tr>
  83:Generated_Source\PSoC6\pdl\drivers/peripheral/gpio/cy_gpio.h **** *     <th>MISRA Rule</th>
  84:Generated_Source\PSoC6\pdl\drivers/peripheral/gpio/cy_gpio.h **** *     <th>Rule Class (Required/Advisory)</th>
  85:Generated_Source\PSoC6\pdl\drivers/peripheral/gpio/cy_gpio.h **** *     <th>Rule Description</th>
  86:Generated_Source\PSoC6\pdl\drivers/peripheral/gpio/cy_gpio.h **** *     <th>Description of Deviation(s)</th>
  87:Generated_Source\PSoC6\pdl\drivers/peripheral/gpio/cy_gpio.h **** *   </tr>
  88:Generated_Source\PSoC6\pdl\drivers/peripheral/gpio/cy_gpio.h **** *   <tr>
  89:Generated_Source\PSoC6\pdl\drivers/peripheral/gpio/cy_gpio.h **** *     <td>11.4</td>
  90:Generated_Source\PSoC6\pdl\drivers/peripheral/gpio/cy_gpio.h **** *     <td>A</td>
  91:Generated_Source\PSoC6\pdl\drivers/peripheral/gpio/cy_gpio.h **** *     <td>A cast should not be performed between a pointer to object type and
  92:Generated_Source\PSoC6\pdl\drivers/peripheral/gpio/cy_gpio.h **** *         a different pointer to object type.</td>
ARM GAS  C:\Users\deathc\AppData\Local\Temp\cc1pP50L.s 			page 13


  93:Generated_Source\PSoC6\pdl\drivers/peripheral/gpio/cy_gpio.h **** *     <td> This code is safe because the elements of both GPIO_PRT_V1_Type and GPIO_PRT_V2_Type 
  94:Generated_Source\PSoC6\pdl\drivers/peripheral/gpio/cy_gpio.h **** *          types have identical alignment.</td>
  95:Generated_Source\PSoC6\pdl\drivers/peripheral/gpio/cy_gpio.h **** *   </tr>
  96:Generated_Source\PSoC6\pdl\drivers/peripheral/gpio/cy_gpio.h **** *   <tr>
  97:Generated_Source\PSoC6\pdl\drivers/peripheral/gpio/cy_gpio.h **** *     <td>16.7</td>
  98:Generated_Source\PSoC6\pdl\drivers/peripheral/gpio/cy_gpio.h **** *     <td>A</td>
  99:Generated_Source\PSoC6\pdl\drivers/peripheral/gpio/cy_gpio.h **** *     <td>A pointer parameter in a function prototype should be declared as pointer 
 100:Generated_Source\PSoC6\pdl\drivers/peripheral/gpio/cy_gpio.h **** *         to const if the pointer is not used to modify the addressed object.</td>
 101:Generated_Source\PSoC6\pdl\drivers/peripheral/gpio/cy_gpio.h **** *     <td>The objects pointed to by the base addresses of the GPIO port are not always modified.
 102:Generated_Source\PSoC6\pdl\drivers/peripheral/gpio/cy_gpio.h **** *         While a const qualifier can be used in select scenarios, it brings little benefit
 103:Generated_Source\PSoC6\pdl\drivers/peripheral/gpio/cy_gpio.h **** *         in adding this to the affected functions. </td>
 104:Generated_Source\PSoC6\pdl\drivers/peripheral/gpio/cy_gpio.h **** *   </tr>
 105:Generated_Source\PSoC6\pdl\drivers/peripheral/gpio/cy_gpio.h **** * </table>
 106:Generated_Source\PSoC6\pdl\drivers/peripheral/gpio/cy_gpio.h **** *
 107:Generated_Source\PSoC6\pdl\drivers/peripheral/gpio/cy_gpio.h **** * \section group_gpio_changelog Changelog
 108:Generated_Source\PSoC6\pdl\drivers/peripheral/gpio/cy_gpio.h **** * <table class="doxtable">
 109:Generated_Source\PSoC6\pdl\drivers/peripheral/gpio/cy_gpio.h **** *   <tr><th>Version</th><th>Changes</th><th>Reason for Change</th></tr>
 110:Generated_Source\PSoC6\pdl\drivers/peripheral/gpio/cy_gpio.h **** *   <tr>
 111:Generated_Source\PSoC6\pdl\drivers/peripheral/gpio/cy_gpio.h **** *     <td rowspan="3">1.20</td>
 112:Generated_Source\PSoC6\pdl\drivers/peripheral/gpio/cy_gpio.h **** *     <td>Flattened the organization of the driver source code into the single source directory and
 113:Generated_Source\PSoC6\pdl\drivers/peripheral/gpio/cy_gpio.h **** *     <td>Driver library directory-structure simplification.</td>
 114:Generated_Source\PSoC6\pdl\drivers/peripheral/gpio/cy_gpio.h **** *   </tr>
 115:Generated_Source\PSoC6\pdl\drivers/peripheral/gpio/cy_gpio.h **** *   <tr>
 116:Generated_Source\PSoC6\pdl\drivers/peripheral/gpio/cy_gpio.h **** *     <td>Added the functions for configuring the AMux bus splitter switch cells:
 117:Generated_Source\PSoC6\pdl\drivers/peripheral/gpio/cy_gpio.h **** *     - \ref Cy_GPIO_SetAmuxSplit
 118:Generated_Source\PSoC6\pdl\drivers/peripheral/gpio/cy_gpio.h **** *     - \ref Cy_GPIO_GetAmuxSplit
 119:Generated_Source\PSoC6\pdl\drivers/peripheral/gpio/cy_gpio.h **** *     </td>
 120:Generated_Source\PSoC6\pdl\drivers/peripheral/gpio/cy_gpio.h **** *     <td>Added a new functionality related to AMux bus.</td>
 121:Generated_Source\PSoC6\pdl\drivers/peripheral/gpio/cy_gpio.h **** *   </tr>
 122:Generated_Source\PSoC6\pdl\drivers/peripheral/gpio/cy_gpio.h **** *   <tr>
 123:Generated_Source\PSoC6\pdl\drivers/peripheral/gpio/cy_gpio.h **** *     <td>Added register access layer. Use register access macros instead
 124:Generated_Source\PSoC6\pdl\drivers/peripheral/gpio/cy_gpio.h **** *         of direct register access using dereferenced pointers.</td>
 125:Generated_Source\PSoC6\pdl\drivers/peripheral/gpio/cy_gpio.h **** *     <td>Makes register access device-independent, so that the PDL does 
 126:Generated_Source\PSoC6\pdl\drivers/peripheral/gpio/cy_gpio.h **** *         not need to be recompiled for each supported part number.</td>
 127:Generated_Source\PSoC6\pdl\drivers/peripheral/gpio/cy_gpio.h **** *   </tr>
 128:Generated_Source\PSoC6\pdl\drivers/peripheral/gpio/cy_gpio.h **** *   <tr>
 129:Generated_Source\PSoC6\pdl\drivers/peripheral/gpio/cy_gpio.h **** *     <td>1.10.1</td>
 130:Generated_Source\PSoC6\pdl\drivers/peripheral/gpio/cy_gpio.h **** *     <td>Updated description for the functions: \ref Cy_GPIO_GetInterruptStatus, 
 131:Generated_Source\PSoC6\pdl\drivers/peripheral/gpio/cy_gpio.h **** *         \ref Cy_GPIO_GetInterruptMask, \ref Cy_GPIO_GetInterruptStatusMasked.
 132:Generated_Source\PSoC6\pdl\drivers/peripheral/gpio/cy_gpio.h **** *
 133:Generated_Source\PSoC6\pdl\drivers/peripheral/gpio/cy_gpio.h **** *         Minor documentation edits.
 134:Generated_Source\PSoC6\pdl\drivers/peripheral/gpio/cy_gpio.h **** *     </td>
 135:Generated_Source\PSoC6\pdl\drivers/peripheral/gpio/cy_gpio.h **** *     <td>Documentation update and clarification</td>
 136:Generated_Source\PSoC6\pdl\drivers/peripheral/gpio/cy_gpio.h **** *   </tr>
 137:Generated_Source\PSoC6\pdl\drivers/peripheral/gpio/cy_gpio.h **** *   <tr>
 138:Generated_Source\PSoC6\pdl\drivers/peripheral/gpio/cy_gpio.h **** *     <td>1.10</td>
 139:Generated_Source\PSoC6\pdl\drivers/peripheral/gpio/cy_gpio.h **** *     <td>Added input parameter validation to the API functions</td>
 140:Generated_Source\PSoC6\pdl\drivers/peripheral/gpio/cy_gpio.h **** *     <td></td>
 141:Generated_Source\PSoC6\pdl\drivers/peripheral/gpio/cy_gpio.h **** *   </tr>
 142:Generated_Source\PSoC6\pdl\drivers/peripheral/gpio/cy_gpio.h **** *   <tr>
 143:Generated_Source\PSoC6\pdl\drivers/peripheral/gpio/cy_gpio.h **** *     <td>1.0</td>
 144:Generated_Source\PSoC6\pdl\drivers/peripheral/gpio/cy_gpio.h **** *     <td>Initial version</td>
 145:Generated_Source\PSoC6\pdl\drivers/peripheral/gpio/cy_gpio.h **** *     <td></td>
 146:Generated_Source\PSoC6\pdl\drivers/peripheral/gpio/cy_gpio.h **** *   </tr>
 147:Generated_Source\PSoC6\pdl\drivers/peripheral/gpio/cy_gpio.h **** * </table>
 148:Generated_Source\PSoC6\pdl\drivers/peripheral/gpio/cy_gpio.h **** *
 149:Generated_Source\PSoC6\pdl\drivers/peripheral/gpio/cy_gpio.h **** * \defgroup group_gpio_macros Macros
ARM GAS  C:\Users\deathc\AppData\Local\Temp\cc1pP50L.s 			page 14


 150:Generated_Source\PSoC6\pdl\drivers/peripheral/gpio/cy_gpio.h **** * \defgroup group_gpio_functions Functions
 151:Generated_Source\PSoC6\pdl\drivers/peripheral/gpio/cy_gpio.h **** * \{
 152:Generated_Source\PSoC6\pdl\drivers/peripheral/gpio/cy_gpio.h **** *   \defgroup group_gpio_functions_init       Initialization Functions
 153:Generated_Source\PSoC6\pdl\drivers/peripheral/gpio/cy_gpio.h **** *   \defgroup group_gpio_functions_gpio       GPIO Functions
 154:Generated_Source\PSoC6\pdl\drivers/peripheral/gpio/cy_gpio.h **** *   \defgroup group_gpio_functions_sio        SIO Functions
 155:Generated_Source\PSoC6\pdl\drivers/peripheral/gpio/cy_gpio.h **** *   \defgroup group_gpio_functions_interrupt  Port Interrupt Functions
 156:Generated_Source\PSoC6\pdl\drivers/peripheral/gpio/cy_gpio.h **** * \}
 157:Generated_Source\PSoC6\pdl\drivers/peripheral/gpio/cy_gpio.h **** * \defgroup group_gpio_data_structures Data Structures
 158:Generated_Source\PSoC6\pdl\drivers/peripheral/gpio/cy_gpio.h **** * \defgroup group_gpio_enums Enumerated Types
 159:Generated_Source\PSoC6\pdl\drivers/peripheral/gpio/cy_gpio.h **** */
 160:Generated_Source\PSoC6\pdl\drivers/peripheral/gpio/cy_gpio.h **** 
 161:Generated_Source\PSoC6\pdl\drivers/peripheral/gpio/cy_gpio.h **** #if !defined(CY_GPIO_H)
 162:Generated_Source\PSoC6\pdl\drivers/peripheral/gpio/cy_gpio.h **** #define CY_GPIO_H
 163:Generated_Source\PSoC6\pdl\drivers/peripheral/gpio/cy_gpio.h **** 
 164:Generated_Source\PSoC6\pdl\drivers/peripheral/gpio/cy_gpio.h **** #include <stddef.h>
 165:Generated_Source\PSoC6\pdl\drivers/peripheral/gpio/cy_gpio.h **** #include "cy_device.h"
 166:Generated_Source\PSoC6\pdl\drivers/peripheral/gpio/cy_gpio.h **** #include "cy_device_headers.h"
 167:Generated_Source\PSoC6\pdl\drivers/peripheral/gpio/cy_gpio.h **** #include "cy_syslib.h"
 168:Generated_Source\PSoC6\pdl\drivers/peripheral/gpio/cy_gpio.h **** 
 169:Generated_Source\PSoC6\pdl\drivers/peripheral/gpio/cy_gpio.h **** #if defined(__cplusplus)
 170:Generated_Source\PSoC6\pdl\drivers/peripheral/gpio/cy_gpio.h **** extern "C" {
 171:Generated_Source\PSoC6\pdl\drivers/peripheral/gpio/cy_gpio.h **** #endif
 172:Generated_Source\PSoC6\pdl\drivers/peripheral/gpio/cy_gpio.h **** 
 173:Generated_Source\PSoC6\pdl\drivers/peripheral/gpio/cy_gpio.h **** /** \addtogroup group_gpio_macros
 174:Generated_Source\PSoC6\pdl\drivers/peripheral/gpio/cy_gpio.h **** * \{
 175:Generated_Source\PSoC6\pdl\drivers/peripheral/gpio/cy_gpio.h **** */
 176:Generated_Source\PSoC6\pdl\drivers/peripheral/gpio/cy_gpio.h **** 
 177:Generated_Source\PSoC6\pdl\drivers/peripheral/gpio/cy_gpio.h **** /** Driver major version */
 178:Generated_Source\PSoC6\pdl\drivers/peripheral/gpio/cy_gpio.h **** #define CY_GPIO_DRV_VERSION_MAJOR       1
 179:Generated_Source\PSoC6\pdl\drivers/peripheral/gpio/cy_gpio.h **** 
 180:Generated_Source\PSoC6\pdl\drivers/peripheral/gpio/cy_gpio.h **** /** Driver minor version */
 181:Generated_Source\PSoC6\pdl\drivers/peripheral/gpio/cy_gpio.h **** #define CY_GPIO_DRV_VERSION_MINOR       20
 182:Generated_Source\PSoC6\pdl\drivers/peripheral/gpio/cy_gpio.h **** 
 183:Generated_Source\PSoC6\pdl\drivers/peripheral/gpio/cy_gpio.h **** /** GPIO driver ID */
 184:Generated_Source\PSoC6\pdl\drivers/peripheral/gpio/cy_gpio.h **** #define CY_GPIO_ID CY_PDL_DRV_ID(0x16U)
 185:Generated_Source\PSoC6\pdl\drivers/peripheral/gpio/cy_gpio.h **** 
 186:Generated_Source\PSoC6\pdl\drivers/peripheral/gpio/cy_gpio.h **** /** \} group_gpio_macros */
 187:Generated_Source\PSoC6\pdl\drivers/peripheral/gpio/cy_gpio.h **** 
 188:Generated_Source\PSoC6\pdl\drivers/peripheral/gpio/cy_gpio.h **** 
 189:Generated_Source\PSoC6\pdl\drivers/peripheral/gpio/cy_gpio.h **** /***************************************
 190:Generated_Source\PSoC6\pdl\drivers/peripheral/gpio/cy_gpio.h **** *       Enumerations
 191:Generated_Source\PSoC6\pdl\drivers/peripheral/gpio/cy_gpio.h **** ***************************************/
 192:Generated_Source\PSoC6\pdl\drivers/peripheral/gpio/cy_gpio.h **** /**
 193:Generated_Source\PSoC6\pdl\drivers/peripheral/gpio/cy_gpio.h **** * \addtogroup group_gpio_enums
 194:Generated_Source\PSoC6\pdl\drivers/peripheral/gpio/cy_gpio.h **** * \{
 195:Generated_Source\PSoC6\pdl\drivers/peripheral/gpio/cy_gpio.h **** */
 196:Generated_Source\PSoC6\pdl\drivers/peripheral/gpio/cy_gpio.h **** 
 197:Generated_Source\PSoC6\pdl\drivers/peripheral/gpio/cy_gpio.h **** /** GPIO Driver error codes */
 198:Generated_Source\PSoC6\pdl\drivers/peripheral/gpio/cy_gpio.h **** typedef enum 
 199:Generated_Source\PSoC6\pdl\drivers/peripheral/gpio/cy_gpio.h **** {
 200:Generated_Source\PSoC6\pdl\drivers/peripheral/gpio/cy_gpio.h ****     CY_GPIO_SUCCESS   = 0x00U,                                    /**< Returned successful */
 201:Generated_Source\PSoC6\pdl\drivers/peripheral/gpio/cy_gpio.h ****     CY_GPIO_BAD_PARAM = CY_GPIO_ID | CY_PDL_STATUS_ERROR | 0x01U, /**< Bad parameter was passed */
 202:Generated_Source\PSoC6\pdl\drivers/peripheral/gpio/cy_gpio.h **** } cy_en_gpio_status_t;
 203:Generated_Source\PSoC6\pdl\drivers/peripheral/gpio/cy_gpio.h **** 
 204:Generated_Source\PSoC6\pdl\drivers/peripheral/gpio/cy_gpio.h **** /** AMux switch open/close config */
 205:Generated_Source\PSoC6\pdl\drivers/peripheral/gpio/cy_gpio.h **** typedef enum
 206:Generated_Source\PSoC6\pdl\drivers/peripheral/gpio/cy_gpio.h **** {
ARM GAS  C:\Users\deathc\AppData\Local\Temp\cc1pP50L.s 			page 15


 207:Generated_Source\PSoC6\pdl\drivers/peripheral/gpio/cy_gpio.h ****     CY_GPIO_AMUX_OPENALL,   /**< Open ground switch. Open right switch. Open left switch */
 208:Generated_Source\PSoC6\pdl\drivers/peripheral/gpio/cy_gpio.h ****     CY_GPIO_AMUX_L,         /**< Open ground switch. Open right switch. Close left switch */
 209:Generated_Source\PSoC6\pdl\drivers/peripheral/gpio/cy_gpio.h ****     CY_GPIO_AMUX_R,         /**< Open ground switch. Close right switch. Open left switch */
 210:Generated_Source\PSoC6\pdl\drivers/peripheral/gpio/cy_gpio.h ****     CY_GPIO_AMUX_LR,        /**< Open ground switch. Close right switch. Close left switch */
 211:Generated_Source\PSoC6\pdl\drivers/peripheral/gpio/cy_gpio.h ****     CY_GPIO_AMUX_G,         /**< Close ground switch. Open right switch. Open left switch */
 212:Generated_Source\PSoC6\pdl\drivers/peripheral/gpio/cy_gpio.h ****     CY_GPIO_AMUX_GL,        /**< Close ground switch. Open right switch. Close left switch */
 213:Generated_Source\PSoC6\pdl\drivers/peripheral/gpio/cy_gpio.h ****     CY_GPIO_AMUX_GR,        /**< Close ground switch. Close right switch. Open left switch */
 214:Generated_Source\PSoC6\pdl\drivers/peripheral/gpio/cy_gpio.h ****     CY_GPIO_AMUX_GLR,       /**< Close ground switch. Close right switch. Close left switch */
 215:Generated_Source\PSoC6\pdl\drivers/peripheral/gpio/cy_gpio.h **** }cy_en_gpio_amuxconnect_t;
 216:Generated_Source\PSoC6\pdl\drivers/peripheral/gpio/cy_gpio.h **** 
 217:Generated_Source\PSoC6\pdl\drivers/peripheral/gpio/cy_gpio.h **** /**
 218:Generated_Source\PSoC6\pdl\drivers/peripheral/gpio/cy_gpio.h **** * AMux Bus selection
 219:Generated_Source\PSoC6\pdl\drivers/peripheral/gpio/cy_gpio.h **** */
 220:Generated_Source\PSoC6\pdl\drivers/peripheral/gpio/cy_gpio.h **** typedef enum
 221:Generated_Source\PSoC6\pdl\drivers/peripheral/gpio/cy_gpio.h **** {
 222:Generated_Source\PSoC6\pdl\drivers/peripheral/gpio/cy_gpio.h ****     CY_GPIO_AMUXBUSA,       /**< AMuxBus A */
 223:Generated_Source\PSoC6\pdl\drivers/peripheral/gpio/cy_gpio.h ****     CY_GPIO_AMUXBUSB        /**< AMuxBus B */
 224:Generated_Source\PSoC6\pdl\drivers/peripheral/gpio/cy_gpio.h **** }cy_en_gpio_amuxselect_t;
 225:Generated_Source\PSoC6\pdl\drivers/peripheral/gpio/cy_gpio.h **** 
 226:Generated_Source\PSoC6\pdl\drivers/peripheral/gpio/cy_gpio.h **** /** \} group_gpio_enums */
 227:Generated_Source\PSoC6\pdl\drivers/peripheral/gpio/cy_gpio.h **** 
 228:Generated_Source\PSoC6\pdl\drivers/peripheral/gpio/cy_gpio.h **** 
 229:Generated_Source\PSoC6\pdl\drivers/peripheral/gpio/cy_gpio.h **** /***************************************
 230:Generated_Source\PSoC6\pdl\drivers/peripheral/gpio/cy_gpio.h **** *       Configuration Structures
 231:Generated_Source\PSoC6\pdl\drivers/peripheral/gpio/cy_gpio.h **** ***************************************/
 232:Generated_Source\PSoC6\pdl\drivers/peripheral/gpio/cy_gpio.h **** 
 233:Generated_Source\PSoC6\pdl\drivers/peripheral/gpio/cy_gpio.h **** /**
 234:Generated_Source\PSoC6\pdl\drivers/peripheral/gpio/cy_gpio.h **** * \addtogroup group_gpio_data_structures
 235:Generated_Source\PSoC6\pdl\drivers/peripheral/gpio/cy_gpio.h **** * \{
 236:Generated_Source\PSoC6\pdl\drivers/peripheral/gpio/cy_gpio.h **** */
 237:Generated_Source\PSoC6\pdl\drivers/peripheral/gpio/cy_gpio.h **** 
 238:Generated_Source\PSoC6\pdl\drivers/peripheral/gpio/cy_gpio.h **** /** This structure is used to initialize a port of GPIO pins */
 239:Generated_Source\PSoC6\pdl\drivers/peripheral/gpio/cy_gpio.h **** typedef struct 
 240:Generated_Source\PSoC6\pdl\drivers/peripheral/gpio/cy_gpio.h **** {
 241:Generated_Source\PSoC6\pdl\drivers/peripheral/gpio/cy_gpio.h ****     uint32_t out;           /**< Initial output data for the IO pins in the port */
 242:Generated_Source\PSoC6\pdl\drivers/peripheral/gpio/cy_gpio.h ****     uint32_t intrMask;      /**< Interrupt enable mask for the port interrupt */
 243:Generated_Source\PSoC6\pdl\drivers/peripheral/gpio/cy_gpio.h ****     uint32_t intrCfg;       /**< Port pin interrupt edge detection configuration */
 244:Generated_Source\PSoC6\pdl\drivers/peripheral/gpio/cy_gpio.h ****     uint32_t cfg;           /**< Port pin drive modes and input buffer enable configuration */
 245:Generated_Source\PSoC6\pdl\drivers/peripheral/gpio/cy_gpio.h ****     uint32_t cfgIn;         /**< Port pin input buffer configuration */
 246:Generated_Source\PSoC6\pdl\drivers/peripheral/gpio/cy_gpio.h ****     uint32_t cfgOut;        /**< Port pin output buffer configuration */
 247:Generated_Source\PSoC6\pdl\drivers/peripheral/gpio/cy_gpio.h ****     uint32_t cfgSIO;        /**< Port SIO pins configuration */
 248:Generated_Source\PSoC6\pdl\drivers/peripheral/gpio/cy_gpio.h ****     uint32_t sel0Active;    /**< HSIOM selection for port pins 0,1,2,3 */
 249:Generated_Source\PSoC6\pdl\drivers/peripheral/gpio/cy_gpio.h ****     uint32_t sel1Active;    /**< HSIOM selection for port pins 4,5,6,7 */
 250:Generated_Source\PSoC6\pdl\drivers/peripheral/gpio/cy_gpio.h **** } cy_stc_gpio_prt_config_t;
 251:Generated_Source\PSoC6\pdl\drivers/peripheral/gpio/cy_gpio.h **** 
 252:Generated_Source\PSoC6\pdl\drivers/peripheral/gpio/cy_gpio.h **** /** This structure is used to initialize a single GPIO pin */
 253:Generated_Source\PSoC6\pdl\drivers/peripheral/gpio/cy_gpio.h **** typedef struct
 254:Generated_Source\PSoC6\pdl\drivers/peripheral/gpio/cy_gpio.h **** {
 255:Generated_Source\PSoC6\pdl\drivers/peripheral/gpio/cy_gpio.h ****     uint32_t outVal;         /**< Pin output state */
 256:Generated_Source\PSoC6\pdl\drivers/peripheral/gpio/cy_gpio.h ****     uint32_t driveMode;      /**< Drive mode */
 257:Generated_Source\PSoC6\pdl\drivers/peripheral/gpio/cy_gpio.h ****     en_hsiom_sel_t hsiom;    /**< HSIOM selection */
 258:Generated_Source\PSoC6\pdl\drivers/peripheral/gpio/cy_gpio.h ****     uint32_t intEdge;        /**< Interrupt Edge type */
 259:Generated_Source\PSoC6\pdl\drivers/peripheral/gpio/cy_gpio.h ****     uint32_t intMask;        /**< Interrupt enable mask */
 260:Generated_Source\PSoC6\pdl\drivers/peripheral/gpio/cy_gpio.h ****     uint32_t vtrip;          /**< Input buffer voltage trip type */
 261:Generated_Source\PSoC6\pdl\drivers/peripheral/gpio/cy_gpio.h ****     uint32_t slewRate;       /**< Output buffer slew rate */
 262:Generated_Source\PSoC6\pdl\drivers/peripheral/gpio/cy_gpio.h ****     uint32_t driveSel;       /**< Drive strength */
 263:Generated_Source\PSoC6\pdl\drivers/peripheral/gpio/cy_gpio.h ****     uint32_t vregEn;         /**< SIO pair output buffer mode */
ARM GAS  C:\Users\deathc\AppData\Local\Temp\cc1pP50L.s 			page 16


 264:Generated_Source\PSoC6\pdl\drivers/peripheral/gpio/cy_gpio.h ****     uint32_t ibufMode;       /**< SIO pair input buffer mode */
 265:Generated_Source\PSoC6\pdl\drivers/peripheral/gpio/cy_gpio.h ****     uint32_t vtripSel;       /**< SIO pair input buffer trip point */
 266:Generated_Source\PSoC6\pdl\drivers/peripheral/gpio/cy_gpio.h ****     uint32_t vrefSel;        /**< SIO pair reference voltage for input buffer trip point */
 267:Generated_Source\PSoC6\pdl\drivers/peripheral/gpio/cy_gpio.h ****     uint32_t vohSel;         /**< SIO pair regulated voltage output level */
 268:Generated_Source\PSoC6\pdl\drivers/peripheral/gpio/cy_gpio.h **** } cy_stc_gpio_pin_config_t;
 269:Generated_Source\PSoC6\pdl\drivers/peripheral/gpio/cy_gpio.h **** 
 270:Generated_Source\PSoC6\pdl\drivers/peripheral/gpio/cy_gpio.h **** /** \} group_gpio_data_structures */
 271:Generated_Source\PSoC6\pdl\drivers/peripheral/gpio/cy_gpio.h **** 
 272:Generated_Source\PSoC6\pdl\drivers/peripheral/gpio/cy_gpio.h **** /***************************************
 273:Generated_Source\PSoC6\pdl\drivers/peripheral/gpio/cy_gpio.h **** *        Constants
 274:Generated_Source\PSoC6\pdl\drivers/peripheral/gpio/cy_gpio.h **** ***************************************/
 275:Generated_Source\PSoC6\pdl\drivers/peripheral/gpio/cy_gpio.h **** 
 276:Generated_Source\PSoC6\pdl\drivers/peripheral/gpio/cy_gpio.h **** /** \cond INTERNAL */
 277:Generated_Source\PSoC6\pdl\drivers/peripheral/gpio/cy_gpio.h **** 
 278:Generated_Source\PSoC6\pdl\drivers/peripheral/gpio/cy_gpio.h **** /* General Constants */
 279:Generated_Source\PSoC6\pdl\drivers/peripheral/gpio/cy_gpio.h **** #define CY_GPIO_PRT_HALF                       (4UL)      /**< Half-way point of a GPIO port */
 280:Generated_Source\PSoC6\pdl\drivers/peripheral/gpio/cy_gpio.h **** #define CY_GPIO_PRT_DEINIT                     (0UL)      /**< De-init value for port registers */
 281:Generated_Source\PSoC6\pdl\drivers/peripheral/gpio/cy_gpio.h **** 
 282:Generated_Source\PSoC6\pdl\drivers/peripheral/gpio/cy_gpio.h **** /* GPIO Masks */
 283:Generated_Source\PSoC6\pdl\drivers/peripheral/gpio/cy_gpio.h **** #define CY_GPIO_HSIOM_MASK                     (0x1FUL)   /**< HSIOM selection mask */
 284:Generated_Source\PSoC6\pdl\drivers/peripheral/gpio/cy_gpio.h **** #define CY_GPIO_OUT_MASK                       (0x01UL)   /**< Single pin mask for OUT register */
 285:Generated_Source\PSoC6\pdl\drivers/peripheral/gpio/cy_gpio.h **** #define CY_GPIO_IN_MASK                        (0x01UL)   /**< Single pin mask for IN register */
 286:Generated_Source\PSoC6\pdl\drivers/peripheral/gpio/cy_gpio.h **** #define CY_GPIO_CFG_DM_MASK                    (0x0FUL)   /**< Single pin mask for drive mode in CF
 287:Generated_Source\PSoC6\pdl\drivers/peripheral/gpio/cy_gpio.h **** #define CY_GPIO_CFG_IN_VTRIP_SEL_MASK          (0x01UL)   /**< Single pin mask for VTRIP selection 
 288:Generated_Source\PSoC6\pdl\drivers/peripheral/gpio/cy_gpio.h **** #define CY_GPIO_CFG_OUT_SLOW_MASK              (0x01UL)   /**< Single pin mask for slew rate in CFG
 289:Generated_Source\PSoC6\pdl\drivers/peripheral/gpio/cy_gpio.h **** #define CY_GPIO_CFG_OUT_DRIVE_SEL_MASK         (0x03UL)   /**< Single pin mask for drive strength i
 290:Generated_Source\PSoC6\pdl\drivers/peripheral/gpio/cy_gpio.h **** #define CY_GPIO_INTR_STATUS_MASK               (0x01UL)   /**< Single pin mask for interrupt status
 291:Generated_Source\PSoC6\pdl\drivers/peripheral/gpio/cy_gpio.h **** #define CY_GPIO_INTR_EN_MASK                   (0x01UL)   /**< Single pin mask for interrupt status
 292:Generated_Source\PSoC6\pdl\drivers/peripheral/gpio/cy_gpio.h **** #define CY_GPIO_INTR_MASKED_MASK               (0x01UL)   /**< Single pin mask for masked interrupt
 293:Generated_Source\PSoC6\pdl\drivers/peripheral/gpio/cy_gpio.h **** #define CY_GPIO_INTR_SET_MASK                  (0x01UL)   /**< Single pin mask for setting the inte
 294:Generated_Source\PSoC6\pdl\drivers/peripheral/gpio/cy_gpio.h **** #define CY_GPIO_INTR_EDGE_MASK                 (0x03UL)   /**< Single pin mask for interrupt edge t
 295:Generated_Source\PSoC6\pdl\drivers/peripheral/gpio/cy_gpio.h **** #define CY_GPIO_INTR_FLT_EDGE_MASK             (0x07UL)   /**< Single pin mask for setting filtered
 296:Generated_Source\PSoC6\pdl\drivers/peripheral/gpio/cy_gpio.h **** 
 297:Generated_Source\PSoC6\pdl\drivers/peripheral/gpio/cy_gpio.h **** /* SIO Masks */
 298:Generated_Source\PSoC6\pdl\drivers/peripheral/gpio/cy_gpio.h **** #define CY_GPIO_VREG_EN_MASK                   (0x01UL)   /**< Single SIO pin mask for voltage regu
 299:Generated_Source\PSoC6\pdl\drivers/peripheral/gpio/cy_gpio.h **** #define CY_GPIO_IBUF_MASK                      (0x01UL)   /**< Single SIO pin mask for input buffer
 300:Generated_Source\PSoC6\pdl\drivers/peripheral/gpio/cy_gpio.h **** #define CY_GPIO_IBUF_SHIFT                     (0x01UL)   /**< Single SIO pin shift for input buffe
 301:Generated_Source\PSoC6\pdl\drivers/peripheral/gpio/cy_gpio.h **** #define CY_GPIO_VTRIP_SEL_MASK                 (0x01UL)   /**< Single SIO pin mask for the input bu
 302:Generated_Source\PSoC6\pdl\drivers/peripheral/gpio/cy_gpio.h **** #define CY_GPIO_VTRIP_SEL_SHIFT                (0x02UL)   /**< Single SIO pin shift for the input b
 303:Generated_Source\PSoC6\pdl\drivers/peripheral/gpio/cy_gpio.h **** #define CY_GPIO_VREF_SEL_MASK                  (0x03UL)   /**< Single SIO pin mask for voltage refe
 304:Generated_Source\PSoC6\pdl\drivers/peripheral/gpio/cy_gpio.h **** #define CY_GPIO_VREF_SEL_SHIFT                 (0x03UL)   /**< Single SIO pin shift for voltage ref
 305:Generated_Source\PSoC6\pdl\drivers/peripheral/gpio/cy_gpio.h **** #define CY_GPIO_VOH_SEL_MASK                   (0x07UL)   /**< Single SIO pin mask for VOH */
 306:Generated_Source\PSoC6\pdl\drivers/peripheral/gpio/cy_gpio.h **** #define CY_GPIO_VOH_SEL_SHIFT                  (0x05UL)   /**< Single SIO pin shift for VOH */
 307:Generated_Source\PSoC6\pdl\drivers/peripheral/gpio/cy_gpio.h **** 
 308:Generated_Source\PSoC6\pdl\drivers/peripheral/gpio/cy_gpio.h **** /* Special mask for SIO pin pair setting */
 309:Generated_Source\PSoC6\pdl\drivers/peripheral/gpio/cy_gpio.h **** #define CY_GPIO_SIO_ODD_PIN_MASK               (0x00FEUL) /**< SIO pin pair selection mask */
 310:Generated_Source\PSoC6\pdl\drivers/peripheral/gpio/cy_gpio.h **** #define CY_GPIO_SIO_PIN_MASK                   (0x00FFUL) /**< SIO pin pair mask */
 311:Generated_Source\PSoC6\pdl\drivers/peripheral/gpio/cy_gpio.h **** 
 312:Generated_Source\PSoC6\pdl\drivers/peripheral/gpio/cy_gpio.h **** /* Offsets */
 313:Generated_Source\PSoC6\pdl\drivers/peripheral/gpio/cy_gpio.h **** #define CY_GPIO_HSIOM_OFFSET                   (3UL)      /**< Offset for HSIOM */
 314:Generated_Source\PSoC6\pdl\drivers/peripheral/gpio/cy_gpio.h **** #define CY_GPIO_DRIVE_MODE_OFFSET              (2UL)      /**< Offset for Drive mode */
 315:Generated_Source\PSoC6\pdl\drivers/peripheral/gpio/cy_gpio.h **** #define CY_GPIO_INBUF_OFFSET                   (3UL)      /**< Offset for input buffer */
 316:Generated_Source\PSoC6\pdl\drivers/peripheral/gpio/cy_gpio.h **** #define CY_GPIO_CFG_OUT_DRIVE_OFFSET           (16UL)     /**< Offset for drive strength */
 317:Generated_Source\PSoC6\pdl\drivers/peripheral/gpio/cy_gpio.h **** #define CY_GPIO_INTR_CFG_OFFSET                (1UL)      /**< Offset for interrupt config */
 318:Generated_Source\PSoC6\pdl\drivers/peripheral/gpio/cy_gpio.h **** #define CY_GPIO_INTR_FILT_OFFSET               (18UL)     /**< Offset for filtered interrupt config
 319:Generated_Source\PSoC6\pdl\drivers/peripheral/gpio/cy_gpio.h **** #define CY_GPIO_CFG_SIO_OFFSET                 (2UL)      /**< Offset for SIO config */
 320:Generated_Source\PSoC6\pdl\drivers/peripheral/gpio/cy_gpio.h **** 
ARM GAS  C:\Users\deathc\AppData\Local\Temp\cc1pP50L.s 			page 17


 321:Generated_Source\PSoC6\pdl\drivers/peripheral/gpio/cy_gpio.h **** /* Parameter validation constants */
 322:Generated_Source\PSoC6\pdl\drivers/peripheral/gpio/cy_gpio.h **** #define CY_GPIO_PINS_MAX                       (8UL)      /**< Number of pins in the port */
 323:Generated_Source\PSoC6\pdl\drivers/peripheral/gpio/cy_gpio.h **** #define CY_GPIO_PRT_PINS_MASK                  (0x0000000FFUL)
 324:Generated_Source\PSoC6\pdl\drivers/peripheral/gpio/cy_gpio.h **** #define CY_GPIO_PRT_INTR_CFG_EDGE_SEL_MASK     (GPIO_PRT_INTR_CFG_EDGE0_SEL_Msk | \
 325:Generated_Source\PSoC6\pdl\drivers/peripheral/gpio/cy_gpio.h ****                                                 GPIO_PRT_INTR_CFG_EDGE1_SEL_Msk | \
 326:Generated_Source\PSoC6\pdl\drivers/peripheral/gpio/cy_gpio.h ****                                                 GPIO_PRT_INTR_CFG_EDGE2_SEL_Msk | \
 327:Generated_Source\PSoC6\pdl\drivers/peripheral/gpio/cy_gpio.h ****                                                 GPIO_PRT_INTR_CFG_EDGE3_SEL_Msk | \
 328:Generated_Source\PSoC6\pdl\drivers/peripheral/gpio/cy_gpio.h ****                                                 GPIO_PRT_INTR_CFG_EDGE4_SEL_Msk | \
 329:Generated_Source\PSoC6\pdl\drivers/peripheral/gpio/cy_gpio.h ****                                                 GPIO_PRT_INTR_CFG_EDGE5_SEL_Msk | \
 330:Generated_Source\PSoC6\pdl\drivers/peripheral/gpio/cy_gpio.h ****                                                 GPIO_PRT_INTR_CFG_EDGE6_SEL_Msk | \
 331:Generated_Source\PSoC6\pdl\drivers/peripheral/gpio/cy_gpio.h ****                                                 GPIO_PRT_INTR_CFG_EDGE7_SEL_Msk)
 332:Generated_Source\PSoC6\pdl\drivers/peripheral/gpio/cy_gpio.h **** #define CY_GPIO_PRT_INTR_CFG_RANGE_MASK        (CY_GPIO_PRT_INTR_CFG_EDGE_SEL_MASK | \
 333:Generated_Source\PSoC6\pdl\drivers/peripheral/gpio/cy_gpio.h ****                                                 GPIO_PRT_INTR_CFG_FLT_EDGE_SEL_Msk | \
 334:Generated_Source\PSoC6\pdl\drivers/peripheral/gpio/cy_gpio.h ****                                                 GPIO_PRT_INTR_CFG_FLT_SEL_Msk)
 335:Generated_Source\PSoC6\pdl\drivers/peripheral/gpio/cy_gpio.h **** #define CY_GPIO_PRT_INT_MASK_MASK              (0x0000001FFUL)
 336:Generated_Source\PSoC6\pdl\drivers/peripheral/gpio/cy_gpio.h **** #define CY_GPIO_PRT_SEL_ACTIVE_MASK            (0x1FFFFFFFUL)
 337:Generated_Source\PSoC6\pdl\drivers/peripheral/gpio/cy_gpio.h **** 
 338:Generated_Source\PSoC6\pdl\drivers/peripheral/gpio/cy_gpio.h **** #define GPIO_MAX_SPLIT_CELL_SEGMENTS           (9U)
 339:Generated_Source\PSoC6\pdl\drivers/peripheral/gpio/cy_gpio.h **** 
 340:Generated_Source\PSoC6\pdl\drivers/peripheral/gpio/cy_gpio.h **** /* Parameter validation macros */
 341:Generated_Source\PSoC6\pdl\drivers/peripheral/gpio/cy_gpio.h **** #define CY_GPIO_IS_PIN_VALID(pinNum)           (CY_GPIO_PINS_MAX > (pinNum))
 342:Generated_Source\PSoC6\pdl\drivers/peripheral/gpio/cy_gpio.h **** #define CY_GPIO_IS_FILTER_PIN_VALID(pinNum)    (CY_GPIO_PINS_MAX >= (pinNum))
 343:Generated_Source\PSoC6\pdl\drivers/peripheral/gpio/cy_gpio.h **** #define CY_GPIO_IS_VALUE_VALID(outVal)         (1UL >= (outVal))
 344:Generated_Source\PSoC6\pdl\drivers/peripheral/gpio/cy_gpio.h **** #define CY_GPIO_IS_DM_VALID(driveMode)         (0U == ((driveMode) & (uint32_t)~CY_GPIO_CFG_DM_MASK
 345:Generated_Source\PSoC6\pdl\drivers/peripheral/gpio/cy_gpio.h **** 
 346:Generated_Source\PSoC6\pdl\drivers/peripheral/gpio/cy_gpio.h **** #define CY_GPIO_IS_HSIOM_VALID(hsiom)          (0U == ((hsiom) & (uint32_t)~CY_GPIO_HSIOM_MASK))
 347:Generated_Source\PSoC6\pdl\drivers/peripheral/gpio/cy_gpio.h **** 
 348:Generated_Source\PSoC6\pdl\drivers/peripheral/gpio/cy_gpio.h **** #define CY_GPIO_IS_INT_EDGE_VALID(intEdge)     ((CY_GPIO_INTR_DISABLE  == (intEdge)) || \
 349:Generated_Source\PSoC6\pdl\drivers/peripheral/gpio/cy_gpio.h ****                                                 (CY_GPIO_INTR_RISING   == (intEdge)) || \
 350:Generated_Source\PSoC6\pdl\drivers/peripheral/gpio/cy_gpio.h ****                                                 (CY_GPIO_INTR_FALLING  == (intEdge)) || \
 351:Generated_Source\PSoC6\pdl\drivers/peripheral/gpio/cy_gpio.h ****                                                 (CY_GPIO_INTR_BOTH     == (intEdge)))
 352:Generated_Source\PSoC6\pdl\drivers/peripheral/gpio/cy_gpio.h **** 
 353:Generated_Source\PSoC6\pdl\drivers/peripheral/gpio/cy_gpio.h **** #define CY_GPIO_IS_DRIVE_SEL_VALID(driveSel)   ((CY_GPIO_DRIVE_FULL    == (driveSel)) || \
 354:Generated_Source\PSoC6\pdl\drivers/peripheral/gpio/cy_gpio.h ****                                                 (CY_GPIO_DRIVE_1_2     == (driveSel)) || \
 355:Generated_Source\PSoC6\pdl\drivers/peripheral/gpio/cy_gpio.h ****                                                 (CY_GPIO_DRIVE_1_4     == (driveSel)) || \
 356:Generated_Source\PSoC6\pdl\drivers/peripheral/gpio/cy_gpio.h ****                                                 (CY_GPIO_DRIVE_1_8     == (driveSel)))
 357:Generated_Source\PSoC6\pdl\drivers/peripheral/gpio/cy_gpio.h **** 
 358:Generated_Source\PSoC6\pdl\drivers/peripheral/gpio/cy_gpio.h **** #define CY_GPIO_IS_VREF_SEL_VALID(vrefSel)     ((CY_SIO_VREF_PINREF    == (vrefSel)) || \
 359:Generated_Source\PSoC6\pdl\drivers/peripheral/gpio/cy_gpio.h ****                                                 (CY_SIO_VREF_1_2V      == (vrefSel)) || \
 360:Generated_Source\PSoC6\pdl\drivers/peripheral/gpio/cy_gpio.h ****                                                 (CY_SIO_VREF_AMUX_A    == (vrefSel)) || \
 361:Generated_Source\PSoC6\pdl\drivers/peripheral/gpio/cy_gpio.h ****                                                 (CY_SIO_VREF_AMUX_B    == (vrefSel)))
 362:Generated_Source\PSoC6\pdl\drivers/peripheral/gpio/cy_gpio.h **** 
 363:Generated_Source\PSoC6\pdl\drivers/peripheral/gpio/cy_gpio.h **** #define CY_GPIO_IS_VOH_SEL_VALID(vrefSel)      ((CY_SIO_VOH_1_00       == (vrefSel)) || \
 364:Generated_Source\PSoC6\pdl\drivers/peripheral/gpio/cy_gpio.h ****                                                 (CY_SIO_VOH_1_25       == (vrefSel)) || \
 365:Generated_Source\PSoC6\pdl\drivers/peripheral/gpio/cy_gpio.h ****                                                 (CY_SIO_VOH_1_49       == (vrefSel)) || \
 366:Generated_Source\PSoC6\pdl\drivers/peripheral/gpio/cy_gpio.h ****                                                 (CY_SIO_VOH_1_67       == (vrefSel)) || \
 367:Generated_Source\PSoC6\pdl\drivers/peripheral/gpio/cy_gpio.h ****                                                 (CY_SIO_VOH_2_08       == (vrefSel)) || \
 368:Generated_Source\PSoC6\pdl\drivers/peripheral/gpio/cy_gpio.h ****                                                 (CY_SIO_VOH_2_50       == (vrefSel)) || \
 369:Generated_Source\PSoC6\pdl\drivers/peripheral/gpio/cy_gpio.h ****                                                 (CY_SIO_VOH_2_78       == (vrefSel)) || \
 370:Generated_Source\PSoC6\pdl\drivers/peripheral/gpio/cy_gpio.h ****                                                 (CY_SIO_VOH_4_16       == (vrefSel)))
 371:Generated_Source\PSoC6\pdl\drivers/peripheral/gpio/cy_gpio.h ****                    
 372:Generated_Source\PSoC6\pdl\drivers/peripheral/gpio/cy_gpio.h **** #define CY_GPIO_IS_PIN_BIT_VALID(pinBit)       (0U == ((pinBit) & (uint32_t)~CY_GPIO_PRT_PINS_MASK)
 373:Generated_Source\PSoC6\pdl\drivers/peripheral/gpio/cy_gpio.h **** #define CY_GPIO_IS_INTR_CFG_VALID(intrCfg)     (0U == ((intrCfg) & (uint32_t)~CY_GPIO_PRT_INTR_CFG_
 374:Generated_Source\PSoC6\pdl\drivers/peripheral/gpio/cy_gpio.h **** #define CY_GPIO_IS_INTR_MASK_VALID(intrMask)   (0U == ((intrMask) & (uint32_t)~CY_GPIO_PRT_INT_MASK
 375:Generated_Source\PSoC6\pdl\drivers/peripheral/gpio/cy_gpio.h **** #define CY_GPIO_IS_SEL_ACT_VALID(selActive)    (0U == ((selActive) & (uint32_t)~CY_GPIO_PRT_SEL_ACT
 376:Generated_Source\PSoC6\pdl\drivers/peripheral/gpio/cy_gpio.h **** 
 377:Generated_Source\PSoC6\pdl\drivers/peripheral/gpio/cy_gpio.h **** #define CY_GPIO_IS_AMUX_SPLIT_VALID(switchCtrl)       (((uint32_t) (switchCtrl)) < GPIO_MAX_SPLIT_C
ARM GAS  C:\Users\deathc\AppData\Local\Temp\cc1pP50L.s 			page 18


 378:Generated_Source\PSoC6\pdl\drivers/peripheral/gpio/cy_gpio.h **** 
 379:Generated_Source\PSoC6\pdl\drivers/peripheral/gpio/cy_gpio.h **** #define CY_GPIO_IS_AMUX_CONNECT_VALID(amuxConnect)    ((CY_GPIO_AMUX_OPENALL == (amuxConnect)) || \
 380:Generated_Source\PSoC6\pdl\drivers/peripheral/gpio/cy_gpio.h ****                                                        (CY_GPIO_AMUX_L       == (amuxConnect)) || \
 381:Generated_Source\PSoC6\pdl\drivers/peripheral/gpio/cy_gpio.h ****                                                        (CY_GPIO_AMUX_R       == (amuxConnect)) || \
 382:Generated_Source\PSoC6\pdl\drivers/peripheral/gpio/cy_gpio.h ****                                                        (CY_GPIO_AMUX_LR      == (amuxConnect)) || \
 383:Generated_Source\PSoC6\pdl\drivers/peripheral/gpio/cy_gpio.h ****                                                        (CY_GPIO_AMUX_G       == (amuxConnect)) || \
 384:Generated_Source\PSoC6\pdl\drivers/peripheral/gpio/cy_gpio.h ****                                                        (CY_GPIO_AMUX_GL      == (amuxConnect)) || \
 385:Generated_Source\PSoC6\pdl\drivers/peripheral/gpio/cy_gpio.h ****                                                        (CY_GPIO_AMUX_GR      == (amuxConnect)) || \
 386:Generated_Source\PSoC6\pdl\drivers/peripheral/gpio/cy_gpio.h ****                                                        (CY_GPIO_AMUX_GLR     == (amuxConnect)))
 387:Generated_Source\PSoC6\pdl\drivers/peripheral/gpio/cy_gpio.h **** 
 388:Generated_Source\PSoC6\pdl\drivers/peripheral/gpio/cy_gpio.h **** #define CY_GPIO_IS_AMUX_SELECT_VALID(amuxBus)       ((CY_GPIO_AMUXBUSA       == (amuxBus)) || \
 389:Generated_Source\PSoC6\pdl\drivers/peripheral/gpio/cy_gpio.h ****                                                      (CY_GPIO_AMUXBUSB       == (amuxBus)))
 390:Generated_Source\PSoC6\pdl\drivers/peripheral/gpio/cy_gpio.h **** /** \endcond */
 391:Generated_Source\PSoC6\pdl\drivers/peripheral/gpio/cy_gpio.h **** 
 392:Generated_Source\PSoC6\pdl\drivers/peripheral/gpio/cy_gpio.h **** 
 393:Generated_Source\PSoC6\pdl\drivers/peripheral/gpio/cy_gpio.h **** /***************************************
 394:Generated_Source\PSoC6\pdl\drivers/peripheral/gpio/cy_gpio.h **** *        Function Constants
 395:Generated_Source\PSoC6\pdl\drivers/peripheral/gpio/cy_gpio.h **** ***************************************/
 396:Generated_Source\PSoC6\pdl\drivers/peripheral/gpio/cy_gpio.h **** 
 397:Generated_Source\PSoC6\pdl\drivers/peripheral/gpio/cy_gpio.h **** /**
 398:Generated_Source\PSoC6\pdl\drivers/peripheral/gpio/cy_gpio.h **** * \addtogroup group_gpio_macros
 399:Generated_Source\PSoC6\pdl\drivers/peripheral/gpio/cy_gpio.h **** * \{
 400:Generated_Source\PSoC6\pdl\drivers/peripheral/gpio/cy_gpio.h **** */
 401:Generated_Source\PSoC6\pdl\drivers/peripheral/gpio/cy_gpio.h **** 
 402:Generated_Source\PSoC6\pdl\drivers/peripheral/gpio/cy_gpio.h **** /**
 403:Generated_Source\PSoC6\pdl\drivers/peripheral/gpio/cy_gpio.h **** * \defgroup group_gpio_driveModes Pin drive mode
 404:Generated_Source\PSoC6\pdl\drivers/peripheral/gpio/cy_gpio.h **** * \{
 405:Generated_Source\PSoC6\pdl\drivers/peripheral/gpio/cy_gpio.h **** * Constants to be used for setting the drive mode of the pin.
 406:Generated_Source\PSoC6\pdl\drivers/peripheral/gpio/cy_gpio.h **** */
 407:Generated_Source\PSoC6\pdl\drivers/peripheral/gpio/cy_gpio.h **** #define CY_GPIO_DM_ANALOG                      (0x00UL) /**< Analog High-Z. Input buffer off */
 408:Generated_Source\PSoC6\pdl\drivers/peripheral/gpio/cy_gpio.h **** #define CY_GPIO_DM_PULLUP_IN_OFF               (0x02UL) /**< Resistive Pull-Up. Input buffer off */
 409:Generated_Source\PSoC6\pdl\drivers/peripheral/gpio/cy_gpio.h **** #define CY_GPIO_DM_PULLDOWN_IN_OFF             (0x03UL) /**< Resistive Pull-Down. Input buffer off 
 410:Generated_Source\PSoC6\pdl\drivers/peripheral/gpio/cy_gpio.h **** #define CY_GPIO_DM_OD_DRIVESLOW_IN_OFF         (0x04UL) /**< Open Drain, Drives Low. Input buffer o
 411:Generated_Source\PSoC6\pdl\drivers/peripheral/gpio/cy_gpio.h **** #define CY_GPIO_DM_OD_DRIVESHIGH_IN_OFF        (0x05UL) /**< Open Drain, Drives High. Input buffer 
 412:Generated_Source\PSoC6\pdl\drivers/peripheral/gpio/cy_gpio.h **** #define CY_GPIO_DM_STRONG_IN_OFF               (0x06UL) /**< Strong Drive. Input buffer off */
 413:Generated_Source\PSoC6\pdl\drivers/peripheral/gpio/cy_gpio.h **** #define CY_GPIO_DM_PULLUP_DOWN_IN_OFF          (0x07UL) /**< Resistive Pull-Up/Down. Input buffer o
 414:Generated_Source\PSoC6\pdl\drivers/peripheral/gpio/cy_gpio.h **** #define CY_GPIO_DM_HIGHZ                       (0x08UL) /**< Digital High-Z. Input buffer on */
 415:Generated_Source\PSoC6\pdl\drivers/peripheral/gpio/cy_gpio.h **** #define CY_GPIO_DM_PULLUP                      (0x0AUL) /**< Resistive Pull-Up. Input buffer on */
 416:Generated_Source\PSoC6\pdl\drivers/peripheral/gpio/cy_gpio.h **** #define CY_GPIO_DM_PULLDOWN                    (0x0BUL) /**< Resistive Pull-Down. Input buffer on *
 417:Generated_Source\PSoC6\pdl\drivers/peripheral/gpio/cy_gpio.h **** #define CY_GPIO_DM_OD_DRIVESLOW                (0x0CUL) /**< Open Drain, Drives Low. Input buffer o
 418:Generated_Source\PSoC6\pdl\drivers/peripheral/gpio/cy_gpio.h **** #define CY_GPIO_DM_OD_DRIVESHIGH               (0x0DUL) /**< Open Drain, Drives High. Input buffer 
 419:Generated_Source\PSoC6\pdl\drivers/peripheral/gpio/cy_gpio.h **** #define CY_GPIO_DM_STRONG                      (0x0EUL) /**< Strong Drive. Input buffer on */
 420:Generated_Source\PSoC6\pdl\drivers/peripheral/gpio/cy_gpio.h **** #define CY_GPIO_DM_PULLUP_DOWN                 (0x0FUL) /**< Resistive Pull-Up/Down. Input buffer o
 421:Generated_Source\PSoC6\pdl\drivers/peripheral/gpio/cy_gpio.h **** /** \} */
 422:Generated_Source\PSoC6\pdl\drivers/peripheral/gpio/cy_gpio.h **** 
 423:Generated_Source\PSoC6\pdl\drivers/peripheral/gpio/cy_gpio.h **** /**
 424:Generated_Source\PSoC6\pdl\drivers/peripheral/gpio/cy_gpio.h **** * \defgroup group_gpio_vtrip Voltage trip mode
 425:Generated_Source\PSoC6\pdl\drivers/peripheral/gpio/cy_gpio.h **** * \{
 426:Generated_Source\PSoC6\pdl\drivers/peripheral/gpio/cy_gpio.h **** * Constants to be used for setting the voltage trip type on the pin.
 427:Generated_Source\PSoC6\pdl\drivers/peripheral/gpio/cy_gpio.h **** */
 428:Generated_Source\PSoC6\pdl\drivers/peripheral/gpio/cy_gpio.h **** #define CY_GPIO_VTRIP_CMOS                     (0x00UL) /**< Input buffer compatible with CMOS and 
 429:Generated_Source\PSoC6\pdl\drivers/peripheral/gpio/cy_gpio.h **** #define CY_GPIO_VTRIP_TTL                      (0x01UL) /**< Input buffer compatible with TTL and M
 430:Generated_Source\PSoC6\pdl\drivers/peripheral/gpio/cy_gpio.h **** /** \} */
 431:Generated_Source\PSoC6\pdl\drivers/peripheral/gpio/cy_gpio.h **** 
 432:Generated_Source\PSoC6\pdl\drivers/peripheral/gpio/cy_gpio.h **** /**
 433:Generated_Source\PSoC6\pdl\drivers/peripheral/gpio/cy_gpio.h **** * \defgroup group_gpio_slewRate Slew Rate Mode
 434:Generated_Source\PSoC6\pdl\drivers/peripheral/gpio/cy_gpio.h **** * \{
ARM GAS  C:\Users\deathc\AppData\Local\Temp\cc1pP50L.s 			page 19


 435:Generated_Source\PSoC6\pdl\drivers/peripheral/gpio/cy_gpio.h **** * Constants to be used for setting the slew rate of the pin.
 436:Generated_Source\PSoC6\pdl\drivers/peripheral/gpio/cy_gpio.h **** */
 437:Generated_Source\PSoC6\pdl\drivers/peripheral/gpio/cy_gpio.h **** #define CY_GPIO_SLEW_FAST                      (0x00UL) /**< Fast slew rate */
 438:Generated_Source\PSoC6\pdl\drivers/peripheral/gpio/cy_gpio.h **** #define CY_GPIO_SLEW_SLOW                      (0x01UL) /**< Slow slew rate */
 439:Generated_Source\PSoC6\pdl\drivers/peripheral/gpio/cy_gpio.h **** /** \} */
 440:Generated_Source\PSoC6\pdl\drivers/peripheral/gpio/cy_gpio.h **** 
 441:Generated_Source\PSoC6\pdl\drivers/peripheral/gpio/cy_gpio.h **** /**
 442:Generated_Source\PSoC6\pdl\drivers/peripheral/gpio/cy_gpio.h **** * \defgroup group_gpio_driveStrength Pin drive strength
 443:Generated_Source\PSoC6\pdl\drivers/peripheral/gpio/cy_gpio.h **** * \{
 444:Generated_Source\PSoC6\pdl\drivers/peripheral/gpio/cy_gpio.h **** * Constants to be used for setting the drive strength of the pin.
 445:Generated_Source\PSoC6\pdl\drivers/peripheral/gpio/cy_gpio.h **** */
 446:Generated_Source\PSoC6\pdl\drivers/peripheral/gpio/cy_gpio.h **** #define CY_GPIO_DRIVE_FULL                     (0x00UL) /**< Full drive strength: Max drive current
 447:Generated_Source\PSoC6\pdl\drivers/peripheral/gpio/cy_gpio.h **** #define CY_GPIO_DRIVE_1_2                      (0x01UL) /**< 1/2 drive strength: 1/2 drive current 
 448:Generated_Source\PSoC6\pdl\drivers/peripheral/gpio/cy_gpio.h **** #define CY_GPIO_DRIVE_1_4                      (0x02UL) /**< 1/4 drive strength: 1/4 drive current 
 449:Generated_Source\PSoC6\pdl\drivers/peripheral/gpio/cy_gpio.h **** #define CY_GPIO_DRIVE_1_8                      (0x03UL) /**< 1/8 drive strength: 1/8 drive current 
 450:Generated_Source\PSoC6\pdl\drivers/peripheral/gpio/cy_gpio.h **** /** \} */
 451:Generated_Source\PSoC6\pdl\drivers/peripheral/gpio/cy_gpio.h **** 
 452:Generated_Source\PSoC6\pdl\drivers/peripheral/gpio/cy_gpio.h **** /**
 453:Generated_Source\PSoC6\pdl\drivers/peripheral/gpio/cy_gpio.h **** * \defgroup group_gpio_interruptTrigger Interrupt trigger type
 454:Generated_Source\PSoC6\pdl\drivers/peripheral/gpio/cy_gpio.h **** * \{
 455:Generated_Source\PSoC6\pdl\drivers/peripheral/gpio/cy_gpio.h **** * Constants to be used for setting the interrupt trigger type on the pin.
 456:Generated_Source\PSoC6\pdl\drivers/peripheral/gpio/cy_gpio.h **** */
 457:Generated_Source\PSoC6\pdl\drivers/peripheral/gpio/cy_gpio.h **** #define CY_GPIO_INTR_DISABLE                   (0x00UL) /**< Disable the pin interrupt generation *
 458:Generated_Source\PSoC6\pdl\drivers/peripheral/gpio/cy_gpio.h **** #define CY_GPIO_INTR_RISING                    (0x01UL) /**< Rising-Edge interrupt */
 459:Generated_Source\PSoC6\pdl\drivers/peripheral/gpio/cy_gpio.h **** #define CY_GPIO_INTR_FALLING                   (0x02UL) /**< Falling-Edge interrupt */
 460:Generated_Source\PSoC6\pdl\drivers/peripheral/gpio/cy_gpio.h **** #define CY_GPIO_INTR_BOTH                      (0x03UL) /**< Both-Edge interrupt */
 461:Generated_Source\PSoC6\pdl\drivers/peripheral/gpio/cy_gpio.h **** /** \} */
 462:Generated_Source\PSoC6\pdl\drivers/peripheral/gpio/cy_gpio.h **** 
 463:Generated_Source\PSoC6\pdl\drivers/peripheral/gpio/cy_gpio.h **** /**
 464:Generated_Source\PSoC6\pdl\drivers/peripheral/gpio/cy_gpio.h **** * \defgroup group_gpio_sioVreg SIO output buffer mode
 465:Generated_Source\PSoC6\pdl\drivers/peripheral/gpio/cy_gpio.h **** * \{
 466:Generated_Source\PSoC6\pdl\drivers/peripheral/gpio/cy_gpio.h **** * Constants to be used for setting the SIO output buffer mode on the pin.
 467:Generated_Source\PSoC6\pdl\drivers/peripheral/gpio/cy_gpio.h **** */
 468:Generated_Source\PSoC6\pdl\drivers/peripheral/gpio/cy_gpio.h **** #define CY_SIO_VREG_UNREGULATED                (0x00UL) /**< Unregulated output buffer */
 469:Generated_Source\PSoC6\pdl\drivers/peripheral/gpio/cy_gpio.h **** #define CY_SIO_VREG_REGULATED                  (0x01UL) /**< Regulated output buffer */
 470:Generated_Source\PSoC6\pdl\drivers/peripheral/gpio/cy_gpio.h **** /** \} */
 471:Generated_Source\PSoC6\pdl\drivers/peripheral/gpio/cy_gpio.h **** 
 472:Generated_Source\PSoC6\pdl\drivers/peripheral/gpio/cy_gpio.h **** /**
 473:Generated_Source\PSoC6\pdl\drivers/peripheral/gpio/cy_gpio.h **** * \defgroup group_gpio_sioIbuf SIO input buffer mode
 474:Generated_Source\PSoC6\pdl\drivers/peripheral/gpio/cy_gpio.h **** * \{
 475:Generated_Source\PSoC6\pdl\drivers/peripheral/gpio/cy_gpio.h **** * Constants to be used for setting the SIO input buffer mode on the pin.
 476:Generated_Source\PSoC6\pdl\drivers/peripheral/gpio/cy_gpio.h **** */
 477:Generated_Source\PSoC6\pdl\drivers/peripheral/gpio/cy_gpio.h **** #define CY_SIO_IBUF_SINGLEENDED                (0x00UL) /**< Single ended input buffer */
 478:Generated_Source\PSoC6\pdl\drivers/peripheral/gpio/cy_gpio.h **** #define CY_SIO_IBUF_DIFFERENTIAL               (0x01UL) /**< Differential input buffer */
 479:Generated_Source\PSoC6\pdl\drivers/peripheral/gpio/cy_gpio.h **** /** \} */
 480:Generated_Source\PSoC6\pdl\drivers/peripheral/gpio/cy_gpio.h **** 
 481:Generated_Source\PSoC6\pdl\drivers/peripheral/gpio/cy_gpio.h **** /**
 482:Generated_Source\PSoC6\pdl\drivers/peripheral/gpio/cy_gpio.h **** * \defgroup group_gpio_sioVtrip SIO input buffer trip-point
 483:Generated_Source\PSoC6\pdl\drivers/peripheral/gpio/cy_gpio.h **** * \{
 484:Generated_Source\PSoC6\pdl\drivers/peripheral/gpio/cy_gpio.h **** * Constants to be used for setting the SIO input buffer trip-point of the pin.
 485:Generated_Source\PSoC6\pdl\drivers/peripheral/gpio/cy_gpio.h **** */
 486:Generated_Source\PSoC6\pdl\drivers/peripheral/gpio/cy_gpio.h **** #define CY_SIO_VTRIP_CMOS                      (0x00UL) /**< CMOS input buffer (single-ended) */
 487:Generated_Source\PSoC6\pdl\drivers/peripheral/gpio/cy_gpio.h **** #define CY_SIO_VTRIP_TTL                       (0x01UL) /**< TTL input buffer (single-ended) */
 488:Generated_Source\PSoC6\pdl\drivers/peripheral/gpio/cy_gpio.h **** #define CY_SIO_VTRIP_0_5VDDIO_0_5VOH           (0x00UL) /**< 0.5xVddio or 0.5xVoh (differential) */
 489:Generated_Source\PSoC6\pdl\drivers/peripheral/gpio/cy_gpio.h **** #define CY_SIO_VTRIP_0_4VDDIO_1_0VREF          (0x01UL) /**< 0.4xVddio or 0.4xVoh (differential) */
 490:Generated_Source\PSoC6\pdl\drivers/peripheral/gpio/cy_gpio.h **** /** \} */
 491:Generated_Source\PSoC6\pdl\drivers/peripheral/gpio/cy_gpio.h **** 
ARM GAS  C:\Users\deathc\AppData\Local\Temp\cc1pP50L.s 			page 20


 492:Generated_Source\PSoC6\pdl\drivers/peripheral/gpio/cy_gpio.h **** /**
 493:Generated_Source\PSoC6\pdl\drivers/peripheral/gpio/cy_gpio.h **** * \defgroup group_gpio_sioVref SIO reference voltage for input buffer trip-point
 494:Generated_Source\PSoC6\pdl\drivers/peripheral/gpio/cy_gpio.h **** * \{
 495:Generated_Source\PSoC6\pdl\drivers/peripheral/gpio/cy_gpio.h **** * Constants to be used for setting the reference voltage of SIO input buffer trip-point.
 496:Generated_Source\PSoC6\pdl\drivers/peripheral/gpio/cy_gpio.h **** */
 497:Generated_Source\PSoC6\pdl\drivers/peripheral/gpio/cy_gpio.h **** #define CY_SIO_VREF_PINREF                     (0x00UL) /**< Vref from analog pin */
 498:Generated_Source\PSoC6\pdl\drivers/peripheral/gpio/cy_gpio.h **** #define CY_SIO_VREF_1_2V                       (0x01UL) /**< Vref from internal 1.2V reference */
 499:Generated_Source\PSoC6\pdl\drivers/peripheral/gpio/cy_gpio.h **** #define CY_SIO_VREF_AMUX_A                     (0x02UL) /**< Vref from AMUXBUS_A */
 500:Generated_Source\PSoC6\pdl\drivers/peripheral/gpio/cy_gpio.h **** #define CY_SIO_VREF_AMUX_B                     (0x03UL) /**< Vref from AMUXBUS_B */
 501:Generated_Source\PSoC6\pdl\drivers/peripheral/gpio/cy_gpio.h **** /** \} */
 502:Generated_Source\PSoC6\pdl\drivers/peripheral/gpio/cy_gpio.h **** 
 503:Generated_Source\PSoC6\pdl\drivers/peripheral/gpio/cy_gpio.h **** /**
 504:Generated_Source\PSoC6\pdl\drivers/peripheral/gpio/cy_gpio.h **** * \defgroup group_gpio_sioVoh Regulated output voltage level (Voh) and input buffer trip-point of a
 505:Generated_Source\PSoC6\pdl\drivers/peripheral/gpio/cy_gpio.h **** * \{
 506:Generated_Source\PSoC6\pdl\drivers/peripheral/gpio/cy_gpio.h **** * Constants to be used for setting the Voh and input buffer trip-point of an SIO pair
 507:Generated_Source\PSoC6\pdl\drivers/peripheral/gpio/cy_gpio.h **** */
 508:Generated_Source\PSoC6\pdl\drivers/peripheral/gpio/cy_gpio.h **** #define CY_SIO_VOH_1_00                        (0x00UL) /**< Voh = 1 x Reference */
 509:Generated_Source\PSoC6\pdl\drivers/peripheral/gpio/cy_gpio.h **** #define CY_SIO_VOH_1_25                        (0x01UL) /**< Voh = 1.25 x Reference */
 510:Generated_Source\PSoC6\pdl\drivers/peripheral/gpio/cy_gpio.h **** #define CY_SIO_VOH_1_49                        (0x02UL) /**< Voh = 1.49 x Reference */
 511:Generated_Source\PSoC6\pdl\drivers/peripheral/gpio/cy_gpio.h **** #define CY_SIO_VOH_1_67                        (0x03UL) /**< Voh = 1.67 x Reference */
 512:Generated_Source\PSoC6\pdl\drivers/peripheral/gpio/cy_gpio.h **** #define CY_SIO_VOH_2_08                        (0x04UL) /**< Voh = 2.08 x Reference */
 513:Generated_Source\PSoC6\pdl\drivers/peripheral/gpio/cy_gpio.h **** #define CY_SIO_VOH_2_50                        (0x05UL) /**< Voh = 2.50 x Reference */
 514:Generated_Source\PSoC6\pdl\drivers/peripheral/gpio/cy_gpio.h **** #define CY_SIO_VOH_2_78                        (0x06UL) /**< Voh = 2.78 x Reference */
 515:Generated_Source\PSoC6\pdl\drivers/peripheral/gpio/cy_gpio.h **** #define CY_SIO_VOH_4_16                        (0x07UL) /**< Voh = 4.16 x Reference */
 516:Generated_Source\PSoC6\pdl\drivers/peripheral/gpio/cy_gpio.h **** /** \} */
 517:Generated_Source\PSoC6\pdl\drivers/peripheral/gpio/cy_gpio.h **** 
 518:Generated_Source\PSoC6\pdl\drivers/peripheral/gpio/cy_gpio.h **** /** \} group_gpio_macros */
 519:Generated_Source\PSoC6\pdl\drivers/peripheral/gpio/cy_gpio.h **** 
 520:Generated_Source\PSoC6\pdl\drivers/peripheral/gpio/cy_gpio.h **** /***************************************
 521:Generated_Source\PSoC6\pdl\drivers/peripheral/gpio/cy_gpio.h **** *        Function Prototypes
 522:Generated_Source\PSoC6\pdl\drivers/peripheral/gpio/cy_gpio.h **** ***************************************/
 523:Generated_Source\PSoC6\pdl\drivers/peripheral/gpio/cy_gpio.h **** 
 524:Generated_Source\PSoC6\pdl\drivers/peripheral/gpio/cy_gpio.h **** /**
 525:Generated_Source\PSoC6\pdl\drivers/peripheral/gpio/cy_gpio.h **** * \addtogroup group_gpio_functions
 526:Generated_Source\PSoC6\pdl\drivers/peripheral/gpio/cy_gpio.h **** * \{
 527:Generated_Source\PSoC6\pdl\drivers/peripheral/gpio/cy_gpio.h **** */
 528:Generated_Source\PSoC6\pdl\drivers/peripheral/gpio/cy_gpio.h **** 
 529:Generated_Source\PSoC6\pdl\drivers/peripheral/gpio/cy_gpio.h **** /**
 530:Generated_Source\PSoC6\pdl\drivers/peripheral/gpio/cy_gpio.h **** * \addtogroup group_gpio_functions_init
 531:Generated_Source\PSoC6\pdl\drivers/peripheral/gpio/cy_gpio.h **** * \{
 532:Generated_Source\PSoC6\pdl\drivers/peripheral/gpio/cy_gpio.h **** */
 533:Generated_Source\PSoC6\pdl\drivers/peripheral/gpio/cy_gpio.h **** 
 534:Generated_Source\PSoC6\pdl\drivers/peripheral/gpio/cy_gpio.h **** cy_en_gpio_status_t Cy_GPIO_Pin_Init(GPIO_PRT_Type* base, uint32_t pinNum, const cy_stc_gpio_pin_co
 535:Generated_Source\PSoC6\pdl\drivers/peripheral/gpio/cy_gpio.h **** cy_en_gpio_status_t Cy_GPIO_Port_Init(GPIO_PRT_Type* base, const cy_stc_gpio_prt_config_t *config);
 536:Generated_Source\PSoC6\pdl\drivers/peripheral/gpio/cy_gpio.h **** void Cy_GPIO_Pin_FastInit(GPIO_PRT_Type* base, uint32_t pinNum, uint32_t driveMode, uint32_t outVal
 537:Generated_Source\PSoC6\pdl\drivers/peripheral/gpio/cy_gpio.h **** void Cy_GPIO_Port_Deinit(GPIO_PRT_Type* base);
 538:Generated_Source\PSoC6\pdl\drivers/peripheral/gpio/cy_gpio.h **** __STATIC_INLINE void Cy_GPIO_SetHSIOM(GPIO_PRT_Type* base, uint32_t pinNum, en_hsiom_sel_t value);
 539:Generated_Source\PSoC6\pdl\drivers/peripheral/gpio/cy_gpio.h **** __STATIC_INLINE en_hsiom_sel_t Cy_GPIO_GetHSIOM(GPIO_PRT_Type* base, uint32_t pinNum);
 540:Generated_Source\PSoC6\pdl\drivers/peripheral/gpio/cy_gpio.h **** __STATIC_INLINE GPIO_PRT_Type* Cy_GPIO_PortToAddr(uint32_t portNum);
 541:Generated_Source\PSoC6\pdl\drivers/peripheral/gpio/cy_gpio.h **** 
 542:Generated_Source\PSoC6\pdl\drivers/peripheral/gpio/cy_gpio.h **** /** \} group_gpio_functions_init */
 543:Generated_Source\PSoC6\pdl\drivers/peripheral/gpio/cy_gpio.h **** 
 544:Generated_Source\PSoC6\pdl\drivers/peripheral/gpio/cy_gpio.h **** /**
 545:Generated_Source\PSoC6\pdl\drivers/peripheral/gpio/cy_gpio.h **** * \addtogroup group_gpio_functions_gpio
 546:Generated_Source\PSoC6\pdl\drivers/peripheral/gpio/cy_gpio.h **** * \{
 547:Generated_Source\PSoC6\pdl\drivers/peripheral/gpio/cy_gpio.h **** */
 548:Generated_Source\PSoC6\pdl\drivers/peripheral/gpio/cy_gpio.h **** 
ARM GAS  C:\Users\deathc\AppData\Local\Temp\cc1pP50L.s 			page 21


 549:Generated_Source\PSoC6\pdl\drivers/peripheral/gpio/cy_gpio.h **** void Cy_GPIO_SetAmuxSplit(cy_en_amux_split_t switchCtrl, cy_en_gpio_amuxconnect_t amuxConnect, cy_e
 550:Generated_Source\PSoC6\pdl\drivers/peripheral/gpio/cy_gpio.h **** cy_en_gpio_amuxconnect_t Cy_GPIO_GetAmuxSplit(cy_en_amux_split_t switchCtrl, cy_en_gpio_amuxselect_
 551:Generated_Source\PSoC6\pdl\drivers/peripheral/gpio/cy_gpio.h **** 
 552:Generated_Source\PSoC6\pdl\drivers/peripheral/gpio/cy_gpio.h **** __STATIC_INLINE uint32_t Cy_GPIO_Read(GPIO_PRT_Type* base, uint32_t pinNum);
 553:Generated_Source\PSoC6\pdl\drivers/peripheral/gpio/cy_gpio.h **** __STATIC_INLINE void Cy_GPIO_Write(GPIO_PRT_Type* base, uint32_t pinNum, uint32_t value);
 554:Generated_Source\PSoC6\pdl\drivers/peripheral/gpio/cy_gpio.h **** __STATIC_INLINE uint32_t Cy_GPIO_ReadOut(GPIO_PRT_Type* base, uint32_t pinNum);
 555:Generated_Source\PSoC6\pdl\drivers/peripheral/gpio/cy_gpio.h **** __STATIC_INLINE void Cy_GPIO_Set(GPIO_PRT_Type* base, uint32_t pinNum);
 556:Generated_Source\PSoC6\pdl\drivers/peripheral/gpio/cy_gpio.h **** __STATIC_INLINE void Cy_GPIO_Clr(GPIO_PRT_Type* base, uint32_t pinNum);
 557:Generated_Source\PSoC6\pdl\drivers/peripheral/gpio/cy_gpio.h **** __STATIC_INLINE void Cy_GPIO_Inv(GPIO_PRT_Type* base, uint32_t pinNum);
 558:Generated_Source\PSoC6\pdl\drivers/peripheral/gpio/cy_gpio.h **** __STATIC_INLINE void Cy_GPIO_SetDrivemode(GPIO_PRT_Type* base, uint32_t pinNum, uint32_t value);
 559:Generated_Source\PSoC6\pdl\drivers/peripheral/gpio/cy_gpio.h **** __STATIC_INLINE uint32_t Cy_GPIO_GetDrivemode(GPIO_PRT_Type* base, uint32_t pinNum);
 560:Generated_Source\PSoC6\pdl\drivers/peripheral/gpio/cy_gpio.h **** __STATIC_INLINE void Cy_GPIO_SetVtrip(GPIO_PRT_Type* base, uint32_t pinNum, uint32_t value);
 561:Generated_Source\PSoC6\pdl\drivers/peripheral/gpio/cy_gpio.h **** __STATIC_INLINE uint32_t Cy_GPIO_GetVtrip(GPIO_PRT_Type* base, uint32_t pinNum);
 562:Generated_Source\PSoC6\pdl\drivers/peripheral/gpio/cy_gpio.h **** __STATIC_INLINE void Cy_GPIO_SetSlewRate(GPIO_PRT_Type* base, uint32_t pinNum, uint32_t value);
 563:Generated_Source\PSoC6\pdl\drivers/peripheral/gpio/cy_gpio.h **** __STATIC_INLINE uint32_t Cy_GPIO_GetSlewRate(GPIO_PRT_Type* base, uint32_t pinNum);
 564:Generated_Source\PSoC6\pdl\drivers/peripheral/gpio/cy_gpio.h **** __STATIC_INLINE void Cy_GPIO_SetDriveSel(GPIO_PRT_Type* base, uint32_t pinNum, uint32_t value);
 565:Generated_Source\PSoC6\pdl\drivers/peripheral/gpio/cy_gpio.h **** __STATIC_INLINE uint32_t Cy_GPIO_GetDriveSel(GPIO_PRT_Type* base, uint32_t pinNum);
 566:Generated_Source\PSoC6\pdl\drivers/peripheral/gpio/cy_gpio.h **** 
 567:Generated_Source\PSoC6\pdl\drivers/peripheral/gpio/cy_gpio.h **** /** \} group_gpio_functions_gpio */
 568:Generated_Source\PSoC6\pdl\drivers/peripheral/gpio/cy_gpio.h **** 
 569:Generated_Source\PSoC6\pdl\drivers/peripheral/gpio/cy_gpio.h **** /**
 570:Generated_Source\PSoC6\pdl\drivers/peripheral/gpio/cy_gpio.h **** * \addtogroup group_gpio_functions_sio
 571:Generated_Source\PSoC6\pdl\drivers/peripheral/gpio/cy_gpio.h **** * \{
 572:Generated_Source\PSoC6\pdl\drivers/peripheral/gpio/cy_gpio.h **** */
 573:Generated_Source\PSoC6\pdl\drivers/peripheral/gpio/cy_gpio.h **** 
 574:Generated_Source\PSoC6\pdl\drivers/peripheral/gpio/cy_gpio.h **** __STATIC_INLINE void Cy_GPIO_SetVregEn(GPIO_PRT_Type* base, uint32_t pinNum, uint32_t value);
 575:Generated_Source\PSoC6\pdl\drivers/peripheral/gpio/cy_gpio.h **** __STATIC_INLINE uint32_t Cy_GPIO_GetVregEn(GPIO_PRT_Type* base, uint32_t pinNum);
 576:Generated_Source\PSoC6\pdl\drivers/peripheral/gpio/cy_gpio.h **** __STATIC_INLINE void Cy_GPIO_SetIbufMode(GPIO_PRT_Type* base, uint32_t pinNum, uint32_t value);
 577:Generated_Source\PSoC6\pdl\drivers/peripheral/gpio/cy_gpio.h **** __STATIC_INLINE uint32_t Cy_GPIO_GetIbufMode(GPIO_PRT_Type* base, uint32_t pinNum);
 578:Generated_Source\PSoC6\pdl\drivers/peripheral/gpio/cy_gpio.h **** __STATIC_INLINE void Cy_GPIO_SetVtripSel(GPIO_PRT_Type* base, uint32_t pinNum, uint32_t value);
 579:Generated_Source\PSoC6\pdl\drivers/peripheral/gpio/cy_gpio.h **** __STATIC_INLINE uint32_t Cy_GPIO_GetVtripSel(GPIO_PRT_Type* base, uint32_t pinNum);
 580:Generated_Source\PSoC6\pdl\drivers/peripheral/gpio/cy_gpio.h **** __STATIC_INLINE void Cy_GPIO_SetVrefSel(GPIO_PRT_Type* base, uint32_t pinNum, uint32_t value);
 581:Generated_Source\PSoC6\pdl\drivers/peripheral/gpio/cy_gpio.h **** __STATIC_INLINE uint32_t Cy_GPIO_GetVrefSel(GPIO_PRT_Type* base, uint32_t pinNum);
 582:Generated_Source\PSoC6\pdl\drivers/peripheral/gpio/cy_gpio.h **** __STATIC_INLINE void Cy_GPIO_SetVohSel(GPIO_PRT_Type* base, uint32_t pinNum, uint32_t value);
 583:Generated_Source\PSoC6\pdl\drivers/peripheral/gpio/cy_gpio.h **** __STATIC_INLINE uint32_t Cy_GPIO_GetVohSel(GPIO_PRT_Type* base, uint32_t pinNum);
 584:Generated_Source\PSoC6\pdl\drivers/peripheral/gpio/cy_gpio.h **** 
 585:Generated_Source\PSoC6\pdl\drivers/peripheral/gpio/cy_gpio.h **** /** \} group_gpio_functions_sio */
 586:Generated_Source\PSoC6\pdl\drivers/peripheral/gpio/cy_gpio.h **** 
 587:Generated_Source\PSoC6\pdl\drivers/peripheral/gpio/cy_gpio.h **** /**
 588:Generated_Source\PSoC6\pdl\drivers/peripheral/gpio/cy_gpio.h **** * \addtogroup group_gpio_functions_interrupt
 589:Generated_Source\PSoC6\pdl\drivers/peripheral/gpio/cy_gpio.h **** * \{
 590:Generated_Source\PSoC6\pdl\drivers/peripheral/gpio/cy_gpio.h **** */
 591:Generated_Source\PSoC6\pdl\drivers/peripheral/gpio/cy_gpio.h **** 
 592:Generated_Source\PSoC6\pdl\drivers/peripheral/gpio/cy_gpio.h **** __STATIC_INLINE uint32_t Cy_GPIO_GetInterruptStatus(GPIO_PRT_Type* base, uint32_t pinNum);
 593:Generated_Source\PSoC6\pdl\drivers/peripheral/gpio/cy_gpio.h **** __STATIC_INLINE void Cy_GPIO_ClearInterrupt(GPIO_PRT_Type* base, uint32_t pinNum);
 594:Generated_Source\PSoC6\pdl\drivers/peripheral/gpio/cy_gpio.h **** __STATIC_INLINE void Cy_GPIO_SetInterruptMask(GPIO_PRT_Type* base, uint32_t pinNum, uint32_t value)
 595:Generated_Source\PSoC6\pdl\drivers/peripheral/gpio/cy_gpio.h **** __STATIC_INLINE uint32_t Cy_GPIO_GetInterruptMask(GPIO_PRT_Type* base, uint32_t pinNum);
 596:Generated_Source\PSoC6\pdl\drivers/peripheral/gpio/cy_gpio.h **** __STATIC_INLINE uint32_t Cy_GPIO_GetInterruptStatusMasked(GPIO_PRT_Type* base, uint32_t pinNum);
 597:Generated_Source\PSoC6\pdl\drivers/peripheral/gpio/cy_gpio.h **** __STATIC_INLINE void Cy_GPIO_SetSwInterrupt(GPIO_PRT_Type* base, uint32_t pinNum);
 598:Generated_Source\PSoC6\pdl\drivers/peripheral/gpio/cy_gpio.h **** __STATIC_INLINE void Cy_GPIO_SetInterruptEdge(GPIO_PRT_Type* base, uint32_t pinNum, uint32_t value)
 599:Generated_Source\PSoC6\pdl\drivers/peripheral/gpio/cy_gpio.h **** __STATIC_INLINE uint32_t Cy_GPIO_GetInterruptEdge(GPIO_PRT_Type* base, uint32_t pinNum);
 600:Generated_Source\PSoC6\pdl\drivers/peripheral/gpio/cy_gpio.h **** __STATIC_INLINE void Cy_GPIO_SetFilter(GPIO_PRT_Type* base, uint32_t value);
 601:Generated_Source\PSoC6\pdl\drivers/peripheral/gpio/cy_gpio.h **** __STATIC_INLINE uint32_t Cy_GPIO_GetFilter(GPIO_PRT_Type* base);
 602:Generated_Source\PSoC6\pdl\drivers/peripheral/gpio/cy_gpio.h **** 
 603:Generated_Source\PSoC6\pdl\drivers/peripheral/gpio/cy_gpio.h **** __STATIC_INLINE uint32_t Cy_GPIO_GetInterruptCause0(void);
 604:Generated_Source\PSoC6\pdl\drivers/peripheral/gpio/cy_gpio.h **** __STATIC_INLINE uint32_t Cy_GPIO_GetInterruptCause1(void);
 605:Generated_Source\PSoC6\pdl\drivers/peripheral/gpio/cy_gpio.h **** __STATIC_INLINE uint32_t Cy_GPIO_GetInterruptCause2(void);
ARM GAS  C:\Users\deathc\AppData\Local\Temp\cc1pP50L.s 			page 22


 606:Generated_Source\PSoC6\pdl\drivers/peripheral/gpio/cy_gpio.h **** __STATIC_INLINE uint32_t Cy_GPIO_GetInterruptCause3(void);
 607:Generated_Source\PSoC6\pdl\drivers/peripheral/gpio/cy_gpio.h **** 
 608:Generated_Source\PSoC6\pdl\drivers/peripheral/gpio/cy_gpio.h **** /** \} group_gpio_functions_interrupt */
 609:Generated_Source\PSoC6\pdl\drivers/peripheral/gpio/cy_gpio.h **** 
 610:Generated_Source\PSoC6\pdl\drivers/peripheral/gpio/cy_gpio.h **** 
 611:Generated_Source\PSoC6\pdl\drivers/peripheral/gpio/cy_gpio.h **** /**
 612:Generated_Source\PSoC6\pdl\drivers/peripheral/gpio/cy_gpio.h **** * \addtogroup group_gpio_functions_init
 613:Generated_Source\PSoC6\pdl\drivers/peripheral/gpio/cy_gpio.h **** * \{
 614:Generated_Source\PSoC6\pdl\drivers/peripheral/gpio/cy_gpio.h **** */
 615:Generated_Source\PSoC6\pdl\drivers/peripheral/gpio/cy_gpio.h **** 
 616:Generated_Source\PSoC6\pdl\drivers/peripheral/gpio/cy_gpio.h **** /*******************************************************************************
 617:Generated_Source\PSoC6\pdl\drivers/peripheral/gpio/cy_gpio.h **** * Function Name: Cy_GPIO_SetHSIOM
 618:Generated_Source\PSoC6\pdl\drivers/peripheral/gpio/cy_gpio.h **** ****************************************************************************//**
 619:Generated_Source\PSoC6\pdl\drivers/peripheral/gpio/cy_gpio.h **** *
 620:Generated_Source\PSoC6\pdl\drivers/peripheral/gpio/cy_gpio.h **** * Configures the HSIOM connection to the pin.
 621:Generated_Source\PSoC6\pdl\drivers/peripheral/gpio/cy_gpio.h **** *
 622:Generated_Source\PSoC6\pdl\drivers/peripheral/gpio/cy_gpio.h **** * Connects the specified High-Speed Input Output Multiplexer (HSIOM) selection
 623:Generated_Source\PSoC6\pdl\drivers/peripheral/gpio/cy_gpio.h **** * to the pin.
 624:Generated_Source\PSoC6\pdl\drivers/peripheral/gpio/cy_gpio.h **** *
 625:Generated_Source\PSoC6\pdl\drivers/peripheral/gpio/cy_gpio.h **** * \param base
 626:Generated_Source\PSoC6\pdl\drivers/peripheral/gpio/cy_gpio.h **** * Pointer to the pin's port register base address
 627:Generated_Source\PSoC6\pdl\drivers/peripheral/gpio/cy_gpio.h **** *
 628:Generated_Source\PSoC6\pdl\drivers/peripheral/gpio/cy_gpio.h **** * \param pinNum
 629:Generated_Source\PSoC6\pdl\drivers/peripheral/gpio/cy_gpio.h **** * Position of the pin bit-field within the port register
 630:Generated_Source\PSoC6\pdl\drivers/peripheral/gpio/cy_gpio.h **** *
 631:Generated_Source\PSoC6\pdl\drivers/peripheral/gpio/cy_gpio.h **** * \param value
 632:Generated_Source\PSoC6\pdl\drivers/peripheral/gpio/cy_gpio.h **** * HSIOM input selection
 633:Generated_Source\PSoC6\pdl\drivers/peripheral/gpio/cy_gpio.h **** *
 634:Generated_Source\PSoC6\pdl\drivers/peripheral/gpio/cy_gpio.h **** * \note 
 635:Generated_Source\PSoC6\pdl\drivers/peripheral/gpio/cy_gpio.h **** * This function modifies a port register in a read-modify-write operation. It is
 636:Generated_Source\PSoC6\pdl\drivers/peripheral/gpio/cy_gpio.h **** * not thread safe as the resource is shared among multiple pins on a port.
 637:Generated_Source\PSoC6\pdl\drivers/peripheral/gpio/cy_gpio.h **** *
 638:Generated_Source\PSoC6\pdl\drivers/peripheral/gpio/cy_gpio.h **** * \funcusage
 639:Generated_Source\PSoC6\pdl\drivers/peripheral/gpio/cy_gpio.h **** * \snippet gpio/gpio_v1_10_sut_01.cydsn/main_cm4.c snippet_Cy_GPIO_SetHSIOM
 640:Generated_Source\PSoC6\pdl\drivers/peripheral/gpio/cy_gpio.h **** *
 641:Generated_Source\PSoC6\pdl\drivers/peripheral/gpio/cy_gpio.h **** *******************************************************************************/
 642:Generated_Source\PSoC6\pdl\drivers/peripheral/gpio/cy_gpio.h **** __STATIC_INLINE void Cy_GPIO_SetHSIOM(GPIO_PRT_Type* base, uint32_t pinNum, en_hsiom_sel_t value)
 643:Generated_Source\PSoC6\pdl\drivers/peripheral/gpio/cy_gpio.h **** {
 644:Generated_Source\PSoC6\pdl\drivers/peripheral/gpio/cy_gpio.h ****     uint32_t portNum;
 645:Generated_Source\PSoC6\pdl\drivers/peripheral/gpio/cy_gpio.h ****     uint32_t tempReg;
 646:Generated_Source\PSoC6\pdl\drivers/peripheral/gpio/cy_gpio.h ****     HSIOM_PRT_V1_Type* portAddrHSIOM;
 647:Generated_Source\PSoC6\pdl\drivers/peripheral/gpio/cy_gpio.h **** 
 648:Generated_Source\PSoC6\pdl\drivers/peripheral/gpio/cy_gpio.h ****     CY_ASSERT_L2(CY_GPIO_IS_PIN_VALID(pinNum));
 649:Generated_Source\PSoC6\pdl\drivers/peripheral/gpio/cy_gpio.h ****     CY_ASSERT_L2(CY_GPIO_IS_HSIOM_VALID(value));
 650:Generated_Source\PSoC6\pdl\drivers/peripheral/gpio/cy_gpio.h **** 
 651:Generated_Source\PSoC6\pdl\drivers/peripheral/gpio/cy_gpio.h ****     portNum = ((uint32_t)(base) - CY_GPIO_BASE) / GPIO_PRT_SECTION_SIZE;
 652:Generated_Source\PSoC6\pdl\drivers/peripheral/gpio/cy_gpio.h ****     portAddrHSIOM = (HSIOM_PRT_V1_Type*)(CY_HSIOM_BASE + (HSIOM_PRT_SECTION_SIZE * portNum));
 653:Generated_Source\PSoC6\pdl\drivers/peripheral/gpio/cy_gpio.h **** 
 654:Generated_Source\PSoC6\pdl\drivers/peripheral/gpio/cy_gpio.h ****     if(pinNum < CY_GPIO_PRT_HALF)
 655:Generated_Source\PSoC6\pdl\drivers/peripheral/gpio/cy_gpio.h ****     {
 656:Generated_Source\PSoC6\pdl\drivers/peripheral/gpio/cy_gpio.h ****         tempReg = HSIOM_PRT_PORT_SEL0(portAddrHSIOM) & ~(CY_GPIO_HSIOM_MASK << (pinNum << CY_GPIO_H
 657:Generated_Source\PSoC6\pdl\drivers/peripheral/gpio/cy_gpio.h ****         HSIOM_PRT_PORT_SEL0(portAddrHSIOM) = tempReg | ((value & CY_GPIO_HSIOM_MASK) << (pinNum << 
 658:Generated_Source\PSoC6\pdl\drivers/peripheral/gpio/cy_gpio.h ****     }
 659:Generated_Source\PSoC6\pdl\drivers/peripheral/gpio/cy_gpio.h ****     else
 660:Generated_Source\PSoC6\pdl\drivers/peripheral/gpio/cy_gpio.h ****     {
 661:Generated_Source\PSoC6\pdl\drivers/peripheral/gpio/cy_gpio.h ****         pinNum -= CY_GPIO_PRT_HALF;
 662:Generated_Source\PSoC6\pdl\drivers/peripheral/gpio/cy_gpio.h ****         tempReg = HSIOM_PRT_PORT_SEL1(portAddrHSIOM) & ~(CY_GPIO_HSIOM_MASK << (pinNum << CY_GPIO_H
ARM GAS  C:\Users\deathc\AppData\Local\Temp\cc1pP50L.s 			page 23


 663:Generated_Source\PSoC6\pdl\drivers/peripheral/gpio/cy_gpio.h ****         HSIOM_PRT_PORT_SEL1(portAddrHSIOM) = tempReg | ((value & CY_GPIO_HSIOM_MASK) << (pinNum << 
 664:Generated_Source\PSoC6\pdl\drivers/peripheral/gpio/cy_gpio.h ****     }
 665:Generated_Source\PSoC6\pdl\drivers/peripheral/gpio/cy_gpio.h **** }
 666:Generated_Source\PSoC6\pdl\drivers/peripheral/gpio/cy_gpio.h **** 
 667:Generated_Source\PSoC6\pdl\drivers/peripheral/gpio/cy_gpio.h **** 
 668:Generated_Source\PSoC6\pdl\drivers/peripheral/gpio/cy_gpio.h **** /*******************************************************************************
 669:Generated_Source\PSoC6\pdl\drivers/peripheral/gpio/cy_gpio.h **** * Function Name: Cy_GPIO_GetHSIOM
 670:Generated_Source\PSoC6\pdl\drivers/peripheral/gpio/cy_gpio.h **** ****************************************************************************//**
 671:Generated_Source\PSoC6\pdl\drivers/peripheral/gpio/cy_gpio.h **** *
 672:Generated_Source\PSoC6\pdl\drivers/peripheral/gpio/cy_gpio.h **** * Returns the current HSIOM multiplexer connection to the pin.
 673:Generated_Source\PSoC6\pdl\drivers/peripheral/gpio/cy_gpio.h **** *
 674:Generated_Source\PSoC6\pdl\drivers/peripheral/gpio/cy_gpio.h **** * \param base
 675:Generated_Source\PSoC6\pdl\drivers/peripheral/gpio/cy_gpio.h **** * Pointer to the pin's port register base address
 676:Generated_Source\PSoC6\pdl\drivers/peripheral/gpio/cy_gpio.h **** *
 677:Generated_Source\PSoC6\pdl\drivers/peripheral/gpio/cy_gpio.h **** * \param pinNum
 678:Generated_Source\PSoC6\pdl\drivers/peripheral/gpio/cy_gpio.h **** * Position of the pin bit-field within the port register
 679:Generated_Source\PSoC6\pdl\drivers/peripheral/gpio/cy_gpio.h **** *
 680:Generated_Source\PSoC6\pdl\drivers/peripheral/gpio/cy_gpio.h **** * \return
 681:Generated_Source\PSoC6\pdl\drivers/peripheral/gpio/cy_gpio.h **** * HSIOM input selection
 682:Generated_Source\PSoC6\pdl\drivers/peripheral/gpio/cy_gpio.h **** *
 683:Generated_Source\PSoC6\pdl\drivers/peripheral/gpio/cy_gpio.h **** * \funcusage
 684:Generated_Source\PSoC6\pdl\drivers/peripheral/gpio/cy_gpio.h **** * \snippet gpio/gpio_v1_10_sut_01.cydsn/main_cm4.c snippet_Cy_GPIO_SetHSIOM
 685:Generated_Source\PSoC6\pdl\drivers/peripheral/gpio/cy_gpio.h **** *
 686:Generated_Source\PSoC6\pdl\drivers/peripheral/gpio/cy_gpio.h **** *******************************************************************************/
 687:Generated_Source\PSoC6\pdl\drivers/peripheral/gpio/cy_gpio.h **** __STATIC_INLINE en_hsiom_sel_t Cy_GPIO_GetHSIOM(GPIO_PRT_Type* base, uint32_t pinNum)
 688:Generated_Source\PSoC6\pdl\drivers/peripheral/gpio/cy_gpio.h **** {
 689:Generated_Source\PSoC6\pdl\drivers/peripheral/gpio/cy_gpio.h ****     uint32_t returnValue;
 690:Generated_Source\PSoC6\pdl\drivers/peripheral/gpio/cy_gpio.h ****     uint32_t portNum;
 691:Generated_Source\PSoC6\pdl\drivers/peripheral/gpio/cy_gpio.h ****     HSIOM_PRT_V1_Type* portAddrHSIOM;
 692:Generated_Source\PSoC6\pdl\drivers/peripheral/gpio/cy_gpio.h ****     
 693:Generated_Source\PSoC6\pdl\drivers/peripheral/gpio/cy_gpio.h ****     CY_ASSERT_L2(CY_GPIO_IS_PIN_VALID(pinNum));
 694:Generated_Source\PSoC6\pdl\drivers/peripheral/gpio/cy_gpio.h **** 
 695:Generated_Source\PSoC6\pdl\drivers/peripheral/gpio/cy_gpio.h ****     portNum = ((uint32_t)(base) - CY_GPIO_BASE) / GPIO_PRT_SECTION_SIZE;
 696:Generated_Source\PSoC6\pdl\drivers/peripheral/gpio/cy_gpio.h ****     portAddrHSIOM = (HSIOM_PRT_V1_Type*)(CY_HSIOM_BASE + (HSIOM_PRT_SECTION_SIZE * portNum));
 697:Generated_Source\PSoC6\pdl\drivers/peripheral/gpio/cy_gpio.h **** 
 698:Generated_Source\PSoC6\pdl\drivers/peripheral/gpio/cy_gpio.h ****     if(pinNum < CY_GPIO_PRT_HALF)
 699:Generated_Source\PSoC6\pdl\drivers/peripheral/gpio/cy_gpio.h ****     {
 700:Generated_Source\PSoC6\pdl\drivers/peripheral/gpio/cy_gpio.h ****         returnValue = (HSIOM_PRT_PORT_SEL0(portAddrHSIOM) >> (pinNum << CY_GPIO_HSIOM_OFFSET)) & CY
 701:Generated_Source\PSoC6\pdl\drivers/peripheral/gpio/cy_gpio.h ****     }
 702:Generated_Source\PSoC6\pdl\drivers/peripheral/gpio/cy_gpio.h ****     else
 703:Generated_Source\PSoC6\pdl\drivers/peripheral/gpio/cy_gpio.h ****     {
 704:Generated_Source\PSoC6\pdl\drivers/peripheral/gpio/cy_gpio.h ****         pinNum -= CY_GPIO_PRT_HALF;
 705:Generated_Source\PSoC6\pdl\drivers/peripheral/gpio/cy_gpio.h ****         returnValue = (HSIOM_PRT_PORT_SEL1(portAddrHSIOM) >> (pinNum << CY_GPIO_HSIOM_OFFSET)) & CY
 706:Generated_Source\PSoC6\pdl\drivers/peripheral/gpio/cy_gpio.h ****     }
 707:Generated_Source\PSoC6\pdl\drivers/peripheral/gpio/cy_gpio.h **** 
 708:Generated_Source\PSoC6\pdl\drivers/peripheral/gpio/cy_gpio.h ****     return (en_hsiom_sel_t)returnValue;
 709:Generated_Source\PSoC6\pdl\drivers/peripheral/gpio/cy_gpio.h **** }
 710:Generated_Source\PSoC6\pdl\drivers/peripheral/gpio/cy_gpio.h **** 
 711:Generated_Source\PSoC6\pdl\drivers/peripheral/gpio/cy_gpio.h **** 
 712:Generated_Source\PSoC6\pdl\drivers/peripheral/gpio/cy_gpio.h **** /*******************************************************************************
 713:Generated_Source\PSoC6\pdl\drivers/peripheral/gpio/cy_gpio.h **** * Function Name: Cy_GPIO_PortToAddr
 714:Generated_Source\PSoC6\pdl\drivers/peripheral/gpio/cy_gpio.h **** ****************************************************************************//**
 715:Generated_Source\PSoC6\pdl\drivers/peripheral/gpio/cy_gpio.h **** *
 716:Generated_Source\PSoC6\pdl\drivers/peripheral/gpio/cy_gpio.h **** * Retrieves the port address based on the given port number.
 717:Generated_Source\PSoC6\pdl\drivers/peripheral/gpio/cy_gpio.h **** *
 718:Generated_Source\PSoC6\pdl\drivers/peripheral/gpio/cy_gpio.h **** * This is a helper function to calculate the port base address when given a port
 719:Generated_Source\PSoC6\pdl\drivers/peripheral/gpio/cy_gpio.h **** * number. It is to be used when pin access needs to be calculated at runtime.
ARM GAS  C:\Users\deathc\AppData\Local\Temp\cc1pP50L.s 			page 24


 720:Generated_Source\PSoC6\pdl\drivers/peripheral/gpio/cy_gpio.h **** *
 721:Generated_Source\PSoC6\pdl\drivers/peripheral/gpio/cy_gpio.h **** * \param portNum
 722:Generated_Source\PSoC6\pdl\drivers/peripheral/gpio/cy_gpio.h **** * Port number
 723:Generated_Source\PSoC6\pdl\drivers/peripheral/gpio/cy_gpio.h **** *
 724:Generated_Source\PSoC6\pdl\drivers/peripheral/gpio/cy_gpio.h **** * \return
 725:Generated_Source\PSoC6\pdl\drivers/peripheral/gpio/cy_gpio.h **** * Base address of the port register structure
 726:Generated_Source\PSoC6\pdl\drivers/peripheral/gpio/cy_gpio.h **** *
 727:Generated_Source\PSoC6\pdl\drivers/peripheral/gpio/cy_gpio.h **** * \funcusage
 728:Generated_Source\PSoC6\pdl\drivers/peripheral/gpio/cy_gpio.h **** * \snippet gpio/gpio_v1_10_sut_01.cydsn/main_cm4.c snippet_Cy_GPIO_PortToAddr
 729:Generated_Source\PSoC6\pdl\drivers/peripheral/gpio/cy_gpio.h **** *
 730:Generated_Source\PSoC6\pdl\drivers/peripheral/gpio/cy_gpio.h **** *******************************************************************************/
 731:Generated_Source\PSoC6\pdl\drivers/peripheral/gpio/cy_gpio.h **** __STATIC_INLINE GPIO_PRT_Type* Cy_GPIO_PortToAddr(uint32_t portNum)
 732:Generated_Source\PSoC6\pdl\drivers/peripheral/gpio/cy_gpio.h **** {
 733:Generated_Source\PSoC6\pdl\drivers/peripheral/gpio/cy_gpio.h ****     GPIO_PRT_Type* portBase;
 734:Generated_Source\PSoC6\pdl\drivers/peripheral/gpio/cy_gpio.h ****     
 735:Generated_Source\PSoC6\pdl\drivers/peripheral/gpio/cy_gpio.h ****     if(portNum < (uint32_t)IOSS_GPIO_GPIO_PORT_NR)
 736:Generated_Source\PSoC6\pdl\drivers/peripheral/gpio/cy_gpio.h ****     {
 737:Generated_Source\PSoC6\pdl\drivers/peripheral/gpio/cy_gpio.h ****         portBase = (GPIO_PRT_Type *)(CY_GPIO_BASE + (GPIO_PRT_SECTION_SIZE * portNum));
 738:Generated_Source\PSoC6\pdl\drivers/peripheral/gpio/cy_gpio.h ****     }
 739:Generated_Source\PSoC6\pdl\drivers/peripheral/gpio/cy_gpio.h ****     else
 740:Generated_Source\PSoC6\pdl\drivers/peripheral/gpio/cy_gpio.h ****     {
 741:Generated_Source\PSoC6\pdl\drivers/peripheral/gpio/cy_gpio.h ****         /* Error: Return default base address */
 742:Generated_Source\PSoC6\pdl\drivers/peripheral/gpio/cy_gpio.h ****         portBase = (GPIO_PRT_Type *)(CY_GPIO_BASE);
 743:Generated_Source\PSoC6\pdl\drivers/peripheral/gpio/cy_gpio.h ****     }
 744:Generated_Source\PSoC6\pdl\drivers/peripheral/gpio/cy_gpio.h **** 
 745:Generated_Source\PSoC6\pdl\drivers/peripheral/gpio/cy_gpio.h ****     return (portBase);
 746:Generated_Source\PSoC6\pdl\drivers/peripheral/gpio/cy_gpio.h **** }
 747:Generated_Source\PSoC6\pdl\drivers/peripheral/gpio/cy_gpio.h **** 
 748:Generated_Source\PSoC6\pdl\drivers/peripheral/gpio/cy_gpio.h **** /** \} group_gpio_functions_init */
 749:Generated_Source\PSoC6\pdl\drivers/peripheral/gpio/cy_gpio.h **** 
 750:Generated_Source\PSoC6\pdl\drivers/peripheral/gpio/cy_gpio.h **** /**
 751:Generated_Source\PSoC6\pdl\drivers/peripheral/gpio/cy_gpio.h **** * \addtogroup group_gpio_functions_gpio
 752:Generated_Source\PSoC6\pdl\drivers/peripheral/gpio/cy_gpio.h **** * \{
 753:Generated_Source\PSoC6\pdl\drivers/peripheral/gpio/cy_gpio.h **** */
 754:Generated_Source\PSoC6\pdl\drivers/peripheral/gpio/cy_gpio.h **** 
 755:Generated_Source\PSoC6\pdl\drivers/peripheral/gpio/cy_gpio.h **** /*******************************************************************************
 756:Generated_Source\PSoC6\pdl\drivers/peripheral/gpio/cy_gpio.h **** * Function Name: Cy_GPIO_Read
 757:Generated_Source\PSoC6\pdl\drivers/peripheral/gpio/cy_gpio.h **** ****************************************************************************//**
 758:Generated_Source\PSoC6\pdl\drivers/peripheral/gpio/cy_gpio.h **** *
 759:Generated_Source\PSoC6\pdl\drivers/peripheral/gpio/cy_gpio.h **** * Reads the current logic level on the input buffer of the pin.
 760:Generated_Source\PSoC6\pdl\drivers/peripheral/gpio/cy_gpio.h **** *
 761:Generated_Source\PSoC6\pdl\drivers/peripheral/gpio/cy_gpio.h **** * \param base
 762:Generated_Source\PSoC6\pdl\drivers/peripheral/gpio/cy_gpio.h **** * Pointer to the pin's port register base address
 763:Generated_Source\PSoC6\pdl\drivers/peripheral/gpio/cy_gpio.h **** *
 764:Generated_Source\PSoC6\pdl\drivers/peripheral/gpio/cy_gpio.h **** * \param pinNum
 765:Generated_Source\PSoC6\pdl\drivers/peripheral/gpio/cy_gpio.h **** * Position of the pin bit-field within the port register.
 766:Generated_Source\PSoC6\pdl\drivers/peripheral/gpio/cy_gpio.h **** * Bit position 8 is the routed pin through the port glitch filter.
 767:Generated_Source\PSoC6\pdl\drivers/peripheral/gpio/cy_gpio.h **** *
 768:Generated_Source\PSoC6\pdl\drivers/peripheral/gpio/cy_gpio.h **** * \return
 769:Generated_Source\PSoC6\pdl\drivers/peripheral/gpio/cy_gpio.h **** * Logic level present on the pin
 770:Generated_Source\PSoC6\pdl\drivers/peripheral/gpio/cy_gpio.h **** *
 771:Generated_Source\PSoC6\pdl\drivers/peripheral/gpio/cy_gpio.h **** * \funcusage
 772:Generated_Source\PSoC6\pdl\drivers/peripheral/gpio/cy_gpio.h **** * \snippet gpio/gpio_v1_10_sut_01.cydsn/main_cm4.c snippet_Cy_GPIO_Read
 773:Generated_Source\PSoC6\pdl\drivers/peripheral/gpio/cy_gpio.h **** *
 774:Generated_Source\PSoC6\pdl\drivers/peripheral/gpio/cy_gpio.h **** *******************************************************************************/
 775:Generated_Source\PSoC6\pdl\drivers/peripheral/gpio/cy_gpio.h **** __STATIC_INLINE uint32_t Cy_GPIO_Read(GPIO_PRT_Type* base, uint32_t pinNum)
 776:Generated_Source\PSoC6\pdl\drivers/peripheral/gpio/cy_gpio.h **** {
ARM GAS  C:\Users\deathc\AppData\Local\Temp\cc1pP50L.s 			page 25


 777:Generated_Source\PSoC6\pdl\drivers/peripheral/gpio/cy_gpio.h ****     CY_ASSERT_L2(CY_GPIO_IS_FILTER_PIN_VALID(pinNum));
 778:Generated_Source\PSoC6\pdl\drivers/peripheral/gpio/cy_gpio.h ****     
 779:Generated_Source\PSoC6\pdl\drivers/peripheral/gpio/cy_gpio.h ****     return (GPIO_PRT_IN(base) >> (pinNum)) & CY_GPIO_IN_MASK;
 780:Generated_Source\PSoC6\pdl\drivers/peripheral/gpio/cy_gpio.h **** }
 781:Generated_Source\PSoC6\pdl\drivers/peripheral/gpio/cy_gpio.h **** 
 782:Generated_Source\PSoC6\pdl\drivers/peripheral/gpio/cy_gpio.h **** 
 783:Generated_Source\PSoC6\pdl\drivers/peripheral/gpio/cy_gpio.h **** /*******************************************************************************
 784:Generated_Source\PSoC6\pdl\drivers/peripheral/gpio/cy_gpio.h **** * Function Name: Cy_GPIO_Write
 785:Generated_Source\PSoC6\pdl\drivers/peripheral/gpio/cy_gpio.h **** ****************************************************************************//**
 786:Generated_Source\PSoC6\pdl\drivers/peripheral/gpio/cy_gpio.h **** *
 787:Generated_Source\PSoC6\pdl\drivers/peripheral/gpio/cy_gpio.h **** * Write a logic 0 or logic 1 state to the output driver.
 788:Generated_Source\PSoC6\pdl\drivers/peripheral/gpio/cy_gpio.h **** *
 789:Generated_Source\PSoC6\pdl\drivers/peripheral/gpio/cy_gpio.h **** * This function should be used only for software driven pins. It does not have
 790:Generated_Source\PSoC6\pdl\drivers/peripheral/gpio/cy_gpio.h **** * any effect on peripheral driven pins.
 791:Generated_Source\PSoC6\pdl\drivers/peripheral/gpio/cy_gpio.h **** *
 792:Generated_Source\PSoC6\pdl\drivers/peripheral/gpio/cy_gpio.h **** * \param base
 793:Generated_Source\PSoC6\pdl\drivers/peripheral/gpio/cy_gpio.h **** * Pointer to the pin's port register base address
 794:Generated_Source\PSoC6\pdl\drivers/peripheral/gpio/cy_gpio.h **** *
 795:Generated_Source\PSoC6\pdl\drivers/peripheral/gpio/cy_gpio.h **** * \param pinNum
 796:Generated_Source\PSoC6\pdl\drivers/peripheral/gpio/cy_gpio.h **** * Position of the pin bit-field within the port register
 797:Generated_Source\PSoC6\pdl\drivers/peripheral/gpio/cy_gpio.h **** *
 798:Generated_Source\PSoC6\pdl\drivers/peripheral/gpio/cy_gpio.h **** * \param value
 799:Generated_Source\PSoC6\pdl\drivers/peripheral/gpio/cy_gpio.h **** * Logic level to drive out on the pin
 800:Generated_Source\PSoC6\pdl\drivers/peripheral/gpio/cy_gpio.h **** *
 801:Generated_Source\PSoC6\pdl\drivers/peripheral/gpio/cy_gpio.h **** * \funcusage
 802:Generated_Source\PSoC6\pdl\drivers/peripheral/gpio/cy_gpio.h **** * \snippet gpio/gpio_v1_10_sut_01.cydsn/main_cm4.c snippet_Cy_GPIO_Write
 803:Generated_Source\PSoC6\pdl\drivers/peripheral/gpio/cy_gpio.h **** *
 804:Generated_Source\PSoC6\pdl\drivers/peripheral/gpio/cy_gpio.h **** *******************************************************************************/
 805:Generated_Source\PSoC6\pdl\drivers/peripheral/gpio/cy_gpio.h **** __STATIC_INLINE void Cy_GPIO_Write(GPIO_PRT_Type* base, uint32_t pinNum, uint32_t value)
 806:Generated_Source\PSoC6\pdl\drivers/peripheral/gpio/cy_gpio.h **** {
 807:Generated_Source\PSoC6\pdl\drivers/peripheral/gpio/cy_gpio.h ****     CY_ASSERT_L2(CY_GPIO_IS_PIN_VALID(pinNum));
 808:Generated_Source\PSoC6\pdl\drivers/peripheral/gpio/cy_gpio.h ****     CY_ASSERT_L2(CY_GPIO_IS_VALUE_VALID(value));
 809:Generated_Source\PSoC6\pdl\drivers/peripheral/gpio/cy_gpio.h **** 
 810:Generated_Source\PSoC6\pdl\drivers/peripheral/gpio/cy_gpio.h ****     /* Thread-safe: Directly access the pin registers instead of base->OUT */
 811:Generated_Source\PSoC6\pdl\drivers/peripheral/gpio/cy_gpio.h ****     if(0UL == value)
 812:Generated_Source\PSoC6\pdl\drivers/peripheral/gpio/cy_gpio.h ****     {
 813:Generated_Source\PSoC6\pdl\drivers/peripheral/gpio/cy_gpio.h ****         GPIO_PRT_OUT_CLR(base) = CY_GPIO_OUT_MASK << pinNum;
 814:Generated_Source\PSoC6\pdl\drivers/peripheral/gpio/cy_gpio.h ****     }
 815:Generated_Source\PSoC6\pdl\drivers/peripheral/gpio/cy_gpio.h ****     else
 816:Generated_Source\PSoC6\pdl\drivers/peripheral/gpio/cy_gpio.h ****     {
 817:Generated_Source\PSoC6\pdl\drivers/peripheral/gpio/cy_gpio.h ****         GPIO_PRT_OUT_SET(base) = CY_GPIO_OUT_MASK << pinNum;
 173              		.loc 2 817 0
 174 0010 0822     		movs	r2, #8
 175 0012 044B     		ldr	r3, .L10+4
 176 0014 9A60     		str	r2, [r3, #8]
 177              	.LVL13:
 178              	.LBE13:
 179              	.LBE12:
 421:ble_application.c **** 	Cy_GPIO_Write(Connect_led_PORT,Connect_led_NUM,1);
 422:ble_application.c ****     /* Update the corresponding CCCD value in GATT DB */
 423:ble_application.c **** 	UpdateCccdStatusInGattDb(CY_BLE_SIMON_SERVICE_SIMON_TEST_CHARACTERISTIC_CLIENT_CHARACTERISTIC_CONF
 180              		.loc 1 423 0
 181 0016 1420     		movs	r0, #20
 182 0018 FFF7FEFF 		bl	UpdateCccdStatusInGattDb
 183              	.LVL14:
 184 001c 08BD     		pop	{r3, pc}
 185              	.L11:
ARM GAS  C:\Users\deathc\AppData\Local\Temp\cc1pP50L.s 			page 26


 186 001e 00BF     		.align	2
 187              	.L10:
 188 0020 00000000 		.word	.LANCHOR0
 189 0024 80033240 		.word	1077019520
 190              		.cfi_endproc
 191              	.LFE653:
 192              		.size	HandleDisconnectEvent, .-HandleDisconnectEvent
 193              		.section	.text.ProcessBleEvents,"ax",%progbits
 194              		.align	2
 195              		.global	ProcessBleEvents
 196              		.thumb
 197              		.thumb_func
 198              		.type	ProcessBleEvents, %function
 199              	ProcessBleEvents:
 200              	.LFB656:
 424:ble_application.c **** 
 425:ble_application.c **** 	
 426:ble_application.c **** }
 427:ble_application.c **** 
 428:ble_application.c **** 
 429:ble_application.c **** /*******************************************************************************
 430:ble_application.c **** * Function Name: void HandleWriteRequest
 431:ble_application.c **** *                     (cy_stc_ble_gatts_write_cmd_req_param_t *writeRequest)
 432:ble_application.c **** ********************************************************************************
 433:ble_application.c **** * Summary:
 434:ble_application.c **** *  This functions handles the 'write request' event for the RGB LED service
 435:ble_application.c **** *
 436:ble_application.c **** * Parameters:
 437:ble_application.c **** *  writeRequest : pointer to the write request parameters from the central        
 438:ble_application.c **** *
 439:ble_application.c **** * Return:
 440:ble_application.c **** *  void
 441:ble_application.c **** *
 442:ble_application.c **** *******************************************************************************/
 443:ble_application.c **** void HandleWriteRequest(cy_stc_ble_gatts_write_cmd_req_param_t 
 444:ble_application.c **** 	*writeRequest)
 445:ble_application.c **** {
 446:ble_application.c ****     /* Check the validity and then extract the write value sent by the Client 
 447:ble_application.c ****        for CCCD */
 448:ble_application.c **** 	if (writeRequest->handleValPair.attrHandle == CY_BLE_SIMON_SERVICE_SIMON_TEST_CHARACTERISTIC_CLIEN
 449:ble_application.c **** 		((writeRequest->handleValPair.value.val[CY_BLE_SIMON_SERVICE_SIMON_TEST_CHARACTERISTIC_CLIENT_CHA
 450:ble_application.c **** 			== CCCD_NOTIFY_DISABLED)||
 451:ble_application.c **** 		(writeRequest->handleValPair.value.val[CY_BLE_SIMON_SERVICE_SIMON_TEST_CHARACTERISTIC_CLIENT_CHAR
 452:ble_application.c **** 			== CCCD_NOTIFY_ENABLED)))
 453:ble_application.c **** 	{
 454:ble_application.c **** 		NotificationStatus = writeRequest->
 455:ble_application.c **** 		handleValPair.value.val[0] ;
 456:ble_application.c **** 		
 457:ble_application.c ****          /* Update the corresponding CCCD value in GATT DB */
 458:ble_application.c **** 		UpdateCccdStatusInGattDb(CY_BLE_SIMON_SERVICE_SIMON_TEST_CHARACTERISTIC_CLIENT_CHARACTERISTIC_CON
 459:ble_application.c **** 	}
 460:ble_application.c **** 	
 461:ble_application.c ****     
 462:ble_application.c **** //    if( (writeRequest->handleValPair.attrHandle == CY_BLE_SIMON_SERVICE_SIMON_INDICATE_CHARAC_CLI
 463:ble_application.c **** //        ((writeRequest->handleValPair.value.val[CY_BLE_SIMON_SERVICE_SIMON_INDICATE_CHARAC_CLIENT
 464:ble_application.c **** //        (writeRequest->handleValPair.value.val[CY_BLE_SIMON_SERVICE_SIMON_INDICATE_CHARAC_CLIENT_
 465:ble_application.c **** //    )
ARM GAS  C:\Users\deathc\AppData\Local\Temp\cc1pP50L.s 			page 27


 466:ble_application.c **** //    {
 467:ble_application.c **** //        IndicateStatus = writeRequest->handleValPair.value.val[0];
 468:ble_application.c **** //        UpdateCccdStatusInGattDb(CY_BLE_SIMON_SERVICE_SIMON_INDICATE_CHARAC_CLIENT_CHARACTERISTIC
 469:ble_application.c **** //    }
 470:ble_application.c ****     
 471:ble_application.c ****     /* Check if the notification is enabled for RGB LED service */
 472:ble_application.c **** 	if (NotificationStatus == CCCD_NOTIFY_ENABLED)
 473:ble_application.c **** 	{
 474:ble_application.c ****         /* Update the Notification attribute */
 475:ble_application.c **** 		SendNotification(CY_BLE_SIMON_SERVICE_SIMON_TEST_CHARACTERISTIC_CHAR_HANDLE,testdata,20);
 476:ble_application.c **** 	}
 477:ble_application.c **** 	
 478:ble_application.c ****     /* Check if the returned handle is matching to Write
 479:ble_application.c ****        Attribute and extract the data*/
 480:ble_application.c **** 	if (writeRequest->handleValPair.attrHandle == 
 481:ble_application.c **** 		CY_BLE_SIMON_SERVICE_SIMON_TEST_CHARACTERISTIC_CHAR_HANDLE)
 482:ble_application.c **** 	{
 483:ble_application.c ****         /* Extract the write value sent by the Client for characteristic */
 484:ble_application.c **** 		for(uint8_t i=0;i<writeRequest->handleValPair.value.len;i++)
 485:ble_application.c **** 		{
 486:ble_application.c **** 			testdata[i] = writeRequest->handleValPair.value.val[i];
 487:ble_application.c **** 		}
 488:ble_application.c ****         
 489:ble_application.c ****         cy_stc_ble_gatt_handle_value_pair_t data;
 490:ble_application.c ****         
 491:ble_application.c ****         data.attrHandle = CY_BLE_SIMON_SERVICE_SIMON_TEST_CHARACTERISTIC_CHAR_HANDLE;
 492:ble_application.c ****         data.value.val = testdata;
 493:ble_application.c ****         data.value.len = writeRequest->handleValPair.value.len;
 494:ble_application.c ****         
 495:ble_application.c ****         
 496:ble_application.c ****         Cy_BLE_GATTS_WriteAttributeValueLocal(&data);
 497:ble_application.c **** 
 498:ble_application.c **** 	}
 499:ble_application.c **** }
 500:ble_application.c **** 
 501:ble_application.c **** /*******************************************************************************
 502:ble_application.c **** * Function Name: void StackEventHandler(uint32_t event, void *eventParameter)
 503:ble_application.c **** ********************************************************************************
 504:ble_application.c **** * Summary:
 505:ble_application.c **** *  Call back event function to handle various events from the BLE stack
 506:ble_application.c **** *
 507:ble_application.c **** * Parameters:
 508:ble_application.c **** *  event            :	event returned
 509:ble_application.c **** *  eventParameter   :	link to value of the events returned
 510:ble_application.c **** *
 511:ble_application.c **** * Return:
 512:ble_application.c **** *  void
 513:ble_application.c **** *
 514:ble_application.c **** *******************************************************************************/
 515:ble_application.c **** void StackEventHandler(uint32_t event, void *eventParameter)
 516:ble_application.c **** {
 517:ble_application.c ****     /* Local variable to store the data received as part of the write request
 518:ble_application.c ****        events */
 519:ble_application.c **** 	cy_stc_ble_gatts_write_cmd_req_param_t   *writeReqParameter;
 520:ble_application.c ****     
 521:ble_application.c **** 	
 522:ble_application.c ****     /* Take an action based on the current event */
ARM GAS  C:\Users\deathc\AppData\Local\Temp\cc1pP50L.s 			page 28


 523:ble_application.c **** 	switch (event)
 524:ble_application.c **** 	{
 525:ble_application.c ****         /* This event is received when the BLE stack is Started */
 526:ble_application.c **** 		case CY_BLE_EVT_STACK_ON:
 527:ble_application.c **** 		
 528:ble_application.c ****             /* Set restartBleAdvertisement flag to allow calling advertisement
 529:ble_application.c ****                API */
 530:ble_application.c ****         //Cy_BLE_GAP_SetBdAddress();
 531:ble_application.c ****         Cy_BLE_GAP_GetBdAddress();
 532:ble_application.c ****         memcpy(BDaddr,cy_ble_config.deviceAddress->bdAddr,6);
 533:ble_application.c **** 		
 534:ble_application.c **** 		restartBleAdvertisement = true;
 535:ble_application.c **** 		break;
 536:ble_application.c **** 		
 537:ble_application.c ****         /*~~~~~~~~~~~~~~~~~~~~~~ GATT EVENTS ~~~~~~~~~~~~~~~~~~~~~~~~~~*/
 538:ble_application.c **** 		
 539:ble_application.c ****         /* This event is received when device is connected over GATT level */    
 540:ble_application.c **** 		case CY_BLE_EVT_GATT_CONNECT_IND:
 541:ble_application.c **** 		
 542:ble_application.c ****             /* Update attribute handle on GATT Connection */
 543:ble_application.c **** 		connectionHandle = *(cy_stc_ble_conn_handle_t *) eventParameter;
 544:ble_application.c ****         Cy_GPIO_Write(Connect_led_PORT,Connect_led_NUM,0);
 545:ble_application.c **** 		break;
 546:ble_application.c **** 		
 547:ble_application.c ****         /* This event is received when device is disconnected */
 548:ble_application.c **** 		case CY_BLE_EVT_GATT_DISCONNECT_IND:
 549:ble_application.c **** 
 550:ble_application.c **** 		HandleDisconnectEvent();
 551:ble_application.c **** 		break;
 552:ble_application.c **** 		
 553:ble_application.c ****         /* This event is received when Central device sends a Write command
 554:ble_application.c ****            on an Attribute */
 555:ble_application.c ****         case CY_BLE_EVT_GATTS_WRITE_REQ:                        //write with response
 556:ble_application.c ****         Cy_BLE_GATTS_WriteRsp(connectionHandle);
 557:ble_application.c ****         writeReqParameter = (cy_stc_ble_gatts_write_cmd_req_param_t *) 
 558:ble_application.c **** 		eventParameter;
 559:ble_application.c **** //        if(CY_BLE_SIMON_SERVICE_SIMON_TEST_CHARACTERISTIC_CHAR_HANDLE
 560:ble_application.c **** //			== writeReqParameter->handleValPair.attrHandle )
 561:ble_application.c ****         {
 562:ble_application.c ****             Handlecustomdata(writeReqParameter);
 563:ble_application.c ****         }
 564:ble_application.c ****         /* Send the response to the write request received. */
 565:ble_application.c ****         #if 1
 566:ble_application.c ****         {
 567:ble_application.c **** //        cy_stc_ble_gatt_err_info_t errcode;
 568:ble_application.c **** //        Cy_BLE_GATTS_SendErrorRsp(&connectionHandle,&errcode);
 569:ble_application.c ****         }
 570:ble_application.c ****         
 571:ble_application.c ****         
 572:ble_application.c ****         
 573:ble_application.c ****         if (CY_BLE_SIMON_SERVICE_SIMON_TEST_CHARACTERISTIC_CLIENT_CHARACTERISTIC_CONFIGURATION_DESC
 574:ble_application.c **** 			== writeReqParameter->handleValPair.attrHandle ||
 575:ble_application.c **** 			CY_BLE_SIMON_SERVICE_SIMON_TEST_CHARACTERISTIC_CHAR_HANDLE
 576:ble_application.c **** 			== writeReqParameter->handleValPair.attrHandle )//||
 577:ble_application.c ****             //writeReqParameter->handleValPair.attrHandle == CY_BLE_SIMON_SERVICE_SIMON_INDICATE_CH
 578:ble_application.c ****         
 579:ble_application.c **** 		{
ARM GAS  C:\Users\deathc\AppData\Local\Temp\cc1pP50L.s 			page 29


 580:ble_application.c **** 			HandleWriteRequest(writeReqParameter);
 581:ble_application.c **** 
 582:ble_application.c **** 		}
 583:ble_application.c ****         
 584:ble_application.c ****         
 585:ble_application.c ****          #endif
 586:ble_application.c ****         
 587:ble_application.c ****         break;
 588:ble_application.c **** 		case CY_BLE_EVT_GATTS_WRITE_CMD_REQ:                    //write without response
 589:ble_application.c ****         {
 590:ble_application.c ****         /* Read the write request parameter */
 591:ble_application.c **** 		writeReqParameter = (cy_stc_ble_gatts_write_cmd_req_param_t *) 
 592:ble_application.c **** 		eventParameter;
 593:ble_application.c **** 
 594:ble_application.c **** 		if (CY_BLE_SIMON_SERVICE_SIMON_TEST_CHARACTERISTIC_CLIENT_CHARACTERISTIC_CONFIGURATION_DESC_HANDL
 595:ble_application.c **** 			== writeReqParameter->handleValPair.attrHandle ||
 596:ble_application.c **** 			CY_BLE_SIMON_SERVICE_SIMON_TEST_CHARACTERISTIC_CHAR_HANDLE
 597:ble_application.c **** 			== writeReqParameter->handleValPair.attrHandle )//||
 598:ble_application.c ****             //writeReqParameter->handleValPair.attrHandle == CY_BLE_SIMON_SERVICE_SIMON_INDICATE_CH
 599:ble_application.c ****         
 600:ble_application.c **** 		{
 601:ble_application.c **** 			HandleWriteRequest(writeReqParameter);
 602:ble_application.c **** 
 603:ble_application.c **** 		}
 604:ble_application.c **** 		}
 605:ble_application.c ****             
 606:ble_application.c **** 		break;
 607:ble_application.c ****            
 608:ble_application.c ****         /*~~~~~~~~~~~~~~~~~~~~~~ OTHER EVENTS ~~~~~~~~~~~~~~~~~~~~~~~~~~*/ 
 609:ble_application.c ****         /*  client response the indicate*/
 610:ble_application.c **** 		case CY_BLE_EVT_GATTS_HANDLE_VALUE_CNF:                     
 611:ble_application.c **** //                cy_stc_ble_conn_handle_t *temp = (cy_stc_ble_conn_handle_t*)eventParameter;
 612:ble_application.c **** //            Cy_GPIO_Inv(Pin_3_PORT, Pin_3_NUM);
 613:ble_application.c **** //            Indicateresflag = 1;
 614:ble_application.c ****             
 615:ble_application.c ****         break;
 616:ble_application.c ****             
 617:ble_application.c ****         case CY_BLE_EVT_GET_DEVICE_ADDR_COMPLETE:
 618:ble_application.c ****         {
 619:ble_application.c ****             
 620:ble_application.c ****             memcpy(BDaddr,(*(cy_stc_ble_bd_addrs_t *)(*(cy_stc_ble_events_param_generic_t*)eventPar
 621:ble_application.c ****         }
 622:ble_application.c ****             
 623:ble_application.c ****             
 624:ble_application.c ****         break;
 625:ble_application.c ****            
 626:ble_application.c ****         case CY_BLE_EVT_STACK_BUSY_STATUS:
 627:ble_application.c ****             
 628:ble_application.c ****         break;
 629:ble_application.c ****         /* Do nothing for all other events */
 630:ble_application.c **** 		default:
 631:ble_application.c **** 		break;
 632:ble_application.c **** 	}
 633:ble_application.c **** }
 634:ble_application.c **** 
 635:ble_application.c **** /*******************************************************************************
 636:ble_application.c **** * Function Name: void ProcessBleEvents(void)
ARM GAS  C:\Users\deathc\AppData\Local\Temp\cc1pP50L.s 			page 30


 637:ble_application.c **** ********************************************************************************
 638:ble_application.c **** * Summary:
 639:ble_application.c **** *  Function that continuously process the BLE events and handles custom BLE 
 640:ble_application.c **** *  services
 641:ble_application.c **** *
 642:ble_application.c **** * Parameters:
 643:ble_application.c **** *  None
 644:ble_application.c **** *
 645:ble_application.c **** * Return:
 646:ble_application.c **** *  Void
 647:ble_application.c **** *
 648:ble_application.c **** *******************************************************************************/
 649:ble_application.c **** void ProcessBleEvents(void)
 650:ble_application.c **** {  
 201              		.loc 1 650 0
 202              		.cfi_startproc
 203              		@ args = 0, pretend = 0, frame = 8
 204              		@ frame_needed = 0, uses_anonymous_args = 0
 205 0000 00B5     		push	{lr}
 206              		.cfi_def_cfa_offset 4
 207              		.cfi_offset 14, -4
 208 0002 83B0     		sub	sp, sp, #12
 209              		.cfi_def_cfa_offset 16
 651:ble_application.c ****     /* Process event callback to handle BLE events. The events generated 
 652:ble_application.c **** 	   and used for this application are inside the 'StackEventHandler' 
 653:ble_application.c ****        routine */
 654:ble_application.c **** 	Cy_BLE_ProcessEvents();
 210              		.loc 1 654 0
 211 0004 FFF7FEFF 		bl	Cy_BLE_ProcessEvents
 212              	.LVL15:
 213 0008 0C4B     		ldr	r3, .L17
 214 000a 1B88     		ldrh	r3, [r3]
 215              	.LBB14:
 216              	.LBB15:
 217              		.file 3 "Generated_Source\\PSoC6\\pdl\\middleware/ble/cy_ble_gap.h"
   1:Generated_Source\PSoC6\pdl\middleware/ble/cy_ble_gap.h **** /***************************************************************************//**
   2:Generated_Source\PSoC6\pdl\middleware/ble/cy_ble_gap.h **** * \file cy_ble_gap.h
   3:Generated_Source\PSoC6\pdl\middleware/ble/cy_ble_gap.h **** * \version 2.30
   4:Generated_Source\PSoC6\pdl\middleware/ble/cy_ble_gap.h **** *
   5:Generated_Source\PSoC6\pdl\middleware/ble/cy_ble_gap.h **** * \brief
   6:Generated_Source\PSoC6\pdl\middleware/ble/cy_ble_gap.h **** *  Contains the prototypes and constants used in the BLE GAP profile.
   7:Generated_Source\PSoC6\pdl\middleware/ble/cy_ble_gap.h **** *
   8:Generated_Source\PSoC6\pdl\middleware/ble/cy_ble_gap.h **** ********************************************************************************
   9:Generated_Source\PSoC6\pdl\middleware/ble/cy_ble_gap.h **** * \copyright
  10:Generated_Source\PSoC6\pdl\middleware/ble/cy_ble_gap.h **** * Copyright 2017-2018, Cypress Semiconductor Corporation.  All rights reserved.
  11:Generated_Source\PSoC6\pdl\middleware/ble/cy_ble_gap.h **** * You may use this file only in accordance with the license, terms, conditions,
  12:Generated_Source\PSoC6\pdl\middleware/ble/cy_ble_gap.h **** * disclaimers, and limitations in the end user license agreement accompanying
  13:Generated_Source\PSoC6\pdl\middleware/ble/cy_ble_gap.h **** * the software package with which this file was provided.
  14:Generated_Source\PSoC6\pdl\middleware/ble/cy_ble_gap.h **** *******************************************************************************/
  15:Generated_Source\PSoC6\pdl\middleware/ble/cy_ble_gap.h **** 
  16:Generated_Source\PSoC6\pdl\middleware/ble/cy_ble_gap.h **** 
  17:Generated_Source\PSoC6\pdl\middleware/ble/cy_ble_gap.h **** #ifndef CY_BLE_GAP_H
  18:Generated_Source\PSoC6\pdl\middleware/ble/cy_ble_gap.h **** #define CY_BLE_GAP_H
  19:Generated_Source\PSoC6\pdl\middleware/ble/cy_ble_gap.h ****     
  20:Generated_Source\PSoC6\pdl\middleware/ble/cy_ble_gap.h **** #include "cy_ble_config.h"
  21:Generated_Source\PSoC6\pdl\middleware/ble/cy_ble_gap.h **** 
  22:Generated_Source\PSoC6\pdl\middleware/ble/cy_ble_gap.h **** /***************************************
ARM GAS  C:\Users\deathc\AppData\Local\Temp\cc1pP50L.s 			page 31


  23:Generated_Source\PSoC6\pdl\middleware/ble/cy_ble_gap.h **** * BLE Stack includes
  24:Generated_Source\PSoC6\pdl\middleware/ble/cy_ble_gap.h **** ***************************************/
  25:Generated_Source\PSoC6\pdl\middleware/ble/cy_ble_gap.h **** #include "cy_ble_stack_gatt.h"    
  26:Generated_Source\PSoC6\pdl\middleware/ble/cy_ble_gap.h **** #include "cy_ble_stack_gap.h"
  27:Generated_Source\PSoC6\pdl\middleware/ble/cy_ble_gap.h **** #include "cy_ble_stack_gap_central.h"
  28:Generated_Source\PSoC6\pdl\middleware/ble/cy_ble_gap.h **** #include "cy_ble_stack_gap_peripheral.h"
  29:Generated_Source\PSoC6\pdl\middleware/ble/cy_ble_gap.h **** 
  30:Generated_Source\PSoC6\pdl\middleware/ble/cy_ble_gap.h **** /* C binding of definitions if building with C++ compiler */
  31:Generated_Source\PSoC6\pdl\middleware/ble/cy_ble_gap.h **** #ifdef __cplusplus
  32:Generated_Source\PSoC6\pdl\middleware/ble/cy_ble_gap.h **** extern "C" {
  33:Generated_Source\PSoC6\pdl\middleware/ble/cy_ble_gap.h **** #endif /* __cplusplus */
  34:Generated_Source\PSoC6\pdl\middleware/ble/cy_ble_gap.h **** 
  35:Generated_Source\PSoC6\pdl\middleware/ble/cy_ble_gap.h **** /***************************************
  36:Generated_Source\PSoC6\pdl\middleware/ble/cy_ble_gap.h **** * Conditional Compilation Parameters
  37:Generated_Source\PSoC6\pdl\middleware/ble/cy_ble_gap.h **** ***************************************/
  38:Generated_Source\PSoC6\pdl\middleware/ble/cy_ble_gap.h **** /**
  39:Generated_Source\PSoC6\pdl\middleware/ble/cy_ble_gap.h ****  * The BLE operation mode.
  40:Generated_Source\PSoC6\pdl\middleware/ble/cy_ble_gap.h ****  */
  41:Generated_Source\PSoC6\pdl\middleware/ble/cy_ble_gap.h **** #define CY_BLE_MODE                          (CY_BLE_CONFIG_MODE)
  42:Generated_Source\PSoC6\pdl\middleware/ble/cy_ble_gap.h **** 
  43:Generated_Source\PSoC6\pdl\middleware/ble/cy_ble_gap.h **** /** 
  44:Generated_Source\PSoC6\pdl\middleware/ble/cy_ble_gap.h ****  * Maximum number of BLE connections
  45:Generated_Source\PSoC6\pdl\middleware/ble/cy_ble_gap.h ****  * This parameter displays how many BLE connections (both Central and 
  46:Generated_Source\PSoC6\pdl\middleware/ble/cy_ble_gap.h ****  * Peripheral) are allowed. Valid range is from 1 to 4.
  47:Generated_Source\PSoC6\pdl\middleware/ble/cy_ble_gap.h ****  */
  48:Generated_Source\PSoC6\pdl\middleware/ble/cy_ble_gap.h **** #define CY_BLE_CONN_COUNT                    (CY_BLE_CONFIG_CONN_COUNT)
  49:Generated_Source\PSoC6\pdl\middleware/ble/cy_ble_gap.h ****  
  50:Generated_Source\PSoC6\pdl\middleware/ble/cy_ble_gap.h **** /**
  51:Generated_Source\PSoC6\pdl\middleware/ble/cy_ble_gap.h ****  * The GAP Role 
  52:Generated_Source\PSoC6\pdl\middleware/ble/cy_ble_gap.h ****  * The following defined mask can be used:
  53:Generated_Source\PSoC6\pdl\middleware/ble/cy_ble_gap.h ****  * CY_BLE_GAP_PERIPHERAL  (0x01u) - device operates as peripheral.
  54:Generated_Source\PSoC6\pdl\middleware/ble/cy_ble_gap.h ****  * CY_BLE_GAP_CENTRAL     (0x02u) - device operates as central. 
  55:Generated_Source\PSoC6\pdl\middleware/ble/cy_ble_gap.h ****  * CY_BLE_GAP_BROADCASTER (0x04u) - device operates as broadcaster.
  56:Generated_Source\PSoC6\pdl\middleware/ble/cy_ble_gap.h ****  * CY_BLE_GAP_OBSERVER    (0x08u) - device operates as observer.
  57:Generated_Source\PSoC6\pdl\middleware/ble/cy_ble_gap.h ****  * CY_BLE_GAP_HCI         (0x00u) - used when BLE operates in HCI mode.
  58:Generated_Source\PSoC6\pdl\middleware/ble/cy_ble_gap.h ****  */ 
  59:Generated_Source\PSoC6\pdl\middleware/ble/cy_ble_gap.h **** #define CY_BLE_GAP_ROLE                       (CY_BLE_CONFIG_GAP_ROLE)
  60:Generated_Source\PSoC6\pdl\middleware/ble/cy_ble_gap.h **** 
  61:Generated_Source\PSoC6\pdl\middleware/ble/cy_ble_gap.h **** /** The number of GAP Peripheral configurations structures */
  62:Generated_Source\PSoC6\pdl\middleware/ble/cy_ble_gap.h **** #define CY_BLE_GAP_PERIPHERAL_COUNT           (CY_BLE_CONFIG_GAP_PERIPHERAL_COUNT)
  63:Generated_Source\PSoC6\pdl\middleware/ble/cy_ble_gap.h **** 
  64:Generated_Source\PSoC6\pdl\middleware/ble/cy_ble_gap.h **** /** The number of GAP Broadcaster configurations structures */
  65:Generated_Source\PSoC6\pdl\middleware/ble/cy_ble_gap.h **** #define CY_BLE_GAP_BROADCASTER_COUNT          (CY_BLE_CONFIG_GAP_BROADCASTER_COUNT)
  66:Generated_Source\PSoC6\pdl\middleware/ble/cy_ble_gap.h **** 
  67:Generated_Source\PSoC6\pdl\middleware/ble/cy_ble_gap.h **** /** The number of GAP Central configurations structures */
  68:Generated_Source\PSoC6\pdl\middleware/ble/cy_ble_gap.h **** #define CY_BLE_GAP_CENTRAL_COUNT              (CY_BLE_CONFIG_GAP_CENTRAL_COUNT)
  69:Generated_Source\PSoC6\pdl\middleware/ble/cy_ble_gap.h **** 
  70:Generated_Source\PSoC6\pdl\middleware/ble/cy_ble_gap.h **** /** The number of GAP Observer configurations structures */
  71:Generated_Source\PSoC6\pdl\middleware/ble/cy_ble_gap.h **** #define CY_BLE_GAP_OBSERVER_COUNT             (CY_BLE_CONFIG_GAP_OBSERVER_COUNT)
  72:Generated_Source\PSoC6\pdl\middleware/ble/cy_ble_gap.h **** 
  73:Generated_Source\PSoC6\pdl\middleware/ble/cy_ble_gap.h **** /** The number of Security configurations structures */
  74:Generated_Source\PSoC6\pdl\middleware/ble/cy_ble_gap.h **** #define CY_BLE_AUTH_INFO_COUNT                (CY_BLE_CONFIG_AUTH_INFO_COUNT)
  75:Generated_Source\PSoC6\pdl\middleware/ble/cy_ble_gap.h **** 
  76:Generated_Source\PSoC6\pdl\middleware/ble/cy_ble_gap.h **** /** The Bonding Requirement structures */
  77:Generated_Source\PSoC6\pdl\middleware/ble/cy_ble_gap.h **** #define CY_BLE_BONDING_REQUIREMENT            (CY_BLE_CONFIG_BONDING_REQUIREMENT)
  78:Generated_Source\PSoC6\pdl\middleware/ble/cy_ble_gap.h **** 
  79:Generated_Source\PSoC6\pdl\middleware/ble/cy_ble_gap.h **** /** The GAP Role defines */
ARM GAS  C:\Users\deathc\AppData\Local\Temp\cc1pP50L.s 			page 32


  80:Generated_Source\PSoC6\pdl\middleware/ble/cy_ble_gap.h **** #define CY_BLE_GAP_ROLE_PERIPHERAL            (0u != (CY_BLE_GAP_ROLE & CY_BLE_GAP_PERIPHERAL))
  81:Generated_Source\PSoC6\pdl\middleware/ble/cy_ble_gap.h **** #define CY_BLE_GAP_ROLE_CENTRAL               (0u != (CY_BLE_GAP_ROLE & CY_BLE_GAP_CENTRAL))
  82:Generated_Source\PSoC6\pdl\middleware/ble/cy_ble_gap.h **** #define CY_BLE_GAP_ROLE_OBSERVER              (0u != (CY_BLE_GAP_ROLE & CY_BLE_GAP_OBSERVER))
  83:Generated_Source\PSoC6\pdl\middleware/ble/cy_ble_gap.h **** #define CY_BLE_GAP_ROLE_BROADCASTER           (0u != (CY_BLE_GAP_ROLE & CY_BLE_GAP_BROADCASTER))
  84:Generated_Source\PSoC6\pdl\middleware/ble/cy_ble_gap.h **** 
  85:Generated_Source\PSoC6\pdl\middleware/ble/cy_ble_gap.h **** #define CY_BLE_GAPP_CONF_COUNT                (CY_BLE_GAP_PERIPHERAL_COUNT + CY_BLE_GAP_BROADCASTER
  86:Generated_Source\PSoC6\pdl\middleware/ble/cy_ble_gap.h **** #define CY_BLE_GAPC_CONF_COUNT                (CY_BLE_GAP_CENTRAL_COUNT + CY_BLE_GAP_OBSERVER_COUNT
  87:Generated_Source\PSoC6\pdl\middleware/ble/cy_ble_gap.h **** 
  88:Generated_Source\PSoC6\pdl\middleware/ble/cy_ble_gap.h **** /***************************************
  89:Generated_Source\PSoC6\pdl\middleware/ble/cy_ble_gap.h **** * Type Definitions
  90:Generated_Source\PSoC6\pdl\middleware/ble/cy_ble_gap.h **** ***************************************/
  91:Generated_Source\PSoC6\pdl\middleware/ble/cy_ble_gap.h **** 
  92:Generated_Source\PSoC6\pdl\middleware/ble/cy_ble_gap.h **** #if (CY_BLE_MODE_PROFILE)
  93:Generated_Source\PSoC6\pdl\middleware/ble/cy_ble_gap.h **** 
  94:Generated_Source\PSoC6\pdl\middleware/ble/cy_ble_gap.h **** /***************************************
  95:Generated_Source\PSoC6\pdl\middleware/ble/cy_ble_gap.h **** * Enumerated Types and Structures
  96:Generated_Source\PSoC6\pdl\middleware/ble/cy_ble_gap.h **** ***************************************/
  97:Generated_Source\PSoC6\pdl\middleware/ble/cy_ble_gap.h **** 
  98:Generated_Source\PSoC6\pdl\middleware/ble/cy_ble_gap.h **** /**
  99:Generated_Source\PSoC6\pdl\middleware/ble/cy_ble_gap.h ****  * \addtogroup group_ble_common_api_gap_definitions
 100:Generated_Source\PSoC6\pdl\middleware/ble/cy_ble_gap.h ****  * @{
 101:Generated_Source\PSoC6\pdl\middleware/ble/cy_ble_gap.h ****  */
 102:Generated_Source\PSoC6\pdl\middleware/ble/cy_ble_gap.h **** 
 103:Generated_Source\PSoC6\pdl\middleware/ble/cy_ble_gap.h **** /** BLE state machine type */
 104:Generated_Source\PSoC6\pdl\middleware/ble/cy_ble_gap.h **** typedef enum
 105:Generated_Source\PSoC6\pdl\middleware/ble/cy_ble_gap.h **** {
 106:Generated_Source\PSoC6\pdl\middleware/ble/cy_ble_gap.h ****     CY_BLE_STATE_STOPPED,                             /**< BLE is turned off */
 107:Generated_Source\PSoC6\pdl\middleware/ble/cy_ble_gap.h ****     CY_BLE_STATE_INITIALIZING,                        /**< Initializing state */
 108:Generated_Source\PSoC6\pdl\middleware/ble/cy_ble_gap.h ****     CY_BLE_STATE_ON,                                  /**< BLE is turned on */
 109:Generated_Source\PSoC6\pdl\middleware/ble/cy_ble_gap.h **** #if (CY_BLE_GAP_ROLE_CENTRAL)
 110:Generated_Source\PSoC6\pdl\middleware/ble/cy_ble_gap.h ****     CY_BLE_STATE_CONNECTING,                          /**< Connecting */
 111:Generated_Source\PSoC6\pdl\middleware/ble/cy_ble_gap.h **** #endif /* CY_BLE_GAP_ROLE_CENTRAL */
 112:Generated_Source\PSoC6\pdl\middleware/ble/cy_ble_gap.h **** } cy_en_ble_state_t;
 113:Generated_Source\PSoC6\pdl\middleware/ble/cy_ble_gap.h **** 
 114:Generated_Source\PSoC6\pdl\middleware/ble/cy_ble_gap.h **** 
 115:Generated_Source\PSoC6\pdl\middleware/ble/cy_ble_gap.h **** /** Scanning state machine type */
 116:Generated_Source\PSoC6\pdl\middleware/ble/cy_ble_gap.h **** typedef enum
 117:Generated_Source\PSoC6\pdl\middleware/ble/cy_ble_gap.h **** {
 118:Generated_Source\PSoC6\pdl\middleware/ble/cy_ble_gap.h ****     CY_BLE_SCAN_STATE_STOPPED,                        /**< Scanning is stopped */
 119:Generated_Source\PSoC6\pdl\middleware/ble/cy_ble_gap.h ****     CY_BLE_SCAN_STATE_SCAN_INITIATED,                 /**< Scanning is initiated */
 120:Generated_Source\PSoC6\pdl\middleware/ble/cy_ble_gap.h ****     CY_BLE_SCAN_STATE_SCANNING,                       /**< Scanning process */
 121:Generated_Source\PSoC6\pdl\middleware/ble/cy_ble_gap.h ****     CY_BLE_SCAN_STATE_STOP_INITIATED                  /**< Stop scanning is initiated */
 122:Generated_Source\PSoC6\pdl\middleware/ble/cy_ble_gap.h **** } cy_en_ble_scan_state_t;
 123:Generated_Source\PSoC6\pdl\middleware/ble/cy_ble_gap.h **** 
 124:Generated_Source\PSoC6\pdl\middleware/ble/cy_ble_gap.h **** /** Advertising state machine type */
 125:Generated_Source\PSoC6\pdl\middleware/ble/cy_ble_gap.h **** typedef enum
 126:Generated_Source\PSoC6\pdl\middleware/ble/cy_ble_gap.h **** {
 127:Generated_Source\PSoC6\pdl\middleware/ble/cy_ble_gap.h ****     CY_BLE_ADV_STATE_STOPPED,                         /**< Advertising is stopped */
 128:Generated_Source\PSoC6\pdl\middleware/ble/cy_ble_gap.h ****     CY_BLE_ADV_STATE_ADV_INITIATED,                   /**< Advertising is initiated */
 129:Generated_Source\PSoC6\pdl\middleware/ble/cy_ble_gap.h ****     CY_BLE_ADV_STATE_ADVERTISING,                     /**< Advertising process */
 130:Generated_Source\PSoC6\pdl\middleware/ble/cy_ble_gap.h ****     CY_BLE_ADV_STATE_STOP_INITIATED                   /**< Stop advertising is initiated */
 131:Generated_Source\PSoC6\pdl\middleware/ble/cy_ble_gap.h **** } cy_en_ble_adv_state_t;
 132:Generated_Source\PSoC6\pdl\middleware/ble/cy_ble_gap.h **** 
 133:Generated_Source\PSoC6\pdl\middleware/ble/cy_ble_gap.h **** /** Connection state machine type */
 134:Generated_Source\PSoC6\pdl\middleware/ble/cy_ble_gap.h **** typedef enum
 135:Generated_Source\PSoC6\pdl\middleware/ble/cy_ble_gap.h **** {
 136:Generated_Source\PSoC6\pdl\middleware/ble/cy_ble_gap.h ****     CY_BLE_CONN_STATE_DISCONNECTED,                   /**< Essentially idle state */
ARM GAS  C:\Users\deathc\AppData\Local\Temp\cc1pP50L.s 			page 33


 137:Generated_Source\PSoC6\pdl\middleware/ble/cy_ble_gap.h ****     CY_BLE_CONN_STATE_CLIENT_DISCONNECTED_DISCOVERED, /**< Server is disconnected but discovered */
 138:Generated_Source\PSoC6\pdl\middleware/ble/cy_ble_gap.h ****     CY_BLE_CONN_STATE_CONNECTED,                      /**< Peer device is connected for this and fo
 139:Generated_Source\PSoC6\pdl\middleware/ble/cy_ble_gap.h ****     CY_BLE_CONN_STATE_CLIENT_SRVC_DISCOVERING,        /**< Server services are being discovered */
 140:Generated_Source\PSoC6\pdl\middleware/ble/cy_ble_gap.h ****     CY_BLE_CONN_STATE_CLIENT_INCL_DISCOVERING,        /**< Server included services are being disco
 141:Generated_Source\PSoC6\pdl\middleware/ble/cy_ble_gap.h ****     CY_BLE_CONN_STATE_CLIENT_CHAR_DISCOVERING,        /**< Server characteristics are being discove
 142:Generated_Source\PSoC6\pdl\middleware/ble/cy_ble_gap.h ****     CY_BLE_CONN_STATE_CLIENT_DESCR_DISCOVERING,       /**< Server char. descriptors are being disco
 143:Generated_Source\PSoC6\pdl\middleware/ble/cy_ble_gap.h ****     CY_BLE_CONN_STATE_CLIENT_DISCOVERED               /**< Server is discovered */
 144:Generated_Source\PSoC6\pdl\middleware/ble/cy_ble_gap.h **** } cy_en_ble_conn_state_t;
 145:Generated_Source\PSoC6\pdl\middleware/ble/cy_ble_gap.h **** 
 146:Generated_Source\PSoC6\pdl\middleware/ble/cy_ble_gap.h **** /** Structure with Generic Access Profile Service (GAPS) attribute handles */
 147:Generated_Source\PSoC6\pdl\middleware/ble/cy_ble_gap.h **** typedef struct
 148:Generated_Source\PSoC6\pdl\middleware/ble/cy_ble_gap.h **** {
 149:Generated_Source\PSoC6\pdl\middleware/ble/cy_ble_gap.h ****     /** Service handle*/
 150:Generated_Source\PSoC6\pdl\middleware/ble/cy_ble_gap.h ****     cy_ble_gatt_db_attr_handle_t serviceHandle;
 151:Generated_Source\PSoC6\pdl\middleware/ble/cy_ble_gap.h **** 
 152:Generated_Source\PSoC6\pdl\middleware/ble/cy_ble_gap.h ****     /** Handle of the GAPS Device Name Characteristic */
 153:Generated_Source\PSoC6\pdl\middleware/ble/cy_ble_gap.h ****     cy_ble_gatt_db_attr_handle_t deviceNameCharHandle;
 154:Generated_Source\PSoC6\pdl\middleware/ble/cy_ble_gap.h **** 
 155:Generated_Source\PSoC6\pdl\middleware/ble/cy_ble_gap.h ****     /** Handle of the GAPS Appearance Characteristic */
 156:Generated_Source\PSoC6\pdl\middleware/ble/cy_ble_gap.h ****     cy_ble_gatt_db_attr_handle_t appearanceCharHandle;
 157:Generated_Source\PSoC6\pdl\middleware/ble/cy_ble_gap.h **** 
 158:Generated_Source\PSoC6\pdl\middleware/ble/cy_ble_gap.h ****     /** Handle of the GAPS Peripheral Preferred Connection Parameters Characteristic */
 159:Generated_Source\PSoC6\pdl\middleware/ble/cy_ble_gap.h ****     cy_ble_gatt_db_attr_handle_t prefConnParamCharHandle;
 160:Generated_Source\PSoC6\pdl\middleware/ble/cy_ble_gap.h **** 
 161:Generated_Source\PSoC6\pdl\middleware/ble/cy_ble_gap.h ****     /** Handle of the GAPS Central Address Resolution characteristic */
 162:Generated_Source\PSoC6\pdl\middleware/ble/cy_ble_gap.h ****     cy_ble_gatt_db_attr_handle_t centralAddrResolutionCharHandle;
 163:Generated_Source\PSoC6\pdl\middleware/ble/cy_ble_gap.h **** 
 164:Generated_Source\PSoC6\pdl\middleware/ble/cy_ble_gap.h ****     /** Handle of the GAPS Resolvable Private Address Only characteristic */
 165:Generated_Source\PSoC6\pdl\middleware/ble/cy_ble_gap.h ****     cy_ble_gatt_db_attr_handle_t resolvablePrivateAddressOnly;
 166:Generated_Source\PSoC6\pdl\middleware/ble/cy_ble_gap.h **** } cy_stc_ble_gaps_t;
 167:Generated_Source\PSoC6\pdl\middleware/ble/cy_ble_gap.h **** 
 168:Generated_Source\PSoC6\pdl\middleware/ble/cy_ble_gap.h **** /** GAP Service characteristics server's GATT DB handles structure type */
 169:Generated_Source\PSoC6\pdl\middleware/ble/cy_ble_gap.h **** typedef struct
 170:Generated_Source\PSoC6\pdl\middleware/ble/cy_ble_gap.h **** {
 171:Generated_Source\PSoC6\pdl\middleware/ble/cy_ble_gap.h ****     /** Handle of the GAPS Device Name Characteristic */
 172:Generated_Source\PSoC6\pdl\middleware/ble/cy_ble_gap.h ****     cy_ble_gatt_db_attr_handle_t deviceNameCharHandle;
 173:Generated_Source\PSoC6\pdl\middleware/ble/cy_ble_gap.h **** 
 174:Generated_Source\PSoC6\pdl\middleware/ble/cy_ble_gap.h ****     /** Handle of the GAPS Appearance Characteristic */
 175:Generated_Source\PSoC6\pdl\middleware/ble/cy_ble_gap.h ****     cy_ble_gatt_db_attr_handle_t appearanceCharHandle;
 176:Generated_Source\PSoC6\pdl\middleware/ble/cy_ble_gap.h **** 
 177:Generated_Source\PSoC6\pdl\middleware/ble/cy_ble_gap.h ****     /** Handle of the GAPS Peripheral Privacy Flag Parameters Characteristic */
 178:Generated_Source\PSoC6\pdl\middleware/ble/cy_ble_gap.h ****     cy_ble_gatt_db_attr_handle_t periphPrivacyCharHandle;
 179:Generated_Source\PSoC6\pdl\middleware/ble/cy_ble_gap.h **** 
 180:Generated_Source\PSoC6\pdl\middleware/ble/cy_ble_gap.h ****     /** Handle of the GAPS Reconnection Address Characteristic */
 181:Generated_Source\PSoC6\pdl\middleware/ble/cy_ble_gap.h ****     cy_ble_gatt_db_attr_handle_t reconnAddrCharHandle;
 182:Generated_Source\PSoC6\pdl\middleware/ble/cy_ble_gap.h **** 
 183:Generated_Source\PSoC6\pdl\middleware/ble/cy_ble_gap.h ****     /** Handle of the GAPS Peripheral Preferred Connection Parameters Characteristic */
 184:Generated_Source\PSoC6\pdl\middleware/ble/cy_ble_gap.h ****     cy_ble_gatt_db_attr_handle_t prefConnParamCharHandle;
 185:Generated_Source\PSoC6\pdl\middleware/ble/cy_ble_gap.h **** 
 186:Generated_Source\PSoC6\pdl\middleware/ble/cy_ble_gap.h ****     /** Handle of the GAPS Central Address Resolution characteristic */
 187:Generated_Source\PSoC6\pdl\middleware/ble/cy_ble_gap.h ****     cy_ble_gatt_db_attr_handle_t centralAddrResolutionCharHandle;
 188:Generated_Source\PSoC6\pdl\middleware/ble/cy_ble_gap.h **** 
 189:Generated_Source\PSoC6\pdl\middleware/ble/cy_ble_gap.h ****     /** Handle of the GAPS Resolvable Private Address Only characteristic */
 190:Generated_Source\PSoC6\pdl\middleware/ble/cy_ble_gap.h ****     cy_ble_gatt_db_attr_handle_t resolvablePrivateAddressOnly;
 191:Generated_Source\PSoC6\pdl\middleware/ble/cy_ble_gap.h **** }cy_stc_ble_gapc_t;
 192:Generated_Source\PSoC6\pdl\middleware/ble/cy_ble_gap.h **** 
 193:Generated_Source\PSoC6\pdl\middleware/ble/cy_ble_gap.h **** /* Stack mode defines */
ARM GAS  C:\Users\deathc\AppData\Local\Temp\cc1pP50L.s 			page 34


 194:Generated_Source\PSoC6\pdl\middleware/ble/cy_ble_gap.h **** 
 195:Generated_Source\PSoC6\pdl\middleware/ble/cy_ble_gap.h **** /** Advertisement SIG assigned numbers */
 196:Generated_Source\PSoC6\pdl\middleware/ble/cy_ble_gap.h **** typedef enum
 197:Generated_Source\PSoC6\pdl\middleware/ble/cy_ble_gap.h **** {
 198:Generated_Source\PSoC6\pdl\middleware/ble/cy_ble_gap.h ****     /** Flags */
 199:Generated_Source\PSoC6\pdl\middleware/ble/cy_ble_gap.h ****     CY_BLE_GAP_ADV_FLAGS = 0x01u,
 200:Generated_Source\PSoC6\pdl\middleware/ble/cy_ble_gap.h **** 
 201:Generated_Source\PSoC6\pdl\middleware/ble/cy_ble_gap.h ****     /** Incomplete List of 16-bit Service Class UUIDs */
 202:Generated_Source\PSoC6\pdl\middleware/ble/cy_ble_gap.h ****     CY_BLE_GAP_ADV_INCOMPL_16UUID,
 203:Generated_Source\PSoC6\pdl\middleware/ble/cy_ble_gap.h **** 
 204:Generated_Source\PSoC6\pdl\middleware/ble/cy_ble_gap.h ****     /** Complete List of 16-bit Service Class UUIDs */
 205:Generated_Source\PSoC6\pdl\middleware/ble/cy_ble_gap.h ****     CY_BLE_GAP_ADV_COMPL_16UUID,
 206:Generated_Source\PSoC6\pdl\middleware/ble/cy_ble_gap.h **** 
 207:Generated_Source\PSoC6\pdl\middleware/ble/cy_ble_gap.h ****     /** Incomplete List of 32-bit Service Class UUIDs */
 208:Generated_Source\PSoC6\pdl\middleware/ble/cy_ble_gap.h ****     CY_BLE_GAP_ADV_INCOMPL_32_UUID,
 209:Generated_Source\PSoC6\pdl\middleware/ble/cy_ble_gap.h **** 
 210:Generated_Source\PSoC6\pdl\middleware/ble/cy_ble_gap.h ****     /** Complete List of 32-bit Service Class UUIDs */
 211:Generated_Source\PSoC6\pdl\middleware/ble/cy_ble_gap.h ****     CY_BLE_GAP_ADV_COMPL_32_UUID,
 212:Generated_Source\PSoC6\pdl\middleware/ble/cy_ble_gap.h **** 
 213:Generated_Source\PSoC6\pdl\middleware/ble/cy_ble_gap.h ****     /** Incomplete List of 128-bit Service Class UUIDs */
 214:Generated_Source\PSoC6\pdl\middleware/ble/cy_ble_gap.h ****     CY_BLE_GAP_ADV_INCOMPL_128_UUID,
 215:Generated_Source\PSoC6\pdl\middleware/ble/cy_ble_gap.h **** 
 216:Generated_Source\PSoC6\pdl\middleware/ble/cy_ble_gap.h ****     /** Complete List of 128-bit Service Class UUIDs */
 217:Generated_Source\PSoC6\pdl\middleware/ble/cy_ble_gap.h ****     CY_BLE_GAP_ADV_COMPL_128_UUID,
 218:Generated_Source\PSoC6\pdl\middleware/ble/cy_ble_gap.h **** 
 219:Generated_Source\PSoC6\pdl\middleware/ble/cy_ble_gap.h ****     /** Shortened Local Name */
 220:Generated_Source\PSoC6\pdl\middleware/ble/cy_ble_gap.h ****     CY_BLE_GAP_ADV_SHORT_NAME,
 221:Generated_Source\PSoC6\pdl\middleware/ble/cy_ble_gap.h **** 
 222:Generated_Source\PSoC6\pdl\middleware/ble/cy_ble_gap.h ****     /** Complete Local Name */
 223:Generated_Source\PSoC6\pdl\middleware/ble/cy_ble_gap.h ****     CY_BLE_GAP_ADV_COMPL_NAME,
 224:Generated_Source\PSoC6\pdl\middleware/ble/cy_ble_gap.h **** 
 225:Generated_Source\PSoC6\pdl\middleware/ble/cy_ble_gap.h ****     /** Tx Power Level */
 226:Generated_Source\PSoC6\pdl\middleware/ble/cy_ble_gap.h ****     CY_BLE_GAP_ADV_TX_PWR_LVL,
 227:Generated_Source\PSoC6\pdl\middleware/ble/cy_ble_gap.h **** 
 228:Generated_Source\PSoC6\pdl\middleware/ble/cy_ble_gap.h ****     /** Class of Device */
 229:Generated_Source\PSoC6\pdl\middleware/ble/cy_ble_gap.h ****     CY_BLE_GAP_ADV_CLASS_OF_DEVICE = 0x0Du,
 230:Generated_Source\PSoC6\pdl\middleware/ble/cy_ble_gap.h **** 
 231:Generated_Source\PSoC6\pdl\middleware/ble/cy_ble_gap.h ****     /** Simple Pairing Hash C */
 232:Generated_Source\PSoC6\pdl\middleware/ble/cy_ble_gap.h ****     CY_BLE_GAP_ADV_SMPL_PAIR_HASH_C,
 233:Generated_Source\PSoC6\pdl\middleware/ble/cy_ble_gap.h **** 
 234:Generated_Source\PSoC6\pdl\middleware/ble/cy_ble_gap.h ****     /** Simple Pairing Randomizer R */
 235:Generated_Source\PSoC6\pdl\middleware/ble/cy_ble_gap.h ****     CY_BLE_GAP_ADV_SMPL_PAIR_RANDOM_R,
 236:Generated_Source\PSoC6\pdl\middleware/ble/cy_ble_gap.h **** 
 237:Generated_Source\PSoC6\pdl\middleware/ble/cy_ble_gap.h ****     /** Device ID*/
 238:Generated_Source\PSoC6\pdl\middleware/ble/cy_ble_gap.h ****     CY_BLE_GAP_ADV_DEVICE_ID,
 239:Generated_Source\PSoC6\pdl\middleware/ble/cy_ble_gap.h **** 
 240:Generated_Source\PSoC6\pdl\middleware/ble/cy_ble_gap.h ****     /** Security Manager TK Value */
 241:Generated_Source\PSoC6\pdl\middleware/ble/cy_ble_gap.h ****     CY_BLE_GAP_ADV_SCRT_MNGR_TK_VAL = 0x10u,
 242:Generated_Source\PSoC6\pdl\middleware/ble/cy_ble_gap.h **** 
 243:Generated_Source\PSoC6\pdl\middleware/ble/cy_ble_gap.h ****     /** Security Manager Out of Band Flags */
 244:Generated_Source\PSoC6\pdl\middleware/ble/cy_ble_gap.h ****     CY_BLE_GAP_ADV_SCRT_MNGR_OOB_FLAGS,
 245:Generated_Source\PSoC6\pdl\middleware/ble/cy_ble_gap.h **** 
 246:Generated_Source\PSoC6\pdl\middleware/ble/cy_ble_gap.h ****     /** Slave Connection Interval Range */
 247:Generated_Source\PSoC6\pdl\middleware/ble/cy_ble_gap.h ****     CY_BLE_GAP_ADV_SLAVE_CONN_INTRV_RANGE,
 248:Generated_Source\PSoC6\pdl\middleware/ble/cy_ble_gap.h **** 
 249:Generated_Source\PSoC6\pdl\middleware/ble/cy_ble_gap.h ****     /** List of 16-bit Service Solicitation UUIDs */
 250:Generated_Source\PSoC6\pdl\middleware/ble/cy_ble_gap.h ****     CY_BLE_GAP_ADV_SOLICIT_16UUID = 0x14u,
ARM GAS  C:\Users\deathc\AppData\Local\Temp\cc1pP50L.s 			page 35


 251:Generated_Source\PSoC6\pdl\middleware/ble/cy_ble_gap.h **** 
 252:Generated_Source\PSoC6\pdl\middleware/ble/cy_ble_gap.h ****     /** List of 128-bit Service Solicitation UUIDs */
 253:Generated_Source\PSoC6\pdl\middleware/ble/cy_ble_gap.h ****     CY_BLE_GAP_ADV_SOLICIT_128UUID,
 254:Generated_Source\PSoC6\pdl\middleware/ble/cy_ble_gap.h **** 
 255:Generated_Source\PSoC6\pdl\middleware/ble/cy_ble_gap.h ****     /** Service Data - 16-bit UUID */
 256:Generated_Source\PSoC6\pdl\middleware/ble/cy_ble_gap.h ****     CY_BLE_GAP_ADV_SRVC_DATA_16UUID,
 257:Generated_Source\PSoC6\pdl\middleware/ble/cy_ble_gap.h **** 
 258:Generated_Source\PSoC6\pdl\middleware/ble/cy_ble_gap.h ****     /** Public Target Address */
 259:Generated_Source\PSoC6\pdl\middleware/ble/cy_ble_gap.h ****     CY_BLE_GAP_ADV_PUBLIC_TARGET_ADDR,
 260:Generated_Source\PSoC6\pdl\middleware/ble/cy_ble_gap.h **** 
 261:Generated_Source\PSoC6\pdl\middleware/ble/cy_ble_gap.h ****     /** Random Target Address */
 262:Generated_Source\PSoC6\pdl\middleware/ble/cy_ble_gap.h ****     CY_BLE_GAP_ADV_RANDOM_TARGET_ADDR,
 263:Generated_Source\PSoC6\pdl\middleware/ble/cy_ble_gap.h **** 
 264:Generated_Source\PSoC6\pdl\middleware/ble/cy_ble_gap.h ****     /** Appearance */
 265:Generated_Source\PSoC6\pdl\middleware/ble/cy_ble_gap.h ****     CY_BLE_GAP_ADV_APPEARANCE,
 266:Generated_Source\PSoC6\pdl\middleware/ble/cy_ble_gap.h **** 
 267:Generated_Source\PSoC6\pdl\middleware/ble/cy_ble_gap.h ****     /** Advertising Interval */
 268:Generated_Source\PSoC6\pdl\middleware/ble/cy_ble_gap.h ****     CY_BLE_GAP_ADV_ADVERT_INTERVAL,
 269:Generated_Source\PSoC6\pdl\middleware/ble/cy_ble_gap.h **** 
 270:Generated_Source\PSoC6\pdl\middleware/ble/cy_ble_gap.h ****     /** LE Bluetooth Device Address */
 271:Generated_Source\PSoC6\pdl\middleware/ble/cy_ble_gap.h ****     CY_BLE_GAP_ADV_LE_BT_DEVICE_ADDR,
 272:Generated_Source\PSoC6\pdl\middleware/ble/cy_ble_gap.h **** 
 273:Generated_Source\PSoC6\pdl\middleware/ble/cy_ble_gap.h ****     /** LE Role */
 274:Generated_Source\PSoC6\pdl\middleware/ble/cy_ble_gap.h ****     CY_BLE_GAP_ADV_LE_ROLE,
 275:Generated_Source\PSoC6\pdl\middleware/ble/cy_ble_gap.h **** 
 276:Generated_Source\PSoC6\pdl\middleware/ble/cy_ble_gap.h ****     /** Simple Pairing Hash C-256 */
 277:Generated_Source\PSoC6\pdl\middleware/ble/cy_ble_gap.h ****     CY_BLE_GAP_ADV_SMPL_PAIR_HASH_C256,
 278:Generated_Source\PSoC6\pdl\middleware/ble/cy_ble_gap.h **** 
 279:Generated_Source\PSoC6\pdl\middleware/ble/cy_ble_gap.h ****     /** Simple Pairing Randomizer R-256 */
 280:Generated_Source\PSoC6\pdl\middleware/ble/cy_ble_gap.h ****     CY_BLE_GAP_ADV_SMPL_PAIR_RANDOM_R256,
 281:Generated_Source\PSoC6\pdl\middleware/ble/cy_ble_gap.h **** 
 282:Generated_Source\PSoC6\pdl\middleware/ble/cy_ble_gap.h ****     /** List of 32-bit Service Solicitation UUIDs */
 283:Generated_Source\PSoC6\pdl\middleware/ble/cy_ble_gap.h ****     CY_BLE_GAP_ADV_SOLICIT_32UUID,
 284:Generated_Source\PSoC6\pdl\middleware/ble/cy_ble_gap.h **** 
 285:Generated_Source\PSoC6\pdl\middleware/ble/cy_ble_gap.h ****     /** Service Data - 32-bit UUID */
 286:Generated_Source\PSoC6\pdl\middleware/ble/cy_ble_gap.h ****     CY_BLE_GAP_ADV_SRVC_DATA_32UUID,
 287:Generated_Source\PSoC6\pdl\middleware/ble/cy_ble_gap.h **** 
 288:Generated_Source\PSoC6\pdl\middleware/ble/cy_ble_gap.h ****     /** Service Data - 128-bit UUID */
 289:Generated_Source\PSoC6\pdl\middleware/ble/cy_ble_gap.h ****     CY_BLE_GAP_ADV_SRVC_DATA_128UUID,
 290:Generated_Source\PSoC6\pdl\middleware/ble/cy_ble_gap.h **** 
 291:Generated_Source\PSoC6\pdl\middleware/ble/cy_ble_gap.h ****     /** 3D Information Data */
 292:Generated_Source\PSoC6\pdl\middleware/ble/cy_ble_gap.h ****     CY_BLE_GAP_ADV_3D_INFO_DATA = 0x3D,
 293:Generated_Source\PSoC6\pdl\middleware/ble/cy_ble_gap.h **** 
 294:Generated_Source\PSoC6\pdl\middleware/ble/cy_ble_gap.h ****     /** Manufacturer Specific Data */
 295:Generated_Source\PSoC6\pdl\middleware/ble/cy_ble_gap.h ****     CY_BLE_GAP_ADV_MANUFACTURER_SPECIFIC_DATA = 0xFF
 296:Generated_Source\PSoC6\pdl\middleware/ble/cy_ble_gap.h **** }cy_en_ble_gap_adv_assign_numbers_t;
 297:Generated_Source\PSoC6\pdl\middleware/ble/cy_ble_gap.h **** 
 298:Generated_Source\PSoC6\pdl\middleware/ble/cy_ble_gap.h **** /** GAPP advertising configuration parameters structure */
 299:Generated_Source\PSoC6\pdl\middleware/ble/cy_ble_gap.h **** typedef struct
 300:Generated_Source\PSoC6\pdl\middleware/ble/cy_ble_gap.h **** {
 301:Generated_Source\PSoC6\pdl\middleware/ble/cy_ble_gap.h ****     /** The minimum interval for fast advertising the data and establishing the LE Connection */
 302:Generated_Source\PSoC6\pdl\middleware/ble/cy_ble_gap.h ****     uint16_t fastAdvIntervalMin;
 303:Generated_Source\PSoC6\pdl\middleware/ble/cy_ble_gap.h **** 
 304:Generated_Source\PSoC6\pdl\middleware/ble/cy_ble_gap.h ****     /** The maximum interval for fast advertising the data and establishing the LE Connection */
 305:Generated_Source\PSoC6\pdl\middleware/ble/cy_ble_gap.h ****     uint16_t fastAdvIntervalMax;
 306:Generated_Source\PSoC6\pdl\middleware/ble/cy_ble_gap.h **** 
 307:Generated_Source\PSoC6\pdl\middleware/ble/cy_ble_gap.h ****     /** The timeout value of  fast advertising with fast advertising interval parameters */
ARM GAS  C:\Users\deathc\AppData\Local\Temp\cc1pP50L.s 			page 36


 308:Generated_Source\PSoC6\pdl\middleware/ble/cy_ble_gap.h ****     uint16_t fastAdvTimeOut;
 309:Generated_Source\PSoC6\pdl\middleware/ble/cy_ble_gap.h **** 
 310:Generated_Source\PSoC6\pdl\middleware/ble/cy_ble_gap.h ****     /** Slow advertising enable */
 311:Generated_Source\PSoC6\pdl\middleware/ble/cy_ble_gap.h ****     uint8_t  slowAdvEnable;
 312:Generated_Source\PSoC6\pdl\middleware/ble/cy_ble_gap.h **** 
 313:Generated_Source\PSoC6\pdl\middleware/ble/cy_ble_gap.h ****     /** The minimum interval for slow advertising the data and establishing the LE Connection */
 314:Generated_Source\PSoC6\pdl\middleware/ble/cy_ble_gap.h ****     uint16_t slowAdvIntervalMin;
 315:Generated_Source\PSoC6\pdl\middleware/ble/cy_ble_gap.h **** 
 316:Generated_Source\PSoC6\pdl\middleware/ble/cy_ble_gap.h ****     /** The maximum interval for slow  advertising the data and establishing the LE Connection */
 317:Generated_Source\PSoC6\pdl\middleware/ble/cy_ble_gap.h ****     uint16_t slowAdvIntervalMax;
 318:Generated_Source\PSoC6\pdl\middleware/ble/cy_ble_gap.h **** 
 319:Generated_Source\PSoC6\pdl\middleware/ble/cy_ble_gap.h ****     /** The timeout value of slow advertising with slow advertising interval parameters */
 320:Generated_Source\PSoC6\pdl\middleware/ble/cy_ble_gap.h ****     uint16_t slowAdvTimeOut;
 321:Generated_Source\PSoC6\pdl\middleware/ble/cy_ble_gap.h **** }cy_stc_ble_gapp_adv_params_t;
 322:Generated_Source\PSoC6\pdl\middleware/ble/cy_ble_gap.h **** 
 323:Generated_Source\PSoC6\pdl\middleware/ble/cy_ble_gap.h **** /** GAPC advertising configuration parameters structure */
 324:Generated_Source\PSoC6\pdl\middleware/ble/cy_ble_gap.h **** typedef struct
 325:Generated_Source\PSoC6\pdl\middleware/ble/cy_ble_gap.h **** {
 326:Generated_Source\PSoC6\pdl\middleware/ble/cy_ble_gap.h ****     /** The scan interval when operating in Fast connection */
 327:Generated_Source\PSoC6\pdl\middleware/ble/cy_ble_gap.h ****     uint16_t fastScanInterval;
 328:Generated_Source\PSoC6\pdl\middleware/ble/cy_ble_gap.h **** 
 329:Generated_Source\PSoC6\pdl\middleware/ble/cy_ble_gap.h ****     /** Defines the scan window when operating in Fast connection */
 330:Generated_Source\PSoC6\pdl\middleware/ble/cy_ble_gap.h ****     uint16_t fastScanWindow;
 331:Generated_Source\PSoC6\pdl\middleware/ble/cy_ble_gap.h **** 
 332:Generated_Source\PSoC6\pdl\middleware/ble/cy_ble_gap.h ****     /** The timeout value of scanning with fast scan parameters */
 333:Generated_Source\PSoC6\pdl\middleware/ble/cy_ble_gap.h ****     uint16_t fastScanTimeOut;
 334:Generated_Source\PSoC6\pdl\middleware/ble/cy_ble_gap.h **** 
 335:Generated_Source\PSoC6\pdl\middleware/ble/cy_ble_gap.h ****     /** Slow scan enable/disable */
 336:Generated_Source\PSoC6\pdl\middleware/ble/cy_ble_gap.h ****     uint8_t  slowScanEnabled;
 337:Generated_Source\PSoC6\pdl\middleware/ble/cy_ble_gap.h **** 
 338:Generated_Source\PSoC6\pdl\middleware/ble/cy_ble_gap.h ****     /** The scan interval when operating in Slow connection */
 339:Generated_Source\PSoC6\pdl\middleware/ble/cy_ble_gap.h ****     uint16_t slowScanInterval;
 340:Generated_Source\PSoC6\pdl\middleware/ble/cy_ble_gap.h **** 
 341:Generated_Source\PSoC6\pdl\middleware/ble/cy_ble_gap.h ****     /** Defines the scan window when operating in Slow connection */
 342:Generated_Source\PSoC6\pdl\middleware/ble/cy_ble_gap.h ****     uint16_t slowScanWindow;
 343:Generated_Source\PSoC6\pdl\middleware/ble/cy_ble_gap.h **** 
 344:Generated_Source\PSoC6\pdl\middleware/ble/cy_ble_gap.h ****     /** The timeout value of scanning with Slow scan parameters */
 345:Generated_Source\PSoC6\pdl\middleware/ble/cy_ble_gap.h ****     uint16_t slowScanTimeOut;
 346:Generated_Source\PSoC6\pdl\middleware/ble/cy_ble_gap.h **** 
 347:Generated_Source\PSoC6\pdl\middleware/ble/cy_ble_gap.h ****     /** The minimum permissible connection time value to be used during a connection event */
 348:Generated_Source\PSoC6\pdl\middleware/ble/cy_ble_gap.h ****     uint16_t gapcConnectionIntervalMin;
 349:Generated_Source\PSoC6\pdl\middleware/ble/cy_ble_gap.h **** 
 350:Generated_Source\PSoC6\pdl\middleware/ble/cy_ble_gap.h ****     /** The maximum permissible connection time value to be used during a connection event */
 351:Generated_Source\PSoC6\pdl\middleware/ble/cy_ble_gap.h ****     uint16_t gapcConnectionIntervalMax;
 352:Generated_Source\PSoC6\pdl\middleware/ble/cy_ble_gap.h **** 
 353:Generated_Source\PSoC6\pdl\middleware/ble/cy_ble_gap.h ****     /** Defines the maximum time between two received Data Packet PDUs before
 354:Generated_Source\PSoC6\pdl\middleware/ble/cy_ble_gap.h ****      *  the connection is considered lost */
 355:Generated_Source\PSoC6\pdl\middleware/ble/cy_ble_gap.h ****     uint16_t gapcConnectionSlaveLatency;
 356:Generated_Source\PSoC6\pdl\middleware/ble/cy_ble_gap.h **** 
 357:Generated_Source\PSoC6\pdl\middleware/ble/cy_ble_gap.h ****     /** Defines the LE link supervision timeout interval */
 358:Generated_Source\PSoC6\pdl\middleware/ble/cy_ble_gap.h ****     uint16_t gapcConnectionTimeOut;
 359:Generated_Source\PSoC6\pdl\middleware/ble/cy_ble_gap.h **** }cy_stc_ble_gapc_scan_params_t;
 360:Generated_Source\PSoC6\pdl\middleware/ble/cy_ble_gap.h **** 
 361:Generated_Source\PSoC6\pdl\middleware/ble/cy_ble_gap.h **** /** Store BLE Application Data parameter into flash */
 362:Generated_Source\PSoC6\pdl\middleware/ble/cy_ble_gap.h **** typedef struct
 363:Generated_Source\PSoC6\pdl\middleware/ble/cy_ble_gap.h **** {
 364:Generated_Source\PSoC6\pdl\middleware/ble/cy_ble_gap.h ****     /** Source buffer */
ARM GAS  C:\Users\deathc\AppData\Local\Temp\cc1pP50L.s 			page 37


 365:Generated_Source\PSoC6\pdl\middleware/ble/cy_ble_gap.h ****     const uint8_t *srcBuff;
 366:Generated_Source\PSoC6\pdl\middleware/ble/cy_ble_gap.h **** 
 367:Generated_Source\PSoC6\pdl\middleware/ble/cy_ble_gap.h ****     /** Destination buffer */
 368:Generated_Source\PSoC6\pdl\middleware/ble/cy_ble_gap.h ****     const uint8_t *destAddr;
 369:Generated_Source\PSoC6\pdl\middleware/ble/cy_ble_gap.h **** 
 370:Generated_Source\PSoC6\pdl\middleware/ble/cy_ble_gap.h ****     /** Source buffer length */
 371:Generated_Source\PSoC6\pdl\middleware/ble/cy_ble_gap.h ****     uint32_t      buffLen;
 372:Generated_Source\PSoC6\pdl\middleware/ble/cy_ble_gap.h ****     
 373:Generated_Source\PSoC6\pdl\middleware/ble/cy_ble_gap.h ****     /** Write mode: blocking (default) / non-blocking */
 374:Generated_Source\PSoC6\pdl\middleware/ble/cy_ble_gap.h ****     uint32_t      writeMode;
 375:Generated_Source\PSoC6\pdl\middleware/ble/cy_ble_gap.h ****     
 376:Generated_Source\PSoC6\pdl\middleware/ble/cy_ble_gap.h **** } cy_stc_ble_app_flash_param_t;
 377:Generated_Source\PSoC6\pdl\middleware/ble/cy_ble_gap.h **** 
 378:Generated_Source\PSoC6\pdl\middleware/ble/cy_ble_gap.h **** /** @} group_ble_common_api_gap_definitions */
 379:Generated_Source\PSoC6\pdl\middleware/ble/cy_ble_gap.h ****  
 380:Generated_Source\PSoC6\pdl\middleware/ble/cy_ble_gap.h **** /***************************************
 381:Generated_Source\PSoC6\pdl\middleware/ble/cy_ble_gap.h **** * API Constants
 382:Generated_Source\PSoC6\pdl\middleware/ble/cy_ble_gap.h **** ***************************************/
 383:Generated_Source\PSoC6\pdl\middleware/ble/cy_ble_gap.h **** #define CY_BLE_AD_TYPE_MORE16UUID                  (0x02u)
 384:Generated_Source\PSoC6\pdl\middleware/ble/cy_ble_gap.h **** #define CY_BLE_AD_TYPE_CMPL16UUID                  (0x03u)
 385:Generated_Source\PSoC6\pdl\middleware/ble/cy_ble_gap.h **** #define CY_BLE_AD_TYPE_MORE32UUID                  (0x04u)
 386:Generated_Source\PSoC6\pdl\middleware/ble/cy_ble_gap.h **** #define CY_BLE_AD_TYPE_CMPL32UUID                  (0x05u)
 387:Generated_Source\PSoC6\pdl\middleware/ble/cy_ble_gap.h **** #define CY_BLE_AD_TYPE_MORE128UUID                 (0x06u)
 388:Generated_Source\PSoC6\pdl\middleware/ble/cy_ble_gap.h **** #define CY_BLE_AD_TYPE_CMPL128UUID                 (0x07u)
 389:Generated_Source\PSoC6\pdl\middleware/ble/cy_ble_gap.h **** 
 390:Generated_Source\PSoC6\pdl\middleware/ble/cy_ble_gap.h **** #define CY_BLE_AD_TYPE_SERVICE_DATA                (0x16u)
 391:Generated_Source\PSoC6\pdl\middleware/ble/cy_ble_gap.h **** #define CY_BLE_AD_SERVICE_DATA_OVERHEAD            (0x03u)
 392:Generated_Source\PSoC6\pdl\middleware/ble/cy_ble_gap.h **** 
 393:Generated_Source\PSoC6\pdl\middleware/ble/cy_ble_gap.h **** #define CY_BLE_DISCOVERY_IDLE                      (0x00u)
 394:Generated_Source\PSoC6\pdl\middleware/ble/cy_ble_gap.h **** #define CY_BLE_DISCOVERY_SERVICE                   (0x01u)
 395:Generated_Source\PSoC6\pdl\middleware/ble/cy_ble_gap.h **** #define CY_BLE_DISCOVERY_CHAR                      (0x02u)
 396:Generated_Source\PSoC6\pdl\middleware/ble/cy_ble_gap.h **** #define CY_BLE_DISCOVERY_DESCR                     (0x03u)
 397:Generated_Source\PSoC6\pdl\middleware/ble/cy_ble_gap.h **** #define CY_BLE_DISCOVERY_DONE                      (0x04u)
 398:Generated_Source\PSoC6\pdl\middleware/ble/cy_ble_gap.h **** 
 399:Generated_Source\PSoC6\pdl\middleware/ble/cy_ble_gap.h **** /* Cy_BLE_NextCharDscrDiscovery parameters */
 400:Generated_Source\PSoC6\pdl\middleware/ble/cy_ble_gap.h **** #define CY_BLE_DISCOVERY_INIT                      (0x00u)
 401:Generated_Source\PSoC6\pdl\middleware/ble/cy_ble_gap.h **** #define CY_BLE_DISCOVERY_CONTINUE                  (0x01u)
 402:Generated_Source\PSoC6\pdl\middleware/ble/cy_ble_gap.h **** 
 403:Generated_Source\PSoC6\pdl\middleware/ble/cy_ble_gap.h **** #define CY_BLE_SFLASH_DIE_X_MASK                   (0x3Fu)
 404:Generated_Source\PSoC6\pdl\middleware/ble/cy_ble_gap.h **** #define CY_BLE_SFLASH_DIE_X_BITS                   (6u)
 405:Generated_Source\PSoC6\pdl\middleware/ble/cy_ble_gap.h **** #define CY_BLE_SFLASH_DIE_Y_MASK                   (0x3Fu)
 406:Generated_Source\PSoC6\pdl\middleware/ble/cy_ble_gap.h **** #define CY_BLE_SFLASH_DIE_Y_BITS                   (6u)
 407:Generated_Source\PSoC6\pdl\middleware/ble/cy_ble_gap.h **** #define CY_BLE_SFLASH_DIE_XY_BITS                  (CY_BLE_SFLASH_DIE_X_BITS + CY_BLE_SFLASH_DIE_Y_
 408:Generated_Source\PSoC6\pdl\middleware/ble/cy_ble_gap.h **** #define CY_BLE_SFLASH_DIE_WAFER_MASK               (0x1Fu)
 409:Generated_Source\PSoC6\pdl\middleware/ble/cy_ble_gap.h **** #define CY_BLE_SFLASH_DIE_WAFER_BITS               (5u)
 410:Generated_Source\PSoC6\pdl\middleware/ble/cy_ble_gap.h **** #define CY_BLE_SFLASH_DIE_XYWAFER_BITS             (CY_BLE_SFLASH_DIE_XY_BITS + CY_BLE_SFLASH_DIE_W
 411:Generated_Source\PSoC6\pdl\middleware/ble/cy_ble_gap.h **** #define CY_BLE_SFLASH_DIE_LOT_MASK                 (0x7Fu)
 412:Generated_Source\PSoC6\pdl\middleware/ble/cy_ble_gap.h **** #define CY_BLE_SFLASH_DIE_LOT_BITS                 (7u)
 413:Generated_Source\PSoC6\pdl\middleware/ble/cy_ble_gap.h **** 
 414:Generated_Source\PSoC6\pdl\middleware/ble/cy_ble_gap.h **** /* Device address stored by user in ROW4 of the SFLASH */
 415:Generated_Source\PSoC6\pdl\middleware/ble/cy_ble_gap.h **** #define CY_BLE_SFLASH_DEVICE_ADDRESS_PTR           ((cy_stc_ble_gap_bd_addr_t*)(SFLASH->BLE_DEVICE_
 416:Generated_Source\PSoC6\pdl\middleware/ble/cy_ble_gap.h **** #define CY_BLE_AD_STRUCTURE_MAX_LENGTH             (31u)
 417:Generated_Source\PSoC6\pdl\middleware/ble/cy_ble_gap.h **** 
 418:Generated_Source\PSoC6\pdl\middleware/ble/cy_ble_gap.h **** /* AD types for complete, shortened local name and device address */
 419:Generated_Source\PSoC6\pdl\middleware/ble/cy_ble_gap.h **** #define CY_BLE_SHORT_LOCAL_NAME                    (0x08u)  /**< Shortened Local Name */
 420:Generated_Source\PSoC6\pdl\middleware/ble/cy_ble_gap.h **** #define CY_BLE_COMPLETE_LOCAL_NAME                 (0x09u)  /**< Complete Local Name */
 421:Generated_Source\PSoC6\pdl\middleware/ble/cy_ble_gap.h **** #define CY_BLE_ADV_DEVICE_ADDR                     (0x1Bu)  /**< LE Bluetooth Device Address */
ARM GAS  C:\Users\deathc\AppData\Local\Temp\cc1pP50L.s 			page 38


 422:Generated_Source\PSoC6\pdl\middleware/ble/cy_ble_gap.h **** 
 423:Generated_Source\PSoC6\pdl\middleware/ble/cy_ble_gap.h **** #define CY_BLE_ADVERTISING_FAST                    (0x00u)
 424:Generated_Source\PSoC6\pdl\middleware/ble/cy_ble_gap.h **** #define CY_BLE_ADVERTISING_SLOW                    (0x01u)
 425:Generated_Source\PSoC6\pdl\middleware/ble/cy_ble_gap.h **** #define CY_BLE_ADVERTISING_CUSTOM                  (0x02u)
 426:Generated_Source\PSoC6\pdl\middleware/ble/cy_ble_gap.h **** 
 427:Generated_Source\PSoC6\pdl\middleware/ble/cy_ble_gap.h **** #define CY_BLE_SCANNING_FAST                       (0x00u)
 428:Generated_Source\PSoC6\pdl\middleware/ble/cy_ble_gap.h **** #define CY_BLE_SCANNING_SLOW                       (0x01u)
 429:Generated_Source\PSoC6\pdl\middleware/ble/cy_ble_gap.h **** #define CY_BLE_SCANNING_CUSTOM                     (0x02u)
 430:Generated_Source\PSoC6\pdl\middleware/ble/cy_ble_gap.h **** 
 431:Generated_Source\PSoC6\pdl\middleware/ble/cy_ble_gap.h **** #define CY_BLE_PENDING_STACK_FLASH_WRITE_BIT       (0x01u)
 432:Generated_Source\PSoC6\pdl\middleware/ble/cy_ble_gap.h **** #define CY_BLE_PENDING_CCCD_FLASH_WRITE_BIT        (0x02u)
 433:Generated_Source\PSoC6\pdl\middleware/ble/cy_ble_gap.h **** #define CY_BLE_PENDING_CCCD_FLASH_CLEAR_BIT        (0x04u)
 434:Generated_Source\PSoC6\pdl\middleware/ble/cy_ble_gap.h **** #define CY_BLE_PENDING_CCCD_FLASH_CLEAR_ALL_BIT    (0x08u)
 435:Generated_Source\PSoC6\pdl\middleware/ble/cy_ble_gap.h **** #define CY_BLE_PENDING_CCCD_FLASH_CLEAR_MASK \
 436:Generated_Source\PSoC6\pdl\middleware/ble/cy_ble_gap.h ****     (CY_BLE_PENDING_CCCD_FLASH_CLEAR_BIT | CY_BLE_PENDING_CCCD_FLASH_CLEAR_ALL_BIT)
 437:Generated_Source\PSoC6\pdl\middleware/ble/cy_ble_gap.h ****   
 438:Generated_Source\PSoC6\pdl\middleware/ble/cy_ble_gap.h **** /**
 439:Generated_Source\PSoC6\pdl\middleware/ble/cy_ble_gap.h ****  * \addtogroup group_ble_common_api_macros
 440:Generated_Source\PSoC6\pdl\middleware/ble/cy_ble_gap.h ****  * @{
 441:Generated_Source\PSoC6\pdl\middleware/ble/cy_ble_gap.h ****  */
 442:Generated_Source\PSoC6\pdl\middleware/ble/cy_ble_gap.h ****  
 443:Generated_Source\PSoC6\pdl\middleware/ble/cy_ble_gap.h **** /* GAP Advertisement Flags */
 444:Generated_Source\PSoC6\pdl\middleware/ble/cy_ble_gap.h **** #define CY_BLE_GAP_ADV_FLAG_LE_LIMITED_DISC_MODE        (0x01u)     /**< LE Limited Discoverable Mo
 445:Generated_Source\PSoC6\pdl\middleware/ble/cy_ble_gap.h **** #define CY_BLE_GAP_ADV_FLAG_LE_GENERAL_DISC_MODE        (0x02u)     /**< LE General Discoverable Mo
 446:Generated_Source\PSoC6\pdl\middleware/ble/cy_ble_gap.h **** #define CY_BLE_GAP_ADV_FLAG_BR_EDR_NOT_SUPPORTED        (0x04u)     /**< BR/EDR not supported. */
 447:Generated_Source\PSoC6\pdl\middleware/ble/cy_ble_gap.h **** #define CY_BLE_GAP_ADV_FLAG_LE_BR_EDR_CONTROLLER        (0x08u)     /**< Simultaneous LE and BR/EDR
 448:Generated_Source\PSoC6\pdl\middleware/ble/cy_ble_gap.h **** #define CY_BLE_GAP_ADV_FLAG_LE_BR_EDR_HOST              (0x10u)     /**< Simultaneous LE and BR/EDR
 449:Generated_Source\PSoC6\pdl\middleware/ble/cy_ble_gap.h **** #define CY_BLE_GAP_ADV_FLAGS_PACKET_LENGTH              (0x02u)     /**< Length of flags in an adve
 450:Generated_Source\PSoC6\pdl\middleware/ble/cy_ble_gap.h **** 
 451:Generated_Source\PSoC6\pdl\middleware/ble/cy_ble_gap.h **** /* GAP Advertising interval min and max */
 452:Generated_Source\PSoC6\pdl\middleware/ble/cy_ble_gap.h **** #define CY_BLE_GAP_ADV_ADVERT_INTERVAL_MIN              (0x0020u)   /**< Minimum Advertising interv
 453:Generated_Source\PSoC6\pdl\middleware/ble/cy_ble_gap.h ****                                                                      *   i.e. 20 ms. */
 454:Generated_Source\PSoC6\pdl\middleware/ble/cy_ble_gap.h **** #define CY_BLE_GAP_ADV_ADVERT_INTERVAL_NONCON_MIN       (0x00A0u)   /**< Minimum Advertising interv
 455:Generated_Source\PSoC6\pdl\middleware/ble/cy_ble_gap.h ****                                                                      *   for non connectable mode, 
 456:Generated_Source\PSoC6\pdl\middleware/ble/cy_ble_gap.h **** #define CY_BLE_GAP_ADV_ADVERT_INTERVAL_MAX              (0x4000u)   /**< Maximum Advertising interv
 457:Generated_Source\PSoC6\pdl\middleware/ble/cy_ble_gap.h ****                                                                      *   i.e. 10.24 s. */
 458:Generated_Source\PSoC6\pdl\middleware/ble/cy_ble_gap.h **** #define CY_BLE_GAP_ADV_ADVERT_INTERVAL_PACKET_LENGTH    (0x03u)     /**< Length of the Advertising 
 459:Generated_Source\PSoC6\pdl\middleware/ble/cy_ble_gap.h ****                                                                      *   an advertisement packet */
 460:Generated_Source\PSoC6\pdl\middleware/ble/cy_ble_gap.h **** #define CY_BLE_GAPC_CONNECTING_TIMEOUT                  (30u)       /**< Seconds */
 461:Generated_Source\PSoC6\pdl\middleware/ble/cy_ble_gap.h **** #define CY_BLE_INVALID_CONN_HANDLE_VALUE                (0xFFu)     /**< Invalid Connection Handle 
 462:Generated_Source\PSoC6\pdl\middleware/ble/cy_ble_gap.h **** 
 463:Generated_Source\PSoC6\pdl\middleware/ble/cy_ble_gap.h **** /* Write mode for Cy_BLE_StoreAppData */
 464:Generated_Source\PSoC6\pdl\middleware/ble/cy_ble_gap.h **** #define CY_BLE_STORE_DATA_MODE_BLOCKING                 (0x0u)      /**< Blocking write */
 465:Generated_Source\PSoC6\pdl\middleware/ble/cy_ble_gap.h **** #define CY_BLE_STORE_DATA_MODE_NON_BLOCKING             (0x1u)      /**< Non-blocking write */
 466:Generated_Source\PSoC6\pdl\middleware/ble/cy_ble_gap.h **** 
 467:Generated_Source\PSoC6\pdl\middleware/ble/cy_ble_gap.h **** /** @} group_ble_common_api_macros */
 468:Generated_Source\PSoC6\pdl\middleware/ble/cy_ble_gap.h **** 
 469:Generated_Source\PSoC6\pdl\middleware/ble/cy_ble_gap.h **** /***************************************
 470:Generated_Source\PSoC6\pdl\middleware/ble/cy_ble_gap.h **** * Private Function Prototypes
 471:Generated_Source\PSoC6\pdl\middleware/ble/cy_ble_gap.h **** ***************************************/
 472:Generated_Source\PSoC6\pdl\middleware/ble/cy_ble_gap.h **** void Cy_BLE_ServiceInit(void);
 473:Generated_Source\PSoC6\pdl\middleware/ble/cy_ble_gap.h **** uint32_t Cy_BLE_GetDiscoveryIdx(cy_stc_ble_conn_handle_t connHandle);
 474:Generated_Source\PSoC6\pdl\middleware/ble/cy_ble_gap.h **** 
 475:Generated_Source\PSoC6\pdl\middleware/ble/cy_ble_gap.h **** /***************************************
 476:Generated_Source\PSoC6\pdl\middleware/ble/cy_ble_gap.h **** * Function Prototypes
 477:Generated_Source\PSoC6\pdl\middleware/ble/cy_ble_gap.h **** ***************************************/
 478:Generated_Source\PSoC6\pdl\middleware/ble/cy_ble_gap.h **** /**
ARM GAS  C:\Users\deathc\AppData\Local\Temp\cc1pP50L.s 			page 39


 479:Generated_Source\PSoC6\pdl\middleware/ble/cy_ble_gap.h ****  * \addtogroup group_ble_common_api_functions
 480:Generated_Source\PSoC6\pdl\middleware/ble/cy_ble_gap.h ****  * @{
 481:Generated_Source\PSoC6\pdl\middleware/ble/cy_ble_gap.h ****  */
 482:Generated_Source\PSoC6\pdl\middleware/ble/cy_ble_gap.h **** 
 483:Generated_Source\PSoC6\pdl\middleware/ble/cy_ble_gap.h **** cy_en_ble_api_result_t Cy_BLE_StoreAppData(const cy_stc_ble_app_flash_param_t *param);
 484:Generated_Source\PSoC6\pdl\middleware/ble/cy_ble_gap.h **** 
 485:Generated_Source\PSoC6\pdl\middleware/ble/cy_ble_gap.h **** #if ((CY_BLE_GAP_ROLE_PERIPHERAL || CY_BLE_GAP_ROLE_CENTRAL) && (CY_BLE_BONDING_REQUIREMENT == CY_B
 486:Generated_Source\PSoC6\pdl\middleware/ble/cy_ble_gap.h **** cy_en_ble_api_result_t Cy_BLE_StoreBondingData(void);
 487:Generated_Source\PSoC6\pdl\middleware/ble/cy_ble_gap.h **** cy_en_ble_api_result_t Cy_BLE_GAP_RemoveBondedDevice(cy_stc_ble_gap_bd_addr_t* bdAddr);
 488:Generated_Source\PSoC6\pdl\middleware/ble/cy_ble_gap.h **** #endif /* (CY_BLE_GAP_ROLE_PERIPHERAL || CY_BLE_GAP_ROLE_CENTRAL) && (CY_BLE_BONDING_REQUIREMENT ==
 489:Generated_Source\PSoC6\pdl\middleware/ble/cy_ble_gap.h **** 
 490:Generated_Source\PSoC6\pdl\middleware/ble/cy_ble_gap.h **** #if (CY_BLE_GAP_ROLE_PERIPHERAL || CY_BLE_GAP_ROLE_CENTRAL)
 491:Generated_Source\PSoC6\pdl\middleware/ble/cy_ble_gap.h **** bool Cy_BLE_IsPeerConnected(uint8_t *bdAddr);
 492:Generated_Source\PSoC6\pdl\middleware/ble/cy_ble_gap.h **** bool Cy_BLE_IsDevicePaired(cy_stc_ble_conn_handle_t *connHandle);
 493:Generated_Source\PSoC6\pdl\middleware/ble/cy_ble_gap.h **** uint8_t Cy_BLE_GetDeviceRole(cy_stc_ble_conn_handle_t *connHandle);
 494:Generated_Source\PSoC6\pdl\middleware/ble/cy_ble_gap.h **** 
 495:Generated_Source\PSoC6\pdl\middleware/ble/cy_ble_gap.h **** cy_en_ble_api_result_t Cy_BLE_GetRssiPeer(uint8_t  bdHandle);
 496:Generated_Source\PSoC6\pdl\middleware/ble/cy_ble_gap.h **** #endif /* (CY_BLE_GAP_ROLE_PERIPHERAL || CY_BLE_GAP_ROLE_CENTRAL) */
 497:Generated_Source\PSoC6\pdl\middleware/ble/cy_ble_gap.h **** /** @} group_ble_common_api_functions */
 498:Generated_Source\PSoC6\pdl\middleware/ble/cy_ble_gap.h **** 
 499:Generated_Source\PSoC6\pdl\middleware/ble/cy_ble_gap.h **** /**
 500:Generated_Source\PSoC6\pdl\middleware/ble/cy_ble_gap.h ****  * \addtogroup group_ble_common_api_gap_peripheral_functions
 501:Generated_Source\PSoC6\pdl\middleware/ble/cy_ble_gap.h ****  * @{
 502:Generated_Source\PSoC6\pdl\middleware/ble/cy_ble_gap.h ****  */
 503:Generated_Source\PSoC6\pdl\middleware/ble/cy_ble_gap.h ****  
 504:Generated_Source\PSoC6\pdl\middleware/ble/cy_ble_gap.h **** #if (CY_BLE_GAP_ROLE_PERIPHERAL || CY_BLE_GAP_ROLE_BROADCASTER)
 505:Generated_Source\PSoC6\pdl\middleware/ble/cy_ble_gap.h **** cy_en_ble_api_result_t Cy_BLE_GAPP_StartAdvertisement(uint8_t advertisingIntervalType, uint8_t adve
 506:Generated_Source\PSoC6\pdl\middleware/ble/cy_ble_gap.h **** cy_en_ble_api_result_t Cy_BLE_GAPP_StopAdvertisement(void);
 507:Generated_Source\PSoC6\pdl\middleware/ble/cy_ble_gap.h **** 
 508:Generated_Source\PSoC6\pdl\middleware/ble/cy_ble_gap.h **** /** \cond IGNORE */
 509:Generated_Source\PSoC6\pdl\middleware/ble/cy_ble_gap.h **** void Cy_BLE_ChangeAdDeviceAddress(const cy_stc_ble_gap_bd_addr_t* bdAddr, uint8_t dest);
 510:Generated_Source\PSoC6\pdl\middleware/ble/cy_ble_gap.h **** /** \endcond */
 511:Generated_Source\PSoC6\pdl\middleware/ble/cy_ble_gap.h **** 
 512:Generated_Source\PSoC6\pdl\middleware/ble/cy_ble_gap.h **** #endif /* CY_BLE_GAP_ROLE_PERIPHERAL */
 513:Generated_Source\PSoC6\pdl\middleware/ble/cy_ble_gap.h **** 
 514:Generated_Source\PSoC6\pdl\middleware/ble/cy_ble_gap.h **** /** @} group_ble_common_api_gap_peripheral_functions */
 515:Generated_Source\PSoC6\pdl\middleware/ble/cy_ble_gap.h **** 
 516:Generated_Source\PSoC6\pdl\middleware/ble/cy_ble_gap.h **** /**
 517:Generated_Source\PSoC6\pdl\middleware/ble/cy_ble_gap.h ****  * \addtogroup group_ble_common_api_gap_central_functions
 518:Generated_Source\PSoC6\pdl\middleware/ble/cy_ble_gap.h ****  * @{
 519:Generated_Source\PSoC6\pdl\middleware/ble/cy_ble_gap.h ****  */
 520:Generated_Source\PSoC6\pdl\middleware/ble/cy_ble_gap.h ****  
 521:Generated_Source\PSoC6\pdl\middleware/ble/cy_ble_gap.h **** #if (CY_BLE_GAP_ROLE_CENTRAL || CY_BLE_GAP_ROLE_OBSERVER)
 522:Generated_Source\PSoC6\pdl\middleware/ble/cy_ble_gap.h **** cy_en_ble_api_result_t Cy_BLE_GAPC_StartScan(uint8_t scanningIntervalType, uint8_t scanParamIndex);
 523:Generated_Source\PSoC6\pdl\middleware/ble/cy_ble_gap.h **** cy_en_ble_api_result_t Cy_BLE_GAPC_StopScan(void);
 524:Generated_Source\PSoC6\pdl\middleware/ble/cy_ble_gap.h **** #endif /* CY_BLE_GAP_ROLE_CENTRAL || CY_BLE_GAP_ROLE_OBSERVER */
 525:Generated_Source\PSoC6\pdl\middleware/ble/cy_ble_gap.h **** 
 526:Generated_Source\PSoC6\pdl\middleware/ble/cy_ble_gap.h **** #if (CY_BLE_GAP_ROLE_CENTRAL)
 527:Generated_Source\PSoC6\pdl\middleware/ble/cy_ble_gap.h **** cy_en_ble_api_result_t Cy_BLE_GAPC_ConnectDevice(const cy_stc_ble_gap_bd_addr_t * address, uint8_t 
 528:Generated_Source\PSoC6\pdl\middleware/ble/cy_ble_gap.h **** cy_en_ble_api_result_t Cy_BLE_GAPC_CancelDeviceConnection(void);
 529:Generated_Source\PSoC6\pdl\middleware/ble/cy_ble_gap.h **** #endif /* CY_BLE_GAP_ROLE_CENTRAL */
 530:Generated_Source\PSoC6\pdl\middleware/ble/cy_ble_gap.h **** 
 531:Generated_Source\PSoC6\pdl\middleware/ble/cy_ble_gap.h **** /** @} group_ble_common_api_gap_central_functions */
 532:Generated_Source\PSoC6\pdl\middleware/ble/cy_ble_gap.h **** 
 533:Generated_Source\PSoC6\pdl\middleware/ble/cy_ble_gap.h **** /***************************************
 534:Generated_Source\PSoC6\pdl\middleware/ble/cy_ble_gap.h **** * External data references
 535:Generated_Source\PSoC6\pdl\middleware/ble/cy_ble_gap.h **** ***************************************/
ARM GAS  C:\Users\deathc\AppData\Local\Temp\cc1pP50L.s 			page 40


 536:Generated_Source\PSoC6\pdl\middleware/ble/cy_ble_gap.h **** extern volatile uint8_t cy_ble_eventHandlerFlag;
 537:Generated_Source\PSoC6\pdl\middleware/ble/cy_ble_gap.h **** extern cy_stc_ble_gap_bd_addr_t *cy_ble_sflashDeviceAddress;
 538:Generated_Source\PSoC6\pdl\middleware/ble/cy_ble_gap.h **** extern cy_stc_ble_gap_bd_addr_t cy_ble_deviceAddress;
 539:Generated_Source\PSoC6\pdl\middleware/ble/cy_ble_gap.h **** extern cy_en_ble_state_t cy_ble_state;
 540:Generated_Source\PSoC6\pdl\middleware/ble/cy_ble_gap.h **** 
 541:Generated_Source\PSoC6\pdl\middleware/ble/cy_ble_gap.h **** #if ((CY_BLE_GAP_ROLE_PERIPHERAL || CY_BLE_GAP_ROLE_CENTRAL))
 542:Generated_Source\PSoC6\pdl\middleware/ble/cy_ble_gap.h **** extern cy_stc_ble_gap_auth_info_t cy_ble_authInfo[CY_BLE_AUTH_INFO_COUNT];
 543:Generated_Source\PSoC6\pdl\middleware/ble/cy_ble_gap.h **** #endif /* ((CY_BLE_GAP_ROLE_PERIPHERAL || CY_BLE_GAP_ROLE_CENTRAL)) */
 544:Generated_Source\PSoC6\pdl\middleware/ble/cy_ble_gap.h **** 
 545:Generated_Source\PSoC6\pdl\middleware/ble/cy_ble_gap.h **** #if (CY_BLE_GAP_ROLE_PERIPHERAL || CY_BLE_GAP_ROLE_BROADCASTER)
 546:Generated_Source\PSoC6\pdl\middleware/ble/cy_ble_gap.h **** extern cy_en_ble_adv_state_t cy_ble_advState;
 547:Generated_Source\PSoC6\pdl\middleware/ble/cy_ble_gap.h **** extern uint8_t cy_ble_advIndex;
 548:Generated_Source\PSoC6\pdl\middleware/ble/cy_ble_gap.h **** #endif  /* (CY_BLE_GAP_ROLE_PERIPHERAL || CY_BLE_GAP_ROLE_BROADCASTER) */
 549:Generated_Source\PSoC6\pdl\middleware/ble/cy_ble_gap.h **** 
 550:Generated_Source\PSoC6\pdl\middleware/ble/cy_ble_gap.h **** #if (CY_BLE_GAP_ROLE_CENTRAL || CY_BLE_GAP_ROLE_OBSERVER)
 551:Generated_Source\PSoC6\pdl\middleware/ble/cy_ble_gap.h **** extern cy_en_ble_scan_state_t cy_ble_scanState;
 552:Generated_Source\PSoC6\pdl\middleware/ble/cy_ble_gap.h **** extern uint8_t cy_ble_scanIndex;
 553:Generated_Source\PSoC6\pdl\middleware/ble/cy_ble_gap.h **** #endif /* (CY_BLE_GAP_ROLE_CENTRAL || CY_BLE_GAP_ROLE_OBSERVER) */
 554:Generated_Source\PSoC6\pdl\middleware/ble/cy_ble_gap.h **** 
 555:Generated_Source\PSoC6\pdl\middleware/ble/cy_ble_gap.h **** #if ((CY_BLE_GAP_ROLE_PERIPHERAL || CY_BLE_GAP_ROLE_CENTRAL))
 556:Generated_Source\PSoC6\pdl\middleware/ble/cy_ble_gap.h **** extern cy_stc_ble_conn_handle_t cy_ble_connHandle[CY_BLE_CONN_COUNT];
 557:Generated_Source\PSoC6\pdl\middleware/ble/cy_ble_gap.h **** extern cy_en_ble_conn_state_t cy_ble_connState[CY_BLE_CONN_COUNT];
 558:Generated_Source\PSoC6\pdl\middleware/ble/cy_ble_gap.h **** 
 559:Generated_Source\PSoC6\pdl\middleware/ble/cy_ble_gap.h **** extern volatile uint8_t cy_ble_devConnRole[CY_BLE_CONN_COUNT];                                     
 560:Generated_Source\PSoC6\pdl\middleware/ble/cy_ble_gap.h **** extern volatile bool cy_ble_pairStatus[CY_BLE_CONN_COUNT];
 561:Generated_Source\PSoC6\pdl\middleware/ble/cy_ble_gap.h **** 
 562:Generated_Source\PSoC6\pdl\middleware/ble/cy_ble_gap.h **** #endif /* ((CY_BLE_GAP_ROLE_PERIPHERAL || CY_BLE_GAP_ROLE_CENTRAL)) */
 563:Generated_Source\PSoC6\pdl\middleware/ble/cy_ble_gap.h **** 
 564:Generated_Source\PSoC6\pdl\middleware/ble/cy_ble_gap.h **** #if (CY_BLE_GAP_ROLE_CENTRAL || CY_BLE_GAP_ROLE_OBSERVER)
 565:Generated_Source\PSoC6\pdl\middleware/ble/cy_ble_gap.h **** extern cy_stc_ble_gapc_disc_info_t cy_ble_discoveryInfo[CY_BLE_GAPC_CONF_COUNT];
 566:Generated_Source\PSoC6\pdl\middleware/ble/cy_ble_gap.h **** #endif /* CY_BLE_GAP_ROLE_CENTRAL || CY_BLE_GAP_ROLE_OBSERVER */
 567:Generated_Source\PSoC6\pdl\middleware/ble/cy_ble_gap.h **** 
 568:Generated_Source\PSoC6\pdl\middleware/ble/cy_ble_gap.h **** #if (CY_BLE_GAP_ROLE_CENTRAL)
 569:Generated_Source\PSoC6\pdl\middleware/ble/cy_ble_gap.h **** extern cy_stc_ble_gapc_conn_info_t cy_ble_connectionParameters;
 570:Generated_Source\PSoC6\pdl\middleware/ble/cy_ble_gap.h **** extern cy_stc_ble_timer_info_t cy_ble_connectingTimeout;
 571:Generated_Source\PSoC6\pdl\middleware/ble/cy_ble_gap.h **** #endif /* CY_BLE_GAP_ROLE_CENTRAL */
 572:Generated_Source\PSoC6\pdl\middleware/ble/cy_ble_gap.h **** 
 573:Generated_Source\PSoC6\pdl\middleware/ble/cy_ble_gap.h **** #if (CY_BLE_GAP_ROLE_PERIPHERAL || CY_BLE_GAP_ROLE_BROADCASTER)
 574:Generated_Source\PSoC6\pdl\middleware/ble/cy_ble_gap.h **** extern cy_stc_ble_gapp_disc_mode_info_t cy_ble_discoveryModeInfo[CY_BLE_GAPP_CONF_COUNT];
 575:Generated_Source\PSoC6\pdl\middleware/ble/cy_ble_gap.h **** extern cy_stc_ble_gapp_disc_param_t cy_ble_discoveryParam[CY_BLE_GAPP_CONF_COUNT];
 576:Generated_Source\PSoC6\pdl\middleware/ble/cy_ble_gap.h **** extern cy_stc_ble_gapp_disc_data_t cy_ble_discoveryData[CY_BLE_GAPP_CONF_COUNT];
 577:Generated_Source\PSoC6\pdl\middleware/ble/cy_ble_gap.h **** extern cy_stc_ble_gapp_scan_rsp_data_t cy_ble_scanRspData[CY_BLE_GAPP_CONF_COUNT];
 578:Generated_Source\PSoC6\pdl\middleware/ble/cy_ble_gap.h **** #endif /* CY_BLE_GAP_ROLE_PERIPHERAL || CY_BLE_GAP_ROLE_BROADCASTER */
 579:Generated_Source\PSoC6\pdl\middleware/ble/cy_ble_gap.h **** 
 580:Generated_Source\PSoC6\pdl\middleware/ble/cy_ble_gap.h **** #if ((CY_BLE_GAP_ROLE_PERIPHERAL || CY_BLE_GAP_ROLE_CENTRAL) && (CY_BLE_BONDING_REQUIREMENT == CY_B
 581:Generated_Source\PSoC6\pdl\middleware/ble/cy_ble_gap.h **** 
 582:Generated_Source\PSoC6\pdl\middleware/ble/cy_ble_gap.h **** /**
 583:Generated_Source\PSoC6\pdl\middleware/ble/cy_ble_gap.h ****  * \addtogroup group_ble_common_api_global_variables
 584:Generated_Source\PSoC6\pdl\middleware/ble/cy_ble_gap.h ****  * @{
 585:Generated_Source\PSoC6\pdl\middleware/ble/cy_ble_gap.h ****  */  
 586:Generated_Source\PSoC6\pdl\middleware/ble/cy_ble_gap.h **** /** This is a two-bit variable that contains status of pending write to flash operation.
 587:Generated_Source\PSoC6\pdl\middleware/ble/cy_ble_gap.h ****  * This variable is initialized to zero in Cy_BLE_Init().
 588:Generated_Source\PSoC6\pdl\middleware/ble/cy_ble_gap.h ****  * CY_BLE_PENDING_CCCD_FLASH_WRITE_BIT flag is set after write to CCCD event when a
 589:Generated_Source\PSoC6\pdl\middleware/ble/cy_ble_gap.h ****  * peer device supports bonding (cy_ble_peerBonding[eventParam->connHandle.attId] == CY_BLE_GAP_BON
 590:Generated_Source\PSoC6\pdl\middleware/ble/cy_ble_gap.h ****  * CY_BLE_PENDING_STACK_FLASH_WRITE_BIT flag is set after CY_BLE_EVT_PENDING_FLASH_WRITE event.
 591:Generated_Source\PSoC6\pdl\middleware/ble/cy_ble_gap.h ****  * Cy_BLE_StoreBondingData() should be called to store pending bonding data.
 592:Generated_Source\PSoC6\pdl\middleware/ble/cy_ble_gap.h ****  * This function automatically clears pending bits after write operation is complete.
ARM GAS  C:\Users\deathc\AppData\Local\Temp\cc1pP50L.s 			page 41


 593:Generated_Source\PSoC6\pdl\middleware/ble/cy_ble_gap.h ****  */
 594:Generated_Source\PSoC6\pdl\middleware/ble/cy_ble_gap.h **** extern uint8_t cy_ble_pendingFlashWrite;
 595:Generated_Source\PSoC6\pdl\middleware/ble/cy_ble_gap.h **** /** @} group_ble_common_api_global_variables */
 596:Generated_Source\PSoC6\pdl\middleware/ble/cy_ble_gap.h ****     
 597:Generated_Source\PSoC6\pdl\middleware/ble/cy_ble_gap.h **** /** Bonding type setting of peer device, CY_BLE_GAP_BONDING_NONE or CY_BLE_GAP_BONDING.
 598:Generated_Source\PSoC6\pdl\middleware/ble/cy_ble_gap.h ****  * It is initialized after pairing with peer device and used for cy_ble_pendingFlashWrite variable
 599:Generated_Source\PSoC6\pdl\middleware/ble/cy_ble_gap.h ****  * setting.
 600:Generated_Source\PSoC6\pdl\middleware/ble/cy_ble_gap.h ****  */
 601:Generated_Source\PSoC6\pdl\middleware/ble/cy_ble_gap.h **** extern uint8_t cy_ble_peerBonding[CY_BLE_CONN_COUNT];
 602:Generated_Source\PSoC6\pdl\middleware/ble/cy_ble_gap.h **** 
 603:Generated_Source\PSoC6\pdl\middleware/ble/cy_ble_gap.h **** #endif  /* (CY_BLE_BONDING_REQUIREMENT == CY_BLE_BONDING_YES) */
 604:Generated_Source\PSoC6\pdl\middleware/ble/cy_ble_gap.h **** 
 605:Generated_Source\PSoC6\pdl\middleware/ble/cy_ble_gap.h **** 
 606:Generated_Source\PSoC6\pdl\middleware/ble/cy_ble_gap.h **** /***************************************
 607:Generated_Source\PSoC6\pdl\middleware/ble/cy_ble_gap.h **** * Exported Functions (MACROS)
 608:Generated_Source\PSoC6\pdl\middleware/ble/cy_ble_gap.h **** ***************************************/
 609:Generated_Source\PSoC6\pdl\middleware/ble/cy_ble_gap.h **** #if ((CY_BLE_GAP_ROLE_PERIPHERAL || CY_BLE_GAP_ROLE_CENTRAL))
 610:Generated_Source\PSoC6\pdl\middleware/ble/cy_ble_gap.h ****    
 611:Generated_Source\PSoC6\pdl\middleware/ble/cy_ble_gap.h **** /******************************************************************************
 612:Generated_Source\PSoC6\pdl\middleware/ble/cy_ble_gap.h **** * Function Name: Cy_BLE_GetConnHandleIdx
 613:Generated_Source\PSoC6\pdl\middleware/ble/cy_ble_gap.h **** ***************************************************************************//**
 614:Generated_Source\PSoC6\pdl\middleware/ble/cy_ble_gap.h **** *
 615:Generated_Source\PSoC6\pdl\middleware/ble/cy_ble_gap.h **** *  This function searches the array of connection handles (cy_ble_connHandle[])
 616:Generated_Source\PSoC6\pdl\middleware/ble/cy_ble_gap.h **** *  for the location (index) of a handle that corresponds to the input parameter
 617:Generated_Source\PSoC6\pdl\middleware/ble/cy_ble_gap.h **** *  connHandle. bdHandle.
 618:Generated_Source\PSoC6\pdl\middleware/ble/cy_ble_gap.h **** *
 619:Generated_Source\PSoC6\pdl\middleware/ble/cy_ble_gap.h **** *  This function is designated for internal usage. 
 620:Generated_Source\PSoC6\pdl\middleware/ble/cy_ble_gap.h **** *    
 621:Generated_Source\PSoC6\pdl\middleware/ble/cy_ble_gap.h **** *  \param connHandle: The connection handle.
 622:Generated_Source\PSoC6\pdl\middleware/ble/cy_ble_gap.h **** *
 623:Generated_Source\PSoC6\pdl\middleware/ble/cy_ble_gap.h **** *  \return
 624:Generated_Source\PSoC6\pdl\middleware/ble/cy_ble_gap.h **** *  retValue: the index of connHandle  
 625:Generated_Source\PSoC6\pdl\middleware/ble/cy_ble_gap.h **** *    
 626:Generated_Source\PSoC6\pdl\middleware/ble/cy_ble_gap.h **** ******************************************************************************/
 627:Generated_Source\PSoC6\pdl\middleware/ble/cy_ble_gap.h **** __STATIC_INLINE uint8_t Cy_BLE_GetConnHandleIdx(cy_stc_ble_conn_handle_t connHandle)
 628:Generated_Source\PSoC6\pdl\middleware/ble/cy_ble_gap.h **** {
 629:Generated_Source\PSoC6\pdl\middleware/ble/cy_ble_gap.h ****     uint8_t idx;
 630:Generated_Source\PSoC6\pdl\middleware/ble/cy_ble_gap.h ****     uint8_t retValue = CY_BLE_CONN_COUNT;
 631:Generated_Source\PSoC6\pdl\middleware/ble/cy_ble_gap.h **** 
 632:Generated_Source\PSoC6\pdl\middleware/ble/cy_ble_gap.h ****     for(idx = 0u; idx < CY_BLE_CONN_COUNT; idx++)
 633:Generated_Source\PSoC6\pdl\middleware/ble/cy_ble_gap.h ****     {
 634:Generated_Source\PSoC6\pdl\middleware/ble/cy_ble_gap.h ****         if(cy_ble_connHandle[idx].bdHandle == connHandle.bdHandle)
 635:Generated_Source\PSoC6\pdl\middleware/ble/cy_ble_gap.h ****         {
 636:Generated_Source\PSoC6\pdl\middleware/ble/cy_ble_gap.h ****             retValue = idx;
 637:Generated_Source\PSoC6\pdl\middleware/ble/cy_ble_gap.h ****             break;
 638:Generated_Source\PSoC6\pdl\middleware/ble/cy_ble_gap.h ****         }
 639:Generated_Source\PSoC6\pdl\middleware/ble/cy_ble_gap.h ****     }
 640:Generated_Source\PSoC6\pdl\middleware/ble/cy_ble_gap.h ****     if(retValue == CY_BLE_CONN_COUNT)
 641:Generated_Source\PSoC6\pdl\middleware/ble/cy_ble_gap.h ****     {
 642:Generated_Source\PSoC6\pdl\middleware/ble/cy_ble_gap.h ****         /* HALT in debug mode */
 643:Generated_Source\PSoC6\pdl\middleware/ble/cy_ble_gap.h ****         CY_ASSERT(retValue != CY_BLE_CONN_COUNT);
 644:Generated_Source\PSoC6\pdl\middleware/ble/cy_ble_gap.h ****         retValue = 0u;
 645:Generated_Source\PSoC6\pdl\middleware/ble/cy_ble_gap.h ****     }
 646:Generated_Source\PSoC6\pdl\middleware/ble/cy_ble_gap.h **** 
 647:Generated_Source\PSoC6\pdl\middleware/ble/cy_ble_gap.h ****     return(retValue);
 648:Generated_Source\PSoC6\pdl\middleware/ble/cy_ble_gap.h **** }
 649:Generated_Source\PSoC6\pdl\middleware/ble/cy_ble_gap.h **** #endif  /* ((CY_BLE_GAP_ROLE_PERIPHERAL || CY_BLE_GAP_ROLE_CENTRAL)) */
ARM GAS  C:\Users\deathc\AppData\Local\Temp\cc1pP50L.s 			page 42


 650:Generated_Source\PSoC6\pdl\middleware/ble/cy_ble_gap.h **** 
 651:Generated_Source\PSoC6\pdl\middleware/ble/cy_ble_gap.h **** /**
 652:Generated_Source\PSoC6\pdl\middleware/ble/cy_ble_gap.h ****  * \addtogroup group_ble_common_api_functions
 653:Generated_Source\PSoC6\pdl\middleware/ble/cy_ble_gap.h ****  * @{
 654:Generated_Source\PSoC6\pdl\middleware/ble/cy_ble_gap.h **** */
 655:Generated_Source\PSoC6\pdl\middleware/ble/cy_ble_gap.h **** /******************************************************************************
 656:Generated_Source\PSoC6\pdl\middleware/ble/cy_ble_gap.h **** * Function Name: Cy_BLE_GetState
 657:Generated_Source\PSoC6\pdl\middleware/ble/cy_ble_gap.h **** ***************************************************************************//**
 658:Generated_Source\PSoC6\pdl\middleware/ble/cy_ble_gap.h **** *
 659:Generated_Source\PSoC6\pdl\middleware/ble/cy_ble_gap.h **** *  This function is used to determine the current state of the BLE Middleware
 660:Generated_Source\PSoC6\pdl\middleware/ble/cy_ble_gap.h **** *  state machine :
 661:Generated_Source\PSoC6\pdl\middleware/ble/cy_ble_gap.h **** *
 662:Generated_Source\PSoC6\pdl\middleware/ble/cy_ble_gap.h **** *  \image html ble_middleware_state_machine.png
 663:Generated_Source\PSoC6\pdl\middleware/ble/cy_ble_gap.h **** *
 664:Generated_Source\PSoC6\pdl\middleware/ble/cy_ble_gap.h **** *  The BLE Middleware is in the state #CY_BLE_STATE_INITIALIZING after the 
 665:Generated_Source\PSoC6\pdl\middleware/ble/cy_ble_gap.h **** *  Cy_BLE_Enable() is called and until the #CY_BLE_EVT_STACK_ON event is not 
 666:Generated_Source\PSoC6\pdl\middleware/ble/cy_ble_gap.h **** *  received. After successful initialization the state is changed to 
 667:Generated_Source\PSoC6\pdl\middleware/ble/cy_ble_gap.h **** *  #CY_BLE_STATE_ON.
 668:Generated_Source\PSoC6\pdl\middleware/ble/cy_ble_gap.h **** *
 669:Generated_Source\PSoC6\pdl\middleware/ble/cy_ble_gap.h **** *  The BLE Middleware is in the state #CY_BLE_STATE_STOPPED 
 670:Generated_Source\PSoC6\pdl\middleware/ble/cy_ble_gap.h **** *  when the #CY_BLE_EVT_STACK_SHUTDOWN_COMPLETE event is received (after the 
 671:Generated_Source\PSoC6\pdl\middleware/ble/cy_ble_gap.h **** *  Cy_BLE_Disable() is called).
 672:Generated_Source\PSoC6\pdl\middleware/ble/cy_ble_gap.h **** *  
 673:Generated_Source\PSoC6\pdl\middleware/ble/cy_ble_gap.h **** *  For GAP Central role when the Cy_BLE_GAPC_ConnectDevice() is called, the state
 674:Generated_Source\PSoC6\pdl\middleware/ble/cy_ble_gap.h **** *  is changed to #CY_BLE_STATE_CONNECTING. After successful connection indicated
 675:Generated_Source\PSoC6\pdl\middleware/ble/cy_ble_gap.h **** *  by #CY_BLE_EVT_GAP_DEVICE_CONNECTED or #CY_BLE_EVT_GAP_ENHANCE_CONN_COMPLETE
 676:Generated_Source\PSoC6\pdl\middleware/ble/cy_ble_gap.h **** *  event or the timeout indicated by #CY_BLE_EVT_TIMEOUT event, the state is
 677:Generated_Source\PSoC6\pdl\middleware/ble/cy_ble_gap.h **** *  changed to #CY_BLE_STATE_ON.
 678:Generated_Source\PSoC6\pdl\middleware/ble/cy_ble_gap.h **** *
 679:Generated_Source\PSoC6\pdl\middleware/ble/cy_ble_gap.h **** * \return
 680:Generated_Source\PSoC6\pdl\middleware/ble/cy_ble_gap.h **** * \ref cy_en_ble_state_t : The current BLE Middleware state. The following are 
 681:Generated_Source\PSoC6\pdl\middleware/ble/cy_ble_gap.h **** *                         possible states:
 682:Generated_Source\PSoC6\pdl\middleware/ble/cy_ble_gap.h **** *
 683:Generated_Source\PSoC6\pdl\middleware/ble/cy_ble_gap.h **** *   State                      | Description
 684:Generated_Source\PSoC6\pdl\middleware/ble/cy_ble_gap.h **** *   -------------------------- | -----------
 685:Generated_Source\PSoC6\pdl\middleware/ble/cy_ble_gap.h **** *   CY_BLE_STATE_STOPPED       | BLE is turned off.
 686:Generated_Source\PSoC6\pdl\middleware/ble/cy_ble_gap.h **** *   CY_BLE_STATE_INITIALIZING  | BLE is initializing (waiting for #CY_BLE_EVT_STACK_ON event).
 687:Generated_Source\PSoC6\pdl\middleware/ble/cy_ble_gap.h **** *   CY_BLE_STATE_ON            | BLE is turned on.
 688:Generated_Source\PSoC6\pdl\middleware/ble/cy_ble_gap.h **** *   CY_BLE_STATE_CONNECTING    | BLE is connecting.
 689:Generated_Source\PSoC6\pdl\middleware/ble/cy_ble_gap.h **** 
 690:Generated_Source\PSoC6\pdl\middleware/ble/cy_ble_gap.h **** ******************************************************************************/
 691:Generated_Source\PSoC6\pdl\middleware/ble/cy_ble_gap.h **** #define Cy_BLE_GetState()    (cy_ble_state)
 692:Generated_Source\PSoC6\pdl\middleware/ble/cy_ble_gap.h **** 
 693:Generated_Source\PSoC6\pdl\middleware/ble/cy_ble_gap.h **** /** \cond IGNORE */
 694:Generated_Source\PSoC6\pdl\middleware/ble/cy_ble_gap.h **** /******************************************************************************
 695:Generated_Source\PSoC6\pdl\middleware/ble/cy_ble_gap.h **** * Function Name: Cy_BLE_SetState
 696:Generated_Source\PSoC6\pdl\middleware/ble/cy_ble_gap.h **** ***************************************************************************//**
 697:Generated_Source\PSoC6\pdl\middleware/ble/cy_ble_gap.h **** *
 698:Generated_Source\PSoC6\pdl\middleware/ble/cy_ble_gap.h **** *  Used to set the BLE Middleware state machine's state.
 699:Generated_Source\PSoC6\pdl\middleware/ble/cy_ble_gap.h **** *
 700:Generated_Source\PSoC6\pdl\middleware/ble/cy_ble_gap.h **** *  \param state: The desired state to which the event handler's
 701:Generated_Source\PSoC6\pdl\middleware/ble/cy_ble_gap.h **** *   state machine should be set. The parameter state is a variable
 702:Generated_Source\PSoC6\pdl\middleware/ble/cy_ble_gap.h **** *   of type cy_en_ble_state_t.
 703:Generated_Source\PSoC6\pdl\middleware/ble/cy_ble_gap.h **** *
 704:Generated_Source\PSoC6\pdl\middleware/ble/cy_ble_gap.h **** * \return
 705:Generated_Source\PSoC6\pdl\middleware/ble/cy_ble_gap.h **** *  None
 706:Generated_Source\PSoC6\pdl\middleware/ble/cy_ble_gap.h **** *
ARM GAS  C:\Users\deathc\AppData\Local\Temp\cc1pP50L.s 			page 43


 707:Generated_Source\PSoC6\pdl\middleware/ble/cy_ble_gap.h **** ******************************************************************************/
 708:Generated_Source\PSoC6\pdl\middleware/ble/cy_ble_gap.h **** #define Cy_BLE_SetState(state)    (cy_ble_state = (state))
 709:Generated_Source\PSoC6\pdl\middleware/ble/cy_ble_gap.h **** /** \endcond */
 710:Generated_Source\PSoC6\pdl\middleware/ble/cy_ble_gap.h **** 
 711:Generated_Source\PSoC6\pdl\middleware/ble/cy_ble_gap.h **** #if (CY_BLE_GAP_ROLE_PERIPHERAL || CY_BLE_GAP_ROLE_BROADCASTER)
 712:Generated_Source\PSoC6\pdl\middleware/ble/cy_ble_gap.h **** 
 713:Generated_Source\PSoC6\pdl\middleware/ble/cy_ble_gap.h **** 
 714:Generated_Source\PSoC6\pdl\middleware/ble/cy_ble_gap.h **** /******************************************************************************
 715:Generated_Source\PSoC6\pdl\middleware/ble/cy_ble_gap.h **** * Function Name: Cy_BLE_GetAdvertisementState
 716:Generated_Source\PSoC6\pdl\middleware/ble/cy_ble_gap.h **** ***************************************************************************//**
 717:Generated_Source\PSoC6\pdl\middleware/ble/cy_ble_gap.h **** *    
 718:Generated_Source\PSoC6\pdl\middleware/ble/cy_ble_gap.h **** *  This function returns the state of the link layer hardware advertisement
 719:Generated_Source\PSoC6\pdl\middleware/ble/cy_ble_gap.h **** *  engine.
 720:Generated_Source\PSoC6\pdl\middleware/ble/cy_ble_gap.h **** *
 721:Generated_Source\PSoC6\pdl\middleware/ble/cy_ble_gap.h **** *  \image html ble_advertisement_state_machine.png
 722:Generated_Source\PSoC6\pdl\middleware/ble/cy_ble_gap.h **** *
 723:Generated_Source\PSoC6\pdl\middleware/ble/cy_ble_gap.h **** *  When Cy_BLE_GAPP_StartAdvertisement() is called, the state is set to
 724:Generated_Source\PSoC6\pdl\middleware/ble/cy_ble_gap.h **** *  #CY_BLE_ADV_STATE_ADV_INITIATED. It automatically changes to
 725:Generated_Source\PSoC6\pdl\middleware/ble/cy_ble_gap.h **** *  #CY_BLE_ADV_STATE_ADVERTISING when #CY_BLE_EVT_GAPP_ADVERTISEMENT_START_STOP
 726:Generated_Source\PSoC6\pdl\middleware/ble/cy_ble_gap.h **** *  event is received. When Cy_BLE_GAPP_StopAdvertisement() is called, the
 727:Generated_Source\PSoC6\pdl\middleware/ble/cy_ble_gap.h **** *  state is set to #CY_BLE_ADV_STATE_STOP_INITIATED. It automatically changes
 728:Generated_Source\PSoC6\pdl\middleware/ble/cy_ble_gap.h **** *  to #CY_BLE_ADV_STATE_STOPPED when the #CY_BLE_EVT_GAPP_ADVERTISEMENT_START_STOP
 729:Generated_Source\PSoC6\pdl\middleware/ble/cy_ble_gap.h **** *  event is received.
 730:Generated_Source\PSoC6\pdl\middleware/ble/cy_ble_gap.h **** *
 731:Generated_Source\PSoC6\pdl\middleware/ble/cy_ble_gap.h **** * \return
 732:Generated_Source\PSoC6\pdl\middleware/ble/cy_ble_gap.h **** * \ref cy_en_ble_adv_state_t :The current advertising state. The following are 
 733:Generated_Source\PSoC6\pdl\middleware/ble/cy_ble_gap.h **** *                              possible states.
 734:Generated_Source\PSoC6\pdl\middleware/ble/cy_ble_gap.h **** *
 735:Generated_Source\PSoC6\pdl\middleware/ble/cy_ble_gap.h **** *               State                |         Description
 736:Generated_Source\PSoC6\pdl\middleware/ble/cy_ble_gap.h **** *   -------------------------------- | -----------------------------
 737:Generated_Source\PSoC6\pdl\middleware/ble/cy_ble_gap.h **** *   CY_BLE_ADV_STATE_STOPPED         | Advertising is stopped.
 738:Generated_Source\PSoC6\pdl\middleware/ble/cy_ble_gap.h **** *   CY_BLE_ADV_STATE_ADV_INITIATED   | Advertising is initiated.
 739:Generated_Source\PSoC6\pdl\middleware/ble/cy_ble_gap.h **** *   CY_BLE_ADV_STATE_ADVERTISING     | Advertising is initiated.
 740:Generated_Source\PSoC6\pdl\middleware/ble/cy_ble_gap.h **** *   CY_BLE_ADV_STATE_STOP_INITIATED  | Stop advertising is initiated.
 741:Generated_Source\PSoC6\pdl\middleware/ble/cy_ble_gap.h **** *
 742:Generated_Source\PSoC6\pdl\middleware/ble/cy_ble_gap.h **** ******************************************************************************/
 743:Generated_Source\PSoC6\pdl\middleware/ble/cy_ble_gap.h **** __STATIC_INLINE cy_en_ble_adv_state_t Cy_BLE_GetAdvertisementState(void)
 744:Generated_Source\PSoC6\pdl\middleware/ble/cy_ble_gap.h **** {
 745:Generated_Source\PSoC6\pdl\middleware/ble/cy_ble_gap.h ****     return(cy_ble_advState);
 746:Generated_Source\PSoC6\pdl\middleware/ble/cy_ble_gap.h **** }
 747:Generated_Source\PSoC6\pdl\middleware/ble/cy_ble_gap.h **** 
 748:Generated_Source\PSoC6\pdl\middleware/ble/cy_ble_gap.h **** /** \cond IGNORE */
 749:Generated_Source\PSoC6\pdl\middleware/ble/cy_ble_gap.h **** /******************************************************************************
 750:Generated_Source\PSoC6\pdl\middleware/ble/cy_ble_gap.h **** * Function Name: Cy_BLE_SetAdvertisementState
 751:Generated_Source\PSoC6\pdl\middleware/ble/cy_ble_gap.h **** ***************************************************************************//**
 752:Generated_Source\PSoC6\pdl\middleware/ble/cy_ble_gap.h **** *
 753:Generated_Source\PSoC6\pdl\middleware/ble/cy_ble_gap.h **** *  Used to set the state of the link layer hardware advertisement engine.
 754:Generated_Source\PSoC6\pdl\middleware/ble/cy_ble_gap.h **** *
 755:Generated_Source\PSoC6\pdl\middleware/ble/cy_ble_gap.h **** *  \param state: The desired state.
 756:Generated_Source\PSoC6\pdl\middleware/ble/cy_ble_gap.h **** *
 757:Generated_Source\PSoC6\pdl\middleware/ble/cy_ble_gap.h **** * \return
 758:Generated_Source\PSoC6\pdl\middleware/ble/cy_ble_gap.h **** *  None
 759:Generated_Source\PSoC6\pdl\middleware/ble/cy_ble_gap.h **** *
 760:Generated_Source\PSoC6\pdl\middleware/ble/cy_ble_gap.h **** ******************************************************************************/
 761:Generated_Source\PSoC6\pdl\middleware/ble/cy_ble_gap.h **** __STATIC_INLINE void Cy_BLE_SetAdvertisementState(cy_en_ble_adv_state_t state)
 762:Generated_Source\PSoC6\pdl\middleware/ble/cy_ble_gap.h **** {
 763:Generated_Source\PSoC6\pdl\middleware/ble/cy_ble_gap.h ****     cy_ble_advState = state;
ARM GAS  C:\Users\deathc\AppData\Local\Temp\cc1pP50L.s 			page 44


 764:Generated_Source\PSoC6\pdl\middleware/ble/cy_ble_gap.h **** }
 765:Generated_Source\PSoC6\pdl\middleware/ble/cy_ble_gap.h **** /** \endcond */
 766:Generated_Source\PSoC6\pdl\middleware/ble/cy_ble_gap.h **** 
 767:Generated_Source\PSoC6\pdl\middleware/ble/cy_ble_gap.h **** #endif /* (CY_BLE_GAP_ROLE_PERIPHERAL || CY_BLE_GAP_ROLE_BROADCASTER) */
 768:Generated_Source\PSoC6\pdl\middleware/ble/cy_ble_gap.h **** 
 769:Generated_Source\PSoC6\pdl\middleware/ble/cy_ble_gap.h **** #if (CY_BLE_GAP_ROLE_CENTRAL || CY_BLE_GAP_ROLE_OBSERVER)
 770:Generated_Source\PSoC6\pdl\middleware/ble/cy_ble_gap.h **** 
 771:Generated_Source\PSoC6\pdl\middleware/ble/cy_ble_gap.h **** /******************************************************************************
 772:Generated_Source\PSoC6\pdl\middleware/ble/cy_ble_gap.h **** * Function Name: Cy_BLE_GetScanState
 773:Generated_Source\PSoC6\pdl\middleware/ble/cy_ble_gap.h **** ***************************************************************************//**
 774:Generated_Source\PSoC6\pdl\middleware/ble/cy_ble_gap.h **** *    
 775:Generated_Source\PSoC6\pdl\middleware/ble/cy_ble_gap.h **** *  This returns the state of the link layer hardware scan engine.
 776:Generated_Source\PSoC6\pdl\middleware/ble/cy_ble_gap.h **** *
 777:Generated_Source\PSoC6\pdl\middleware/ble/cy_ble_gap.h **** *  \image html ble_scanning_state_machine.png
 778:Generated_Source\PSoC6\pdl\middleware/ble/cy_ble_gap.h **** *   
 779:Generated_Source\PSoC6\pdl\middleware/ble/cy_ble_gap.h **** *  When Cy_BLE_GAPC_StartScan() is called the state is set to
 780:Generated_Source\PSoC6\pdl\middleware/ble/cy_ble_gap.h **** *  #CY_BLE_SCAN_STATE_SCAN_INITIATED. It automatically changes to
 781:Generated_Source\PSoC6\pdl\middleware/ble/cy_ble_gap.h **** *  #CY_BLE_SCAN_STATE_SCANNING when the #CY_BLE_EVT_GAPC_SCAN_START_STOP event is
 782:Generated_Source\PSoC6\pdl\middleware/ble/cy_ble_gap.h **** *  received. 
 783:Generated_Source\PSoC6\pdl\middleware/ble/cy_ble_gap.h **** *  When Cy_BLE_GAPC_StopScan() is called, the state is set to
 784:Generated_Source\PSoC6\pdl\middleware/ble/cy_ble_gap.h **** *  #CY_BLE_SCAN_STATE_STOP_INITIATED. It automatically changes to
 785:Generated_Source\PSoC6\pdl\middleware/ble/cy_ble_gap.h **** *  #CY_BLE_SCAN_STATE_STOPPED when the #CY_BLE_EVT_GAPC_SCAN_START_STOP event is
 786:Generated_Source\PSoC6\pdl\middleware/ble/cy_ble_gap.h **** *  received.
 787:Generated_Source\PSoC6\pdl\middleware/ble/cy_ble_gap.h **** *
 788:Generated_Source\PSoC6\pdl\middleware/ble/cy_ble_gap.h **** *  \return
 789:Generated_Source\PSoC6\pdl\middleware/ble/cy_ble_gap.h **** *  \ref cy_en_ble_scan_state_t : The current scan state. The following are 
 790:Generated_Source\PSoC6\pdl\middleware/ble/cy_ble_gap.h **** *                                possible states.
 791:Generated_Source\PSoC6\pdl\middleware/ble/cy_ble_gap.h **** *
 792:Generated_Source\PSoC6\pdl\middleware/ble/cy_ble_gap.h **** *               State                |         Description
 793:Generated_Source\PSoC6\pdl\middleware/ble/cy_ble_gap.h **** *   -------------------------------- | -----------------------------
 794:Generated_Source\PSoC6\pdl\middleware/ble/cy_ble_gap.h **** *   CY_BLE_SCAN_STATE_STOPPED        | Scanning is stopped.
 795:Generated_Source\PSoC6\pdl\middleware/ble/cy_ble_gap.h **** *   CY_BLE_SCAN_STATE_SCAN_INITIATED | Scanning is initiated.
 796:Generated_Source\PSoC6\pdl\middleware/ble/cy_ble_gap.h **** *   CY_BLE_SCAN_STATE_SCANNING       | Scanning process.
 797:Generated_Source\PSoC6\pdl\middleware/ble/cy_ble_gap.h **** *   CY_BLE_SCAN_STATE_STOP_INITIATED | Stop scanning is initiated.
 798:Generated_Source\PSoC6\pdl\middleware/ble/cy_ble_gap.h **** *
 799:Generated_Source\PSoC6\pdl\middleware/ble/cy_ble_gap.h **** ******************************************************************************/
 800:Generated_Source\PSoC6\pdl\middleware/ble/cy_ble_gap.h **** __STATIC_INLINE cy_en_ble_scan_state_t Cy_BLE_GetScanState(void)
 801:Generated_Source\PSoC6\pdl\middleware/ble/cy_ble_gap.h **** {
 802:Generated_Source\PSoC6\pdl\middleware/ble/cy_ble_gap.h ****     return(cy_ble_scanState);
 803:Generated_Source\PSoC6\pdl\middleware/ble/cy_ble_gap.h **** }
 804:Generated_Source\PSoC6\pdl\middleware/ble/cy_ble_gap.h **** 
 805:Generated_Source\PSoC6\pdl\middleware/ble/cy_ble_gap.h **** /** \cond IGNORE */
 806:Generated_Source\PSoC6\pdl\middleware/ble/cy_ble_gap.h **** /******************************************************************************
 807:Generated_Source\PSoC6\pdl\middleware/ble/cy_ble_gap.h **** * Function Name: Cy_BLE_SetScanState
 808:Generated_Source\PSoC6\pdl\middleware/ble/cy_ble_gap.h **** ***************************************************************************//**
 809:Generated_Source\PSoC6\pdl\middleware/ble/cy_ble_gap.h **** *
 810:Generated_Source\PSoC6\pdl\middleware/ble/cy_ble_gap.h **** *  Used to set the state of the link layer hardware scan engine.
 811:Generated_Source\PSoC6\pdl\middleware/ble/cy_ble_gap.h **** *
 812:Generated_Source\PSoC6\pdl\middleware/ble/cy_ble_gap.h **** *  \param state: The desired state.
 813:Generated_Source\PSoC6\pdl\middleware/ble/cy_ble_gap.h **** *
 814:Generated_Source\PSoC6\pdl\middleware/ble/cy_ble_gap.h **** *  \return
 815:Generated_Source\PSoC6\pdl\middleware/ble/cy_ble_gap.h **** *  None
 816:Generated_Source\PSoC6\pdl\middleware/ble/cy_ble_gap.h **** *
 817:Generated_Source\PSoC6\pdl\middleware/ble/cy_ble_gap.h **** ******************************************************************************/
 818:Generated_Source\PSoC6\pdl\middleware/ble/cy_ble_gap.h **** __STATIC_INLINE void Cy_BLE_SetScanState(cy_en_ble_scan_state_t state)
 819:Generated_Source\PSoC6\pdl\middleware/ble/cy_ble_gap.h **** {
 820:Generated_Source\PSoC6\pdl\middleware/ble/cy_ble_gap.h ****     cy_ble_scanState = state;
ARM GAS  C:\Users\deathc\AppData\Local\Temp\cc1pP50L.s 			page 45


 821:Generated_Source\PSoC6\pdl\middleware/ble/cy_ble_gap.h **** }
 822:Generated_Source\PSoC6\pdl\middleware/ble/cy_ble_gap.h **** /** \endcond */
 823:Generated_Source\PSoC6\pdl\middleware/ble/cy_ble_gap.h **** 
 824:Generated_Source\PSoC6\pdl\middleware/ble/cy_ble_gap.h **** #endif  /* (CY_BLE_GAP_ROLE_CENTRAL || CY_BLE_GAP_ROLE_OBSERVER) */
 825:Generated_Source\PSoC6\pdl\middleware/ble/cy_ble_gap.h **** 
 826:Generated_Source\PSoC6\pdl\middleware/ble/cy_ble_gap.h ****  
 827:Generated_Source\PSoC6\pdl\middleware/ble/cy_ble_gap.h **** #if ((CY_BLE_GAP_ROLE_PERIPHERAL || CY_BLE_GAP_ROLE_CENTRAL))
 828:Generated_Source\PSoC6\pdl\middleware/ble/cy_ble_gap.h **** 
 829:Generated_Source\PSoC6\pdl\middleware/ble/cy_ble_gap.h **** /******************************************************************************
 830:Generated_Source\PSoC6\pdl\middleware/ble/cy_ble_gap.h **** * Function Name: Cy_BLE_GetConnectionState
 831:Generated_Source\PSoC6\pdl\middleware/ble/cy_ble_gap.h **** ***************************************************************************//**
 832:Generated_Source\PSoC6\pdl\middleware/ble/cy_ble_gap.h **** *  This function returns the state of the BLE link for the specified connection
 833:Generated_Source\PSoC6\pdl\middleware/ble/cy_ble_gap.h **** *  handle.
 834:Generated_Source\PSoC6\pdl\middleware/ble/cy_ble_gap.h **** *
 835:Generated_Source\PSoC6\pdl\middleware/ble/cy_ble_gap.h **** *  The state is set to #CY_BLE_CONN_STATE_CONNECTED when #CY_BLE_EVT_GATT_CONNECT_IND
 836:Generated_Source\PSoC6\pdl\middleware/ble/cy_ble_gap.h **** *  event is received with the corresponding connection handle.
 837:Generated_Source\PSoC6\pdl\middleware/ble/cy_ble_gap.h **** *  The state is set to #CY_BLE_CONN_STATE_DISCONNECTED when the
 838:Generated_Source\PSoC6\pdl\middleware/ble/cy_ble_gap.h **** *  #CY_BLE_EVT_GATT_DISCONNECT_IND event is received.
 839:Generated_Source\PSoC6\pdl\middleware/ble/cy_ble_gap.h **** *
 840:Generated_Source\PSoC6\pdl\middleware/ble/cy_ble_gap.h **** *  For GATT Client role when Cy_BLE_GATTC_StartDiscovery() is called, the state
 841:Generated_Source\PSoC6\pdl\middleware/ble/cy_ble_gap.h **** *  indicates the current flow of the discovery procedure by
 842:Generated_Source\PSoC6\pdl\middleware/ble/cy_ble_gap.h **** *  #CY_BLE_CONN_STATE_CLIENT_SRVC_DISCOVERING,
 843:Generated_Source\PSoC6\pdl\middleware/ble/cy_ble_gap.h **** *  #CY_BLE_CONN_STATE_CLIENT_INCL_DISCOVERING,
 844:Generated_Source\PSoC6\pdl\middleware/ble/cy_ble_gap.h **** *  #CY_BLE_CONN_STATE_CLIENT_CHAR_DISCOVERING,
 845:Generated_Source\PSoC6\pdl\middleware/ble/cy_ble_gap.h **** *  #CY_BLE_CONN_STATE_CLIENT_DESCR_DISCOVERING and changes to
 846:Generated_Source\PSoC6\pdl\middleware/ble/cy_ble_gap.h **** *  #CY_BLE_CONN_STATE_CLIENT_DISCOVERED when the procedure successfully completes.
 847:Generated_Source\PSoC6\pdl\middleware/ble/cy_ble_gap.h **** *
 848:Generated_Source\PSoC6\pdl\middleware/ble/cy_ble_gap.h **** *  The state changes from #CY_BLE_CONN_STATE_CLIENT_DISCOVERED to
 849:Generated_Source\PSoC6\pdl\middleware/ble/cy_ble_gap.h **** *  #CY_BLE_CONN_STATE_CLIENT_DISCONNECTED_DISCOVERED when
 850:Generated_Source\PSoC6\pdl\middleware/ble/cy_ble_gap.h **** *  the #CY_BLE_EVT_GATT_DISCONNECT_IND event is received.
 851:Generated_Source\PSoC6\pdl\middleware/ble/cy_ble_gap.h **** *  The state comes backs to #CY_BLE_CONN_STATE_CLIENT_DISCOVERED when
 852:Generated_Source\PSoC6\pdl\middleware/ble/cy_ble_gap.h **** *  #CY_BLE_EVT_GATT_CONNECT_IND event is received and resolvable device
 853:Generated_Source\PSoC6\pdl\middleware/ble/cy_ble_gap.h **** *  address is not changed.
 854:Generated_Source\PSoC6\pdl\middleware/ble/cy_ble_gap.h **** *
 855:Generated_Source\PSoC6\pdl\middleware/ble/cy_ble_gap.h **** *  \param connHandle: The connection handle.
 856:Generated_Source\PSoC6\pdl\middleware/ble/cy_ble_gap.h **** *
 857:Generated_Source\PSoC6\pdl\middleware/ble/cy_ble_gap.h **** * \return
 858:Generated_Source\PSoC6\pdl\middleware/ble/cy_ble_gap.h **** * \ref cy_en_ble_conn_state_t : The current client state. The following are 
 859:Generated_Source\PSoC6\pdl\middleware/ble/cy_ble_gap.h **** *                               possible states.
 860:Generated_Source\PSoC6\pdl\middleware/ble/cy_ble_gap.h **** *
 861:Generated_Source\PSoC6\pdl\middleware/ble/cy_ble_gap.h **** *               State                                |         Description
 862:Generated_Source\PSoC6\pdl\middleware/ble/cy_ble_gap.h **** *   ------------------------------------------------ | -----------------------------
 863:Generated_Source\PSoC6\pdl\middleware/ble/cy_ble_gap.h **** *   CY_BLE_CONN_STATE_DISCONNECTED                   | Essentially idle state
 864:Generated_Source\PSoC6\pdl\middleware/ble/cy_ble_gap.h **** *   CY_BLE_CONN_STATE_CLIENT_DISCONNECTED_DISCOVERED | Server is disconnected but discovered.
 865:Generated_Source\PSoC6\pdl\middleware/ble/cy_ble_gap.h **** *   CY_BLE_CONN_STATE_CONNECTED                      | Peer device is connected for this and follow
 866:Generated_Source\PSoC6\pdl\middleware/ble/cy_ble_gap.h **** *   CY_BLE_CONN_STATE_CLIENT_SRVC_DISCOVERING        | Server services are being discovered.
 867:Generated_Source\PSoC6\pdl\middleware/ble/cy_ble_gap.h **** *   CY_BLE_CONN_STATE_CLIENT_INCL_DISCOVERING        | Server included services are being discovere
 868:Generated_Source\PSoC6\pdl\middleware/ble/cy_ble_gap.h **** *   CY_BLE_CONN_STATE_CLIENT_CHAR_DISCOVERING        | Server characteristics are being discovered
 869:Generated_Source\PSoC6\pdl\middleware/ble/cy_ble_gap.h **** *   CY_BLE_CONN_STATE_CLIENT_DESCR_DISCOVERING       | Server char. descriptors are being discovere
 870:Generated_Source\PSoC6\pdl\middleware/ble/cy_ble_gap.h **** *   CY_BLE_CONN_STATE_CLIENT_DISCOVERED              | Server is discovered   
 871:Generated_Source\PSoC6\pdl\middleware/ble/cy_ble_gap.h **** *
 872:Generated_Source\PSoC6\pdl\middleware/ble/cy_ble_gap.h **** *  \funcusage 
 873:Generated_Source\PSoC6\pdl\middleware/ble/cy_ble_gap.h **** *  \snippet ble\3.0\snippet\main.c BLE Common API: Cy_BLE_GetConnectionState()
 874:Generated_Source\PSoC6\pdl\middleware/ble/cy_ble_gap.h **** *
 875:Generated_Source\PSoC6\pdl\middleware/ble/cy_ble_gap.h **** ******************************************************************************/
 876:Generated_Source\PSoC6\pdl\middleware/ble/cy_ble_gap.h **** __STATIC_INLINE cy_en_ble_conn_state_t Cy_BLE_GetConnectionState(cy_stc_ble_conn_handle_t connHandl
 877:Generated_Source\PSoC6\pdl\middleware/ble/cy_ble_gap.h **** {
ARM GAS  C:\Users\deathc\AppData\Local\Temp\cc1pP50L.s 			page 46


 878:Generated_Source\PSoC6\pdl\middleware/ble/cy_ble_gap.h ****     return((connHandle.attId < CY_BLE_CONN_COUNT) ? cy_ble_connState[connHandle.attId] : CY_BLE_CON
 218              		.loc 3 878 0
 219 000c 1B0A     		lsrs	r3, r3, #8
 220 000e 02D1     		bne	.L15
 221 0010 0B4A     		ldr	r2, .L17+4
 222 0012 D35C     		ldrb	r3, [r2, r3]	@ zero_extendqisi2
 223 0014 00E0     		b	.L13
 224              	.L15:
 225 0016 0023     		movs	r3, #0
 226              	.L13:
 227              	.LBE15:
 228              	.LBE14:
 655:ble_application.c **** 
 656:ble_application.c ****     /* BLE is connected */
 657:ble_application.c **** 	if(Cy_BLE_GetConnectionState(connectionHandle) == 
 229              		.loc 1 657 0
 230 0018 022B     		cmp	r3, #2
 231 001a 0CD0     		beq	.L12
 232              	.LBB16:
 233              	.LBB17:
 745:Generated_Source\PSoC6\pdl\middleware/ble/cy_ble_gap.h **** }
 234              		.loc 3 745 0
 235 001c 094B     		ldr	r3, .L17+8
 236 001e 1B78     		ldrb	r3, [r3]	@ zero_extendqisi2
 237              	.LBE17:
 238              	.LBE16:
 658:ble_application.c **** 		CY_BLE_CONN_STATE_CONNECTED)
 659:ble_application.c **** 	{
 660:ble_application.c ****         //BLE is connected
 661:ble_application.c **** 		
 662:ble_application.c **** 	}
 663:ble_application.c ****     /* BLE is advertising */
 664:ble_application.c **** 	else if (Cy_BLE_GetAdvertisementState() == CY_BLE_ADV_STATE_ADVERTISING)
 239              		.loc 1 664 0
 240 0020 022B     		cmp	r3, #2
 241 0022 08D0     		beq	.L12
 665:ble_application.c **** 	{
 666:ble_application.c ****         //ble is advertising
 667:ble_application.c **** 	}
 668:ble_application.c **** 	else
 669:ble_application.c **** 	{
 670:ble_application.c ****         //disconnected
 671:ble_application.c **** 		
 672:ble_application.c ****          /* Check if the advertisement needs to be restarted */
 673:ble_application.c **** 		if(restartBleAdvertisement)
 242              		.loc 1 673 0
 243 0024 054B     		ldr	r3, .L17
 244 0026 9B78     		ldrb	r3, [r3, #2]	@ zero_extendqisi2
 245 0028 2BB1     		cbz	r3, .L12
 674:ble_application.c **** 		{
 675:ble_application.c ****     		/* Reset 'restartBleAdvertisement' flag */
 676:ble_application.c **** 			restartBleAdvertisement = false;
 246              		.loc 1 676 0
 247 002a 0020     		movs	r0, #0
 248 002c 034B     		ldr	r3, .L17
 249 002e 9870     		strb	r0, [r3, #2]
 677:ble_application.c **** 			
ARM GAS  C:\Users\deathc\AppData\Local\Temp\cc1pP50L.s 			page 47


 678:ble_application.c ****     		/* Start Advertisement and enter discoverable mode */
 679:ble_application.c **** 			Cy_BLE_GAPP_StartAdvertisement
 250              		.loc 1 679 0
 251 0030 0146     		mov	r1, r0
 252 0032 FFF7FEFF 		bl	Cy_BLE_GAPP_StartAdvertisement
 253              	.LVL16:
 254              	.L12:
 680:ble_application.c **** 			(CY_BLE_ADVERTISING_FAST,CY_BLE_PERIPHERAL_CONFIGURATION_0_INDEX);	
 681:ble_application.c **** 		}
 682:ble_application.c **** 	}
 683:ble_application.c **** }
 255              		.loc 1 683 0
 256 0036 03B0     		add	sp, sp, #12
 257              		.cfi_def_cfa_offset 4
 258              		@ sp needed
 259 0038 5DF804FB 		ldr	pc, [sp], #4
 260              	.L18:
 261              		.align	2
 262              	.L17:
 263 003c 00000000 		.word	.LANCHOR0
 264 0040 00000000 		.word	cy_ble_connState
 265 0044 00000000 		.word	cy_ble_advState
 266              		.cfi_endproc
 267              	.LFE656:
 268              		.size	ProcessBleEvents, .-ProcessBleEvents
 269              		.section	.text.Ble_Init,"ax",%progbits
 270              		.align	2
 271              		.global	Ble_Init
 272              		.thumb
 273              		.thumb_func
 274              		.type	Ble_Init, %function
 275              	Ble_Init:
 276              	.LFB657:
 684:ble_application.c **** 
 685:ble_application.c **** /*******************************************************************************
 686:ble_application.c **** * Function Name: void InitBle(void)
 687:ble_application.c **** ********************************************************************************
 688:ble_application.c **** *
 689:ble_application.c **** * Summary:
 690:ble_application.c **** *  Function that initializes the BLE component with a custom event handler
 691:ble_application.c **** *
 692:ble_application.c **** * Parameters:
 693:ble_application.c **** *  None
 694:ble_application.c **** *
 695:ble_application.c **** * Return:
 696:ble_application.c **** *  None
 697:ble_application.c **** *
 698:ble_application.c **** * Side Effects:
 699:ble_application.c **** *  None
 700:ble_application.c **** *
 701:ble_application.c **** *******************************************************************************/
 702:ble_application.c **** void Ble_Init(void)
 703:ble_application.c **** {
 277              		.loc 1 703 0
 278              		.cfi_startproc
 279              		@ args = 0, pretend = 0, frame = 0
 280              		@ frame_needed = 0, uses_anonymous_args = 0
ARM GAS  C:\Users\deathc\AppData\Local\Temp\cc1pP50L.s 			page 48


 281 0000 08B5     		push	{r3, lr}
 282              		.cfi_def_cfa_offset 8
 283              		.cfi_offset 3, -8
 284              		.cfi_offset 14, -4
 704:ble_application.c ****     /* Start the BLE component and register the stack event handler */
 705:ble_application.c **** 	Cy_BLE_Start(StackEventHandler);
 285              		.loc 1 705 0
 286 0002 0248     		ldr	r0, .L21
 287 0004 FFF7FEFF 		bl	Cy_BLE_Start
 288              	.LVL17:
 289 0008 08BD     		pop	{r3, pc}
 290              	.L22:
 291 000a 00BF     		.align	2
 292              	.L21:
 293 000c 00000000 		.word	StackEventHandler
 294              		.cfi_endproc
 295              	.LFE657:
 296              		.size	Ble_Init, .-Ble_Init
 297              		.section	.text.RestartBleAdvertisement,"ax",%progbits
 298              		.align	2
 299              		.global	RestartBleAdvertisement
 300              		.thumb
 301              		.thumb_func
 302              		.type	RestartBleAdvertisement, %function
 303              	RestartBleAdvertisement:
 304              	.LFB658:
 706:ble_application.c **** 	
 707:ble_application.c **** }
 708:ble_application.c **** 
 709:ble_application.c **** /*******************************************************************************
 710:ble_application.c **** * Function Name: void RestartBleAdvertisement (void)
 711:ble_application.c **** ********************************************************************************
 712:ble_application.c **** *
 713:ble_application.c **** * Summary:
 714:ble_application.c **** *  Function that restarts BLE advertisement after a timeout or a disconnect 
 715:ble_application.c **** *  event
 716:ble_application.c **** *
 717:ble_application.c **** * Parameters:
 718:ble_application.c **** *  None
 719:ble_application.c **** *
 720:ble_application.c **** * Return:
 721:ble_application.c **** *  None
 722:ble_application.c **** *
 723:ble_application.c **** * Side Effects:
 724:ble_application.c **** *  None
 725:ble_application.c **** *
 726:ble_application.c **** *******************************************************************************/
 727:ble_application.c **** void RestartBleAdvertisement (void)
 728:ble_application.c **** {
 305              		.loc 1 728 0
 306              		.cfi_startproc
 307              		@ args = 0, pretend = 0, frame = 0
 308              		@ frame_needed = 0, uses_anonymous_args = 0
 309              		@ link register save eliminated.
 729:ble_application.c ****     /* Set the restart advertisement flag */
 730:ble_application.c **** 	restartBleAdvertisement = true;
 310              		.loc 1 730 0
ARM GAS  C:\Users\deathc\AppData\Local\Temp\cc1pP50L.s 			page 49


 311 0000 0122     		movs	r2, #1
 312 0002 014B     		ldr	r3, .L24
 313 0004 9A70     		strb	r2, [r3, #2]
 314 0006 7047     		bx	lr
 315              	.L25:
 316              		.align	2
 317              	.L24:
 318 0008 00000000 		.word	.LANCHOR0
 319              		.cfi_endproc
 320              	.LFE658:
 321              		.size	RestartBleAdvertisement, .-RestartBleAdvertisement
 322              		.section	.text.IsBleReadyForLowPowerMode,"ax",%progbits
 323              		.align	2
 324              		.global	IsBleReadyForLowPowerMode
 325              		.thumb
 326              		.thumb_func
 327              		.type	IsBleReadyForLowPowerMode, %function
 328              	IsBleReadyForLowPowerMode:
 329              	.LFB659:
 731:ble_application.c **** }
 732:ble_application.c **** 
 733:ble_application.c **** /*******************************************************************************
 734:ble_application.c **** * Function Name: bool isBLEreadyForLPM(void)
 735:ble_application.c **** ********************************************************************************
 736:ble_application.c **** *
 737:ble_application.c **** * Summary:
 738:ble_application.c **** *  Function to check if the BLE is ready to enter low power mode
 739:ble_application.c **** *
 740:ble_application.c **** * Parameters:
 741:ble_application.c **** *  None
 742:ble_application.c **** *
