ARM GAS  C:\Users\SimonChen\AppData\Local\Temp\ccpsswYs.s 			page 1


   1              		.syntax unified
   2              		.cpu cortex-m4
   3              		.eabi_attribute 27, 1
   4              		.fpu fpv4-sp-d16
   5              		.eabi_attribute 20, 1
   6              		.eabi_attribute 21, 1
   7              		.eabi_attribute 23, 3
   8              		.eabi_attribute 24, 1
   9              		.eabi_attribute 25, 1
  10              		.eabi_attribute 26, 1
  11              		.eabi_attribute 30, 1
  12              		.eabi_attribute 34, 1
  13              		.eabi_attribute 18, 4
  14              		.thumb
  15              		.syntax unified
  16              		.file	"BLE.c"
  17              		.text
  18              	.Ltext0:
  19              		.cfi_sections	.debug_frame
  20              		.section	.text.Cy_BLE_Start,"ax",%progbits
  21              		.align	2
  22              		.global	Cy_BLE_Start
  23              		.thumb
  24              		.thumb_func
  25              		.type	Cy_BLE_Start, %function
  26              	Cy_BLE_Start:
  27              	.LFB256:
  28              		.file 1 "Generated_Source\\PSoC6\\BLE.c"
   1:Generated_Source\PSoC6/BLE.c **** /***************************************************************************//**
   2:Generated_Source\PSoC6/BLE.c **** * \file CY_BLE.c
   3:Generated_Source\PSoC6/BLE.c **** * \version 2.10
   4:Generated_Source\PSoC6/BLE.c **** * 
   5:Generated_Source\PSoC6/BLE.c **** * \brief
   6:Generated_Source\PSoC6/BLE.c **** *  This file contains the source code for the Common APIs of the BLE Component.
   7:Generated_Source\PSoC6/BLE.c **** * 
   8:Generated_Source\PSoC6/BLE.c **** ********************************************************************************
   9:Generated_Source\PSoC6/BLE.c **** * \copyright
  10:Generated_Source\PSoC6/BLE.c **** * Copyright 2017-2018, Cypress Semiconductor Corporation.  All rights reserved.
  11:Generated_Source\PSoC6/BLE.c **** * You may use this file only in accordance with the license, terms, conditions,
  12:Generated_Source\PSoC6/BLE.c **** * disclaimers, and limitations in the end user license agreement accompanying
  13:Generated_Source\PSoC6/BLE.c **** * the software package with which this file was provided.
  14:Generated_Source\PSoC6/BLE.c **** *******************************************************************************/
  15:Generated_Source\PSoC6/BLE.c **** 
  16:Generated_Source\PSoC6/BLE.c **** #include "ble/cy_ble_event_handler.h"
  17:Generated_Source\PSoC6/BLE.c **** #include "ble/cy_ble_hal_pvt.h"
  18:Generated_Source\PSoC6/BLE.c **** #include "ble/cy_ble.h"
  19:Generated_Source\PSoC6/BLE.c **** #include "BLE.h"
  20:Generated_Source\PSoC6/BLE.c **** #include "BLE_config.h"
  21:Generated_Source\PSoC6/BLE.c **** #include <stdlib.h>
  22:Generated_Source\PSoC6/BLE.c **** #include "cyfitter_sysint.h"
  23:Generated_Source\PSoC6/BLE.c **** #include "cyfitter_sysint_cfg.h"
  24:Generated_Source\PSoC6/BLE.c **** 
  25:Generated_Source\PSoC6/BLE.c **** #if(CY_BLE_CONFIG_STACK_MODE_CONTR_UART) /* HCI mode */ 
  26:Generated_Source\PSoC6/BLE.c **** #include "BLE_HAL_Uart.h"
  27:Generated_Source\PSoC6/BLE.c **** #endif  /* (CY_BLE_CONFIG_STACK_MODE_CONTR_UART) */   
  28:Generated_Source\PSoC6/BLE.c **** 
  29:Generated_Source\PSoC6/BLE.c **** #if(CY_BLE_CONFIG_STACK_MODE_HOST_UART)
ARM GAS  C:\Users\SimonChen\AppData\Local\Temp\ccpsswYs.s 			page 2


  30:Generated_Source\PSoC6/BLE.c **** #include "BLE_Host_Uart.h"
  31:Generated_Source\PSoC6/BLE.c **** #endif /* CY_BLE_CONFIG_STACK_MODE_HOST_UART */
  32:Generated_Source\PSoC6/BLE.c **** 
  33:Generated_Source\PSoC6/BLE.c **** #if(CY_BLE_HOST_CONTR_CORE)
  34:Generated_Source\PSoC6/BLE.c **** /***************************************
  35:Generated_Source\PSoC6/BLE.c **** * Global Variables
  36:Generated_Source\PSoC6/BLE.c **** ***************************************/
  37:Generated_Source\PSoC6/BLE.c **** 
  38:Generated_Source\PSoC6/BLE.c **** /**
  39:Generated_Source\PSoC6/BLE.c ****  \addtogroup group_globals
  40:Generated_Source\PSoC6/BLE.c ****  @{
  41:Generated_Source\PSoC6/BLE.c **** */
  42:Generated_Source\PSoC6/BLE.c **** 
  43:Generated_Source\PSoC6/BLE.c **** /** Indicates whether the BLE has been initialized. The variable is initialized to
  44:Generated_Source\PSoC6/BLE.c ****    0 and set to 1 the first time Cy_BLE_Start() is called. This allows the component
  45:Generated_Source\PSoC6/BLE.c ****    to restart without reinitialization after the first call to the Cy_BLE_Start() 
  46:Generated_Source\PSoC6/BLE.c ****    routine. If reinitialization of the component is required, the variable should 
  47:Generated_Source\PSoC6/BLE.c ****    be set to 0 before the Cy_BLE_Start() routine is called. Alternatively, the BLE
  48:Generated_Source\PSoC6/BLE.c ****    can be reinitialized by calling the Cy_BLE_Init() function.
  49:Generated_Source\PSoC6/BLE.c **** */
  50:Generated_Source\PSoC6/BLE.c **** uint8_t  cy_ble_initVar = 0u;
  51:Generated_Source\PSoC6/BLE.c **** 
  52:Generated_Source\PSoC6/BLE.c **** /** @} group_globals */
  53:Generated_Source\PSoC6/BLE.c ****     
  54:Generated_Source\PSoC6/BLE.c **** /******************************************************************************
  55:Generated_Source\PSoC6/BLE.c **** * Function Name: Cy_BLE_Start
  56:Generated_Source\PSoC6/BLE.c **** ***************************************************************************//**
  57:Generated_Source\PSoC6/BLE.c **** * 
  58:Generated_Source\PSoC6/BLE.c **** *  This function initializes the BLE Stack which consists of the BLE Stack 
  59:Generated_Source\PSoC6/BLE.c **** *  Manager, BLE Controller, and BLE Host modules. It takes care of initializing
  60:Generated_Source\PSoC6/BLE.c **** *  the Profile layer, schedulers, Timer and other platform-related
  61:Generated_Source\PSoC6/BLE.c **** *  resources required for the BLE component. It also registers the callback 
  62:Generated_Source\PSoC6/BLE.c **** *  function for BLE events that will be registered in the BLE stack.
  63:Generated_Source\PSoC6/BLE.c **** * 
  64:Generated_Source\PSoC6/BLE.c **** *  Note that this function does not reset the BLE Stack.
  65:Generated_Source\PSoC6/BLE.c **** * 
  66:Generated_Source\PSoC6/BLE.c **** *  For the HCI-Mode of operation, this function will not initialize the BLE Host 
  67:Generated_Source\PSoC6/BLE.c **** *  module.
  68:Generated_Source\PSoC6/BLE.c **** * 
  69:Generated_Source\PSoC6/BLE.c **** *  Calling this function results in generation of a CY_BLE_EVT_STACK_ON event
  70:Generated_Source\PSoC6/BLE.c **** *  on successful initialization of the BLE Stack.
  71:Generated_Source\PSoC6/BLE.c **** *
  72:Generated_Source\PSoC6/BLE.c **** *  In the Dual Core mode, this function should be called on both cores in the 
  73:Generated_Source\PSoC6/BLE.c **** *  following sequence:
  74:Generated_Source\PSoC6/BLE.c **** *   - call this function on CM0+ core to initialize the Controller.
  75:Generated_Source\PSoC6/BLE.c **** *   - start CM4 core by calling Cy_SysEnableCM4() function.
  76:Generated_Source\PSoC6/BLE.c **** *   - call this function on CM4 core to initialize the Host and Profiles.
  77:Generated_Source\PSoC6/BLE.c **** * 
  78:Generated_Source\PSoC6/BLE.c **** *  \param callbackFunc: Event callback function to receive events from BLE stack.
  79:Generated_Source\PSoC6/BLE.c **** *   cy_ble_callback_t is a function pointer type.
  80:Generated_Source\PSoC6/BLE.c **** * 
  81:Generated_Source\PSoC6/BLE.c **** * \return
  82:Generated_Source\PSoC6/BLE.c **** *  cy_en_ble_api_result_t : Return value indicates if the function succeeded or 
  83:Generated_Source\PSoC6/BLE.c **** *  failed. The following are possible error codes.
  84:Generated_Source\PSoC6/BLE.c **** * 
  85:Generated_Source\PSoC6/BLE.c **** *   <table>
  86:Generated_Source\PSoC6/BLE.c **** *  	  <tr>
ARM GAS  C:\Users\SimonChen\AppData\Local\Temp\ccpsswYs.s 			page 3


  87:Generated_Source\PSoC6/BLE.c **** *       <th>Error codes</th>
  88:Generated_Source\PSoC6/BLE.c **** *       <th>Description</th>
  89:Generated_Source\PSoC6/BLE.c **** *     </tr>
  90:Generated_Source\PSoC6/BLE.c **** *     <tr>
  91:Generated_Source\PSoC6/BLE.c **** *       <td>CY_BLE_SUCCESS</td>
  92:Generated_Source\PSoC6/BLE.c **** *       <td>On successful operation.</td>
  93:Generated_Source\PSoC6/BLE.c **** *     </tr>
  94:Generated_Source\PSoC6/BLE.c **** *     <tr>
  95:Generated_Source\PSoC6/BLE.c **** *       <td>CY_BLE_ERROR_INVALID_PARAMETER</td>
  96:Generated_Source\PSoC6/BLE.c **** *       <td>On passing a NULL pointer to the function when the BLE stack is not built in the HCI mo
  97:Generated_Source\PSoC6/BLE.c **** *			CY_BLE_ERROR_INVALID_PARAMETER is never returned in HCI mode.</td>
  98:Generated_Source\PSoC6/BLE.c **** *     </tr>
  99:Generated_Source\PSoC6/BLE.c **** *     <tr>
 100:Generated_Source\PSoC6/BLE.c **** *       <td>CY_BLE_ERROR_REPEATED_ATTEMPTS</td>
 101:Generated_Source\PSoC6/BLE.c **** *       <td>On invoking this function more than once without calling Cy_BLE_StackShutdown() 
 102:Generated_Source\PSoC6/BLE.c **** *           function between calls to this function.</td>
 103:Generated_Source\PSoC6/BLE.c **** *     </tr>
 104:Generated_Source\PSoC6/BLE.c **** *     <tr>
 105:Generated_Source\PSoC6/BLE.c **** *       <td>CY_BLE_ERROR_MEMORY_ALLOCATION_FAILED</td>
 106:Generated_Source\PSoC6/BLE.c **** *       <td>There is insufficient memory available.</td>
 107:Generated_Source\PSoC6/BLE.c **** *     </tr>
 108:Generated_Source\PSoC6/BLE.c **** *   </table>
 109:Generated_Source\PSoC6/BLE.c **** * 
 110:Generated_Source\PSoC6/BLE.c **** *  \globalvars
 111:Generated_Source\PSoC6/BLE.c **** *   The cy_ble_initVar variable is used to indicate the initial
 112:Generated_Source\PSoC6/BLE.c **** *   configuration of this component. The variable is initialized to a zero (0u)
 113:Generated_Source\PSoC6/BLE.c **** *   and set to one (1u) the first time Cy_BLE_Start() is called. This
 114:Generated_Source\PSoC6/BLE.c **** *   allows for component initialization without re-initialization in all
 115:Generated_Source\PSoC6/BLE.c **** *   subsequent calls to the Cy_BLE_Start() routine.
 116:Generated_Source\PSoC6/BLE.c **** * 
 117:Generated_Source\PSoC6/BLE.c **** ******************************************************************************/
 118:Generated_Source\PSoC6/BLE.c **** cy_en_ble_api_result_t Cy_BLE_Start(cy_ble_callback_t callbackFunc)
 119:Generated_Source\PSoC6/BLE.c **** {
  29              		.loc 1 119 0
  30              		.cfi_startproc
  31              		@ args = 0, pretend = 0, frame = 0
  32              		@ frame_needed = 0, uses_anonymous_args = 0
  33              	.LVL0:
  34 0000 08B5     		push	{r3, lr}
  35              		.cfi_def_cfa_offset 8
  36              		.cfi_offset 3, -8
  37              		.cfi_offset 14, -4
  38              	.LVL1:
 120:Generated_Source\PSoC6/BLE.c ****     cy_en_ble_api_result_t apiResult = CY_BLE_SUCCESS;
 121:Generated_Source\PSoC6/BLE.c ****     
 122:Generated_Source\PSoC6/BLE.c **** #if CY_BLE_MODE_PROFILE
 123:Generated_Source\PSoC6/BLE.c ****     /* Profile mode */
 124:Generated_Source\PSoC6/BLE.c ****     if(callbackFunc != NULL)
  39              		.loc 1 124 0
  40 0002 18B1     		cbz	r0, .L5
 125:Generated_Source\PSoC6/BLE.c ****     {
 126:Generated_Source\PSoC6/BLE.c ****         cy_ble_config.callbackFunc = callbackFunc;
  41              		.loc 1 126 0
  42 0004 094A     		ldr	r2, .L7
  43 0006 D062     		str	r0, [r2, #44]
 120:Generated_Source\PSoC6/BLE.c ****     cy_en_ble_api_result_t apiResult = CY_BLE_SUCCESS;
  44              		.loc 1 120 0
ARM GAS  C:\Users\SimonChen\AppData\Local\Temp\ccpsswYs.s 			page 4


  45 0008 0020     		movs	r0, #0
  46              	.LVL2:
  47 000a 00E0     		b	.L2
  48              	.LVL3:
  49              	.L5:
 127:Generated_Source\PSoC6/BLE.c ****     }
 128:Generated_Source\PSoC6/BLE.c ****     else
 129:Generated_Source\PSoC6/BLE.c ****     {
 130:Generated_Source\PSoC6/BLE.c ****         apiResult = CY_BLE_ERROR_INVALID_PARAMETER;
  50              		.loc 1 130 0
  51 000c 0848     		ldr	r0, .L7+4
  52              	.LVL4:
  53              	.L2:
 131:Generated_Source\PSoC6/BLE.c ****     }
 132:Generated_Source\PSoC6/BLE.c **** #else
 133:Generated_Source\PSoC6/BLE.c ****     /* HCI mode */
 134:Generated_Source\PSoC6/BLE.c ****     #if(CY_BLE_CONFIG_STACK_MODE_CONTR_UART)
 135:Generated_Source\PSoC6/BLE.c ****         cy_ble_config.uartIsrConfig = &BLE_uart_isr_cfg;
 136:Generated_Source\PSoC6/BLE.c ****         cy_ble_config.uartConfig = &BLE_HAL_Uart_config;
 137:Generated_Source\PSoC6/BLE.c ****         cy_ble_config.uartHw = BLE_HAL_Uart_HW;
 138:Generated_Source\PSoC6/BLE.c ****     #endif /* CY_BLE_CONFIG_STACK_MODE_CONTR_UART */
 139:Generated_Source\PSoC6/BLE.c **** #endif  /* CY_BLE_MODE_PROFILE */
 140:Generated_Source\PSoC6/BLE.c ****     
 141:Generated_Source\PSoC6/BLE.c ****     /* Init and enable BLE */
 142:Generated_Source\PSoC6/BLE.c ****     if(apiResult == CY_BLE_SUCCESS)
  54              		.loc 1 142 0
  55 000e 58B9     		cbnz	r0, .L3
 143:Generated_Source\PSoC6/BLE.c ****     {
 144:Generated_Source\PSoC6/BLE.c ****         /* If not initialized, then initialize all the required hardware and software */
 145:Generated_Source\PSoC6/BLE.c ****         if(cy_ble_initVar == 0u)
  56              		.loc 1 145 0
  57 0010 084B     		ldr	r3, .L7+8
  58 0012 1B78     		ldrb	r3, [r3]	@ zero_extendqisi2
  59 0014 2BB9     		cbnz	r3, .L4
 146:Generated_Source\PSoC6/BLE.c ****         {
 147:Generated_Source\PSoC6/BLE.c ****             apiResult = Cy_BLE_Init(&cy_ble_config);
  60              		.loc 1 147 0
  61 0016 0548     		ldr	r0, .L7
  62              	.LVL5:
  63 0018 FFF7FEFF 		bl	Cy_BLE_Init
  64              	.LVL6:
 148:Generated_Source\PSoC6/BLE.c ****             cy_ble_initVar = 1u;
  65              		.loc 1 148 0
  66 001c 0122     		movs	r2, #1
  67 001e 054B     		ldr	r3, .L7+8
  68 0020 1A70     		strb	r2, [r3]
  69              	.L4:
 149:Generated_Source\PSoC6/BLE.c ****         }
 150:Generated_Source\PSoC6/BLE.c ****         if(apiResult == CY_BLE_SUCCESS)
  70              		.loc 1 150 0
  71 0022 08B9     		cbnz	r0, .L3
 151:Generated_Source\PSoC6/BLE.c ****         {
 152:Generated_Source\PSoC6/BLE.c ****             apiResult = Cy_BLE_Enable();
  72              		.loc 1 152 0
  73 0024 FFF7FEFF 		bl	Cy_BLE_Enable
  74              	.LVL7:
  75              	.L3:
ARM GAS  C:\Users\SimonChen\AppData\Local\Temp\ccpsswYs.s 			page 5


 153:Generated_Source\PSoC6/BLE.c ****         }
 154:Generated_Source\PSoC6/BLE.c ****     }
 155:Generated_Source\PSoC6/BLE.c ****     return (apiResult);
 156:Generated_Source\PSoC6/BLE.c **** }
  76              		.loc 1 156 0
  77 0028 08BD     		pop	{r3, pc}
  78              	.L8:
  79 002a 00BF     		.align	2
  80              	.L7:
  81 002c 00000000 		.word	cy_ble_config
  82 0030 01001600 		.word	1441793
  83 0034 00000000 		.word	.LANCHOR0
  84              		.cfi_endproc
  85              	.LFE256:
  86              		.size	Cy_BLE_Start, .-Cy_BLE_Start
  87              		.section	.text.Cy_BLE_Stop,"ax",%progbits
  88              		.align	2
  89              		.global	Cy_BLE_Stop
  90              		.thumb
  91              		.thumb_func
  92              		.type	Cy_BLE_Stop, %function
  93              	Cy_BLE_Stop:
  94              	.LFB257:
 157:Generated_Source\PSoC6/BLE.c **** 
 158:Generated_Source\PSoC6/BLE.c **** 
 159:Generated_Source\PSoC6/BLE.c **** /******************************************************************************
 160:Generated_Source\PSoC6/BLE.c **** * Function Name: Cy_BLE_Stop
 161:Generated_Source\PSoC6/BLE.c **** ***************************************************************************//**
 162:Generated_Source\PSoC6/BLE.c **** * 
 163:Generated_Source\PSoC6/BLE.c **** *  This function stops any ongoing operation in the BLE Stack and forces the 
 164:Generated_Source\PSoC6/BLE.c **** *  BLE Stack to shut down. The only function that can be called after calling
 165:Generated_Source\PSoC6/BLE.c **** *  this function is Cy_BLE_Start() when Cy_BLE_GetState() API returns 
 166:Generated_Source\PSoC6/BLE.c **** *  CY_BLE_STATE_STOPPED state. 
 167:Generated_Source\PSoC6/BLE.c **** *
 168:Generated_Source\PSoC6/BLE.c **** *  Calling this function results in generation of 
 169:Generated_Source\PSoC6/BLE.c **** *  a CY_BLE_EVT_STACK_SHUTDOWN_COMPLETE event on a successful stack shutdown.
 170:Generated_Source\PSoC6/BLE.c **** * 
 171:Generated_Source\PSoC6/BLE.c **** * \return
 172:Generated_Source\PSoC6/BLE.c **** *  cy_en_ble_api_result_t : Return value indicates if the function succeeded or
 173:Generated_Source\PSoC6/BLE.c **** *  failed. Following are the possible error codes.
 174:Generated_Source\PSoC6/BLE.c **** *
 175:Generated_Source\PSoC6/BLE.c **** *    Errors codes                    | Description
 176:Generated_Source\PSoC6/BLE.c **** *    ------------                    | -----------
 177:Generated_Source\PSoC6/BLE.c **** *    CY_BLE_SUCCESS                  | On successful operation.
 178:Generated_Source\PSoC6/BLE.c **** *    CY_BLE_ERROR_INVALID_OPERATION  | On calling Cy_BLE_Stop before calling Cy_BLE_Start.
 179:Generated_Source\PSoC6/BLE.c **** *
 180:Generated_Source\PSoC6/BLE.c **** ******************************************************************************/
 181:Generated_Source\PSoC6/BLE.c **** cy_en_ble_api_result_t Cy_BLE_Stop(void)
 182:Generated_Source\PSoC6/BLE.c **** {
  95              		.loc 1 182 0
  96              		.cfi_startproc
  97              		@ args = 0, pretend = 0, frame = 0
  98              		@ frame_needed = 0, uses_anonymous_args = 0
  99 0000 08B5     		push	{r3, lr}
 100              		.cfi_def_cfa_offset 8
 101              		.cfi_offset 3, -8
 102              		.cfi_offset 14, -4
ARM GAS  C:\Users\SimonChen\AppData\Local\Temp\ccpsswYs.s 			page 6


 183:Generated_Source\PSoC6/BLE.c ****     return( Cy_BLE_Disable() );
 103              		.loc 1 183 0
 104 0002 FFF7FEFF 		bl	Cy_BLE_Disable
 105              	.LVL8:
 184:Generated_Source\PSoC6/BLE.c **** }
 106              		.loc 1 184 0
 107 0006 08BD     		pop	{r3, pc}
 108              		.cfi_endproc
 109              	.LFE257:
 110              		.size	Cy_BLE_Stop, .-Cy_BLE_Stop
 111              		.global	cy_ble_initVar
 112              		.bss
 113              		.set	.LANCHOR0,. + 0
 114              		.type	cy_ble_initVar, %object
 115              		.size	cy_ble_initVar, 1
 116              	cy_ble_initVar:
 117 0000 00       		.space	1
 118              		.text
 119              	.Letext0:
 120              		.file 2 "c:\\program files (x86)\\cypress\\psoc creator\\4.3\\psoc creator\\import\\gnu\\arm\\5.4.
 121              		.file 3 "c:\\program files (x86)\\cypress\\psoc creator\\4.3\\psoc creator\\import\\gnu\\arm\\5.4.
 122              		.file 4 "Generated_Source\\PSoC6\\pdl\\drivers/peripheral/device/cy_device.h"
 123              		.file 5 "Generated_Source\\PSoC6\\pdl\\devices/psoc6/include/cy8c6347bzi_bld53.h"
 124              		.file 6 "Generated_Source\\PSoC6\\pdl\\drivers/peripheral/sysint/cy_sysint.h"
 125              		.file 7 "Generated_Source\\PSoC6\\pdl\\middleware/ble/cy_ble_stack.h"
 126              		.file 8 "Generated_Source\\PSoC6\\pdl\\middleware/ble/cy_ble_stack_host_main.h"
 127              		.file 9 "Generated_Source\\PSoC6\\pdl\\middleware/ble/cy_ble_stack_gatt.h"
 128              		.file 10 "Generated_Source\\PSoC6\\pdl\\middleware/ble/cy_ble_stack_gap.h"
 129              		.file 11 "Generated_Source\\PSoC6\\pdl\\middleware/ble/cy_ble_stack_gap_central.h"
 130              		.file 12 "Generated_Source\\PSoC6\\pdl\\middleware/ble/cy_ble_stack_gap_peripheral.h"
 131              		.file 13 "Generated_Source\\PSoC6\\pdl\\middleware/ble/cy_ble_gap.h"
 132              		.file 14 "Generated_Source\\PSoC6\\pdl\\middleware/ble/cy_ble_stack_gatt_db.h"
 133              		.file 15 "Generated_Source\\PSoC6\\pdl\\middleware/ble/cy_ble_gatt.h"
 134              		.file 16 "Generated_Source\\PSoC6\\pdl\\middleware/ble/cy_ble.h"
 135              		.file 17 "Generated_Source\\PSoC6\\pdl\\cmsis/include/core_cm4.h"