ARM GAS  C:\Users\SimonChen\AppData\Local\Temp\ccD98YNQ.s 			page 1


   1              		.syntax unified
   2              		.cpu cortex-m0plus
   3              		.fpu softvfp
   4              		.eabi_attribute 20, 1
   5              		.eabi_attribute 21, 1
   6              		.eabi_attribute 23, 3
   7              		.eabi_attribute 24, 1
   8              		.eabi_attribute 25, 1
   9              		.eabi_attribute 26, 1
  10              		.eabi_attribute 30, 1
  11              		.eabi_attribute 34, 0
  12              		.eabi_attribute 18, 4
  13              		.thumb
  14              		.syntax unified
  15              		.file	"cyfitter_cfg.c"
  16              		.text
  17              	.Ltext0:
  18              		.cfi_sections	.debug_frame
  19              		.section	.text.CyClockStartupError,"ax",%progbits
  20              		.align	2
  21              		.code	16
  22              		.thumb_func
  23              		.type	CyClockStartupError, %function
  24              	CyClockStartupError:
  25              	.LFB187:
  26              		.file 1 "Generated_Source\\PSoC6\\cyfitter_cfg.c"
   1:Generated_Source\PSoC6/cyfitter_cfg.c **** 
   2:Generated_Source\PSoC6/cyfitter_cfg.c **** /*******************************************************************************
   3:Generated_Source\PSoC6/cyfitter_cfg.c **** * File Name: cyfitter_cfg.c
   4:Generated_Source\PSoC6/cyfitter_cfg.c **** * 
   5:Generated_Source\PSoC6/cyfitter_cfg.c **** * PSoC Creator  4.3 Early Access
   6:Generated_Source\PSoC6/cyfitter_cfg.c **** *
   7:Generated_Source\PSoC6/cyfitter_cfg.c **** * Description:
   8:Generated_Source\PSoC6/cyfitter_cfg.c **** * This file contains device initialization code.
   9:Generated_Source\PSoC6/cyfitter_cfg.c **** * Except for the user defined sections in CyClockStartupError(), this file should not be modified.
  10:Generated_Source\PSoC6/cyfitter_cfg.c **** * This file is automatically generated by PSoC Creator.
  11:Generated_Source\PSoC6/cyfitter_cfg.c **** *
  12:Generated_Source\PSoC6/cyfitter_cfg.c **** ********************************************************************************
  13:Generated_Source\PSoC6/cyfitter_cfg.c **** * Copyright (c) 2007-2019 Cypress Semiconductor.  All rights reserved.
  14:Generated_Source\PSoC6/cyfitter_cfg.c **** * You may use this file only in accordance with the license, terms, conditions, 
  15:Generated_Source\PSoC6/cyfitter_cfg.c **** * disclaimers, and limitations in the end user license agreement accompanying 
  16:Generated_Source\PSoC6/cyfitter_cfg.c **** * the software package with which this file was provided.
  17:Generated_Source\PSoC6/cyfitter_cfg.c **** ********************************************************************************/
  18:Generated_Source\PSoC6/cyfitter_cfg.c **** 
  19:Generated_Source\PSoC6/cyfitter_cfg.c **** #include <string.h>
  20:Generated_Source\PSoC6/cyfitter_cfg.c **** #include "cydevice_trm.h"
  21:Generated_Source\PSoC6/cyfitter_cfg.c **** #include "cyfitter.h"
  22:Generated_Source\PSoC6/cyfitter_cfg.c **** #include "gpio/cy_gpio.h"
  23:Generated_Source\PSoC6/cyfitter_cfg.c **** #include "syslib/cy_syslib.h"
  24:Generated_Source\PSoC6/cyfitter_cfg.c **** #include "cyfitter_cfg.h"
  25:Generated_Source\PSoC6/cyfitter_cfg.c **** #include "cyapicallbacks.h"
  26:Generated_Source\PSoC6/cyfitter_cfg.c **** #include "sysclk/cy_sysclk.h"
  27:Generated_Source\PSoC6/cyfitter_cfg.c **** #include "systick/cy_systick.h"
  28:Generated_Source\PSoC6/cyfitter_cfg.c **** 
  29:Generated_Source\PSoC6/cyfitter_cfg.c **** #define CY_NEED_CYCLOCKSTARTUPERROR 1
  30:Generated_Source\PSoC6/cyfitter_cfg.c **** #include "syspm/cy_syspm.h"
  31:Generated_Source\PSoC6/cyfitter_cfg.c **** 
ARM GAS  C:\Users\SimonChen\AppData\Local\Temp\ccD98YNQ.s 			page 2


  32:Generated_Source\PSoC6/cyfitter_cfg.c **** 
  33:Generated_Source\PSoC6/cyfitter_cfg.c **** #if defined(__GNUC__) || defined(__ARMCC_VERSION)
  34:Generated_Source\PSoC6/cyfitter_cfg.c ****     #define CYPACKED 
  35:Generated_Source\PSoC6/cyfitter_cfg.c ****     #define CYPACKED_ATTR __attribute__ ((packed))
  36:Generated_Source\PSoC6/cyfitter_cfg.c ****     #define CYALIGNED __attribute__ ((aligned))
  37:Generated_Source\PSoC6/cyfitter_cfg.c ****     #define CY_CFG_UNUSED __attribute__ ((unused))
  38:Generated_Source\PSoC6/cyfitter_cfg.c ****     #ifndef CY_CFG_SECTION
  39:Generated_Source\PSoC6/cyfitter_cfg.c ****         #define CY_CFG_SECTION __attribute__ ((section(".psocinit")))
  40:Generated_Source\PSoC6/cyfitter_cfg.c ****     #endif
  41:Generated_Source\PSoC6/cyfitter_cfg.c ****     
  42:Generated_Source\PSoC6/cyfitter_cfg.c ****     #if defined(__ARMCC_VERSION)
  43:Generated_Source\PSoC6/cyfitter_cfg.c ****         #define CY_CFG_MEMORY_BARRIER() __memory_changed()
  44:Generated_Source\PSoC6/cyfitter_cfg.c ****     #else
  45:Generated_Source\PSoC6/cyfitter_cfg.c ****         #define CY_CFG_MEMORY_BARRIER() __sync_synchronize()
  46:Generated_Source\PSoC6/cyfitter_cfg.c ****     #endif
  47:Generated_Source\PSoC6/cyfitter_cfg.c ****     
  48:Generated_Source\PSoC6/cyfitter_cfg.c **** #elif defined(__ICCARM__)
  49:Generated_Source\PSoC6/cyfitter_cfg.c ****     #include <intrinsics.h>
  50:Generated_Source\PSoC6/cyfitter_cfg.c **** 
  51:Generated_Source\PSoC6/cyfitter_cfg.c ****     #define CYPACKED __packed
  52:Generated_Source\PSoC6/cyfitter_cfg.c ****     #define CYPACKED_ATTR 
  53:Generated_Source\PSoC6/cyfitter_cfg.c ****     #define CYALIGNED _Pragma("data_alignment=4")
  54:Generated_Source\PSoC6/cyfitter_cfg.c ****     #define CY_CFG_UNUSED _Pragma("diag_suppress=Pe177")
  55:Generated_Source\PSoC6/cyfitter_cfg.c ****     #define CY_CFG_SECTION _Pragma("location=\".psocinit\"")
  56:Generated_Source\PSoC6/cyfitter_cfg.c ****     
  57:Generated_Source\PSoC6/cyfitter_cfg.c ****     #define CY_CFG_MEMORY_BARRIER() __DMB()
  58:Generated_Source\PSoC6/cyfitter_cfg.c ****     
  59:Generated_Source\PSoC6/cyfitter_cfg.c **** #else
  60:Generated_Source\PSoC6/cyfitter_cfg.c ****     #error Unsupported toolchain
  61:Generated_Source\PSoC6/cyfitter_cfg.c **** #endif
  62:Generated_Source\PSoC6/cyfitter_cfg.c **** 
  63:Generated_Source\PSoC6/cyfitter_cfg.c **** #ifndef CYCODE
  64:Generated_Source\PSoC6/cyfitter_cfg.c ****     #define CYCODE
  65:Generated_Source\PSoC6/cyfitter_cfg.c **** #endif
  66:Generated_Source\PSoC6/cyfitter_cfg.c **** #ifndef CYDATA
  67:Generated_Source\PSoC6/cyfitter_cfg.c ****     #define CYDATA
  68:Generated_Source\PSoC6/cyfitter_cfg.c **** #endif
  69:Generated_Source\PSoC6/cyfitter_cfg.c **** #ifndef CYFAR
  70:Generated_Source\PSoC6/cyfitter_cfg.c ****     #define CYFAR
  71:Generated_Source\PSoC6/cyfitter_cfg.c **** #endif
  72:Generated_Source\PSoC6/cyfitter_cfg.c **** #ifndef CYXDATA
  73:Generated_Source\PSoC6/cyfitter_cfg.c ****     #define CYXDATA
  74:Generated_Source\PSoC6/cyfitter_cfg.c **** #endif
  75:Generated_Source\PSoC6/cyfitter_cfg.c **** 
  76:Generated_Source\PSoC6/cyfitter_cfg.c **** 
  77:Generated_Source\PSoC6/cyfitter_cfg.c **** CY_CFG_UNUSED
  78:Generated_Source\PSoC6/cyfitter_cfg.c **** static void CYMEMZERO(void *s, size_t n);
  79:Generated_Source\PSoC6/cyfitter_cfg.c **** CY_CFG_UNUSED
  80:Generated_Source\PSoC6/cyfitter_cfg.c **** static void CYMEMZERO(void *s, size_t n)
  81:Generated_Source\PSoC6/cyfitter_cfg.c **** {
  82:Generated_Source\PSoC6/cyfitter_cfg.c **** 	(void)memset(s, 0, n);
  83:Generated_Source\PSoC6/cyfitter_cfg.c **** }
  84:Generated_Source\PSoC6/cyfitter_cfg.c **** CY_CFG_UNUSED
  85:Generated_Source\PSoC6/cyfitter_cfg.c **** static void CYCONFIGCPY(void *dest, const void *src, size_t n);
  86:Generated_Source\PSoC6/cyfitter_cfg.c **** CY_CFG_UNUSED
  87:Generated_Source\PSoC6/cyfitter_cfg.c **** static void CYCONFIGCPY(void *dest, const void *src, size_t n)
  88:Generated_Source\PSoC6/cyfitter_cfg.c **** {
ARM GAS  C:\Users\SimonChen\AppData\Local\Temp\ccD98YNQ.s 			page 3


  89:Generated_Source\PSoC6/cyfitter_cfg.c **** 	(void)memcpy(dest, src, n);
  90:Generated_Source\PSoC6/cyfitter_cfg.c **** }
  91:Generated_Source\PSoC6/cyfitter_cfg.c **** CY_CFG_UNUSED
  92:Generated_Source\PSoC6/cyfitter_cfg.c **** static void CYCONFIGCPYCODE(void *dest, const void *src, size_t n);
  93:Generated_Source\PSoC6/cyfitter_cfg.c **** CY_CFG_UNUSED
  94:Generated_Source\PSoC6/cyfitter_cfg.c **** static void CYCONFIGCPYCODE(void *dest, const void *src, size_t n)
  95:Generated_Source\PSoC6/cyfitter_cfg.c **** {
  96:Generated_Source\PSoC6/cyfitter_cfg.c **** 	(void)memcpy(dest, src, n);
  97:Generated_Source\PSoC6/cyfitter_cfg.c **** }
  98:Generated_Source\PSoC6/cyfitter_cfg.c **** 
  99:Generated_Source\PSoC6/cyfitter_cfg.c **** 
 100:Generated_Source\PSoC6/cyfitter_cfg.c **** 
 101:Generated_Source\PSoC6/cyfitter_cfg.c **** 
 102:Generated_Source\PSoC6/cyfitter_cfg.c **** /* Clock startup error codes                                                   */
 103:Generated_Source\PSoC6/cyfitter_cfg.c **** #define CYCLOCKSTART_NO_ERROR    0u
 104:Generated_Source\PSoC6/cyfitter_cfg.c **** #define CYCLOCKSTART_XTAL_ERROR  1u
 105:Generated_Source\PSoC6/cyfitter_cfg.c **** #define CYCLOCKSTART_32KHZ_ERROR 2u
 106:Generated_Source\PSoC6/cyfitter_cfg.c **** #define CYCLOCKSTART_PLL_ERROR   3u
 107:Generated_Source\PSoC6/cyfitter_cfg.c **** #define CYCLOCKSTART_FLL_ERROR   4u
 108:Generated_Source\PSoC6/cyfitter_cfg.c **** #define CYCLOCKSTART_WCO_ERROR   5u
 109:Generated_Source\PSoC6/cyfitter_cfg.c **** 
 110:Generated_Source\PSoC6/cyfitter_cfg.c **** 
 111:Generated_Source\PSoC6/cyfitter_cfg.c **** #ifdef CY_NEED_CYCLOCKSTARTUPERROR
 112:Generated_Source\PSoC6/cyfitter_cfg.c **** /*******************************************************************************
 113:Generated_Source\PSoC6/cyfitter_cfg.c **** * Function Name: CyClockStartupError
 114:Generated_Source\PSoC6/cyfitter_cfg.c **** ********************************************************************************
 115:Generated_Source\PSoC6/cyfitter_cfg.c **** * Summary:
 116:Generated_Source\PSoC6/cyfitter_cfg.c **** *  If an error is encountered during clock configuration (crystal startup error,
 117:Generated_Source\PSoC6/cyfitter_cfg.c **** *  PLL lock error, etc.), the system will end up here.  Unless reimplemented by
 118:Generated_Source\PSoC6/cyfitter_cfg.c **** *  the customer, this function will stop in an infinite loop.
 119:Generated_Source\PSoC6/cyfitter_cfg.c **** *
 120:Generated_Source\PSoC6/cyfitter_cfg.c **** * Parameters:
 121:Generated_Source\PSoC6/cyfitter_cfg.c **** *   void
 122:Generated_Source\PSoC6/cyfitter_cfg.c **** *
 123:Generated_Source\PSoC6/cyfitter_cfg.c **** * Return:
 124:Generated_Source\PSoC6/cyfitter_cfg.c **** *   void
 125:Generated_Source\PSoC6/cyfitter_cfg.c **** *
 126:Generated_Source\PSoC6/cyfitter_cfg.c **** *******************************************************************************/
 127:Generated_Source\PSoC6/cyfitter_cfg.c **** CY_CFG_UNUSED
 128:Generated_Source\PSoC6/cyfitter_cfg.c **** static void CyClockStartupError(uint8 errorCode);
 129:Generated_Source\PSoC6/cyfitter_cfg.c **** CY_CFG_UNUSED
 130:Generated_Source\PSoC6/cyfitter_cfg.c **** static void CyClockStartupError(uint8 errorCode)
 131:Generated_Source\PSoC6/cyfitter_cfg.c **** {
  27              		.loc 1 131 0
  28              		.cfi_startproc
  29              		@ Volatile: function does not return.
  30              		@ args = 0, pretend = 0, frame = 0
  31              		@ frame_needed = 0, uses_anonymous_args = 0
  32              		@ link register save eliminated.
  33              	.LVL0:
  34              	.L2:
  35 0000 FEE7     		b	.L2
  36              		.cfi_endproc
  37              	.LFE187:
  38              		.size	CyClockStartupError, .-CyClockStartupError
  39 0002 C046     		.section	.text.ClockInit,"ax",%progbits
  40              		.align	2
ARM GAS  C:\Users\SimonChen\AppData\Local\Temp\ccD98YNQ.s 			page 4


  41              		.code	16
  42              		.thumb_func
  43              		.type	ClockInit, %function
  44              	ClockInit:
  45              	.LFB188:
 132:Generated_Source\PSoC6/cyfitter_cfg.c ****     /* To remove the compiler warning if errorCode not used.                */
 133:Generated_Source\PSoC6/cyfitter_cfg.c ****     errorCode = errorCode;
 134:Generated_Source\PSoC6/cyfitter_cfg.c **** 
 135:Generated_Source\PSoC6/cyfitter_cfg.c ****     /* If we have a clock startup error (bad MHz crystal, PLL lock, etc.),  */
 136:Generated_Source\PSoC6/cyfitter_cfg.c ****     /* we will end up here to allow the customer to implement something to  */
 137:Generated_Source\PSoC6/cyfitter_cfg.c ****     /* deal with the clock condition.                                       */
 138:Generated_Source\PSoC6/cyfitter_cfg.c **** 
 139:Generated_Source\PSoC6/cyfitter_cfg.c **** #ifdef CY_CFG_CLOCK_STARTUP_ERROR_CALLBACK
 140:Generated_Source\PSoC6/cyfitter_cfg.c ****     CY_CFG_Clock_Startup_ErrorCallback();
 141:Generated_Source\PSoC6/cyfitter_cfg.c **** #else
 142:Generated_Source\PSoC6/cyfitter_cfg.c ****     while(1) {}
 143:Generated_Source\PSoC6/cyfitter_cfg.c **** #endif /* CY_CFG_CLOCK_STARTUP_ERROR_CALLBACK */
 144:Generated_Source\PSoC6/cyfitter_cfg.c **** }
 145:Generated_Source\PSoC6/cyfitter_cfg.c **** #endif
 146:Generated_Source\PSoC6/cyfitter_cfg.c **** 
 147:Generated_Source\PSoC6/cyfitter_cfg.c **** static void ClockInit(void);
 148:Generated_Source\PSoC6/cyfitter_cfg.c **** static void ClockInit(void)
 149:Generated_Source\PSoC6/cyfitter_cfg.c **** {
  46              		.loc 1 149 0
  47              		.cfi_startproc
  48              		@ args = 0, pretend = 0, frame = 24
  49              		@ frame_needed = 0, uses_anonymous_args = 0
  50              		.loc 1 149 0
  51 0000 30B5     		push	{r4, r5, lr}
  52              		.cfi_def_cfa_offset 12
  53              		.cfi_offset 4, -12
  54              		.cfi_offset 5, -8
  55              		.cfi_offset 14, -4
  56 0002 87B0     		sub	sp, sp, #28
  57              		.cfi_def_cfa_offset 40
  58              	.LVL1:
  59              	.LBB42:
  60              	.LBB43:
  61              		.file 2 "Generated_Source\\PSoC6\\pdl\\drivers/peripheral/sysclk/cy_sysclk.h"
   1:Generated_Source\PSoC6\pdl\drivers/peripheral/sysclk/cy_sysclk.h **** /***************************************************************************//**
   2:Generated_Source\PSoC6\pdl\drivers/peripheral/sysclk/cy_sysclk.h **** * \file cy_sysclk.h
   3:Generated_Source\PSoC6\pdl\drivers/peripheral/sysclk/cy_sysclk.h **** * \version 1.20
   4:Generated_Source\PSoC6\pdl\drivers/peripheral/sysclk/cy_sysclk.h **** *
   5:Generated_Source\PSoC6\pdl\drivers/peripheral/sysclk/cy_sysclk.h **** * Provides an API declaration of the sysclk driver.
   6:Generated_Source\PSoC6\pdl\drivers/peripheral/sysclk/cy_sysclk.h **** *
   7:Generated_Source\PSoC6\pdl\drivers/peripheral/sysclk/cy_sysclk.h **** ********************************************************************************
   8:Generated_Source\PSoC6\pdl\drivers/peripheral/sysclk/cy_sysclk.h **** * \copyright
   9:Generated_Source\PSoC6\pdl\drivers/peripheral/sysclk/cy_sysclk.h **** * Copyright 2016-2018, Cypress Semiconductor Corporation. All rights reserved.
  10:Generated_Source\PSoC6\pdl\drivers/peripheral/sysclk/cy_sysclk.h **** * You may use this file only in accordance with the license, terms, conditions,
  11:Generated_Source\PSoC6\pdl\drivers/peripheral/sysclk/cy_sysclk.h **** * disclaimers, and limitations in the end user license agreement accompanying
  12:Generated_Source\PSoC6\pdl\drivers/peripheral/sysclk/cy_sysclk.h **** * the software package with which this file was provided.
  13:Generated_Source\PSoC6\pdl\drivers/peripheral/sysclk/cy_sysclk.h **** *******************************************************************************/
  14:Generated_Source\PSoC6\pdl\drivers/peripheral/sysclk/cy_sysclk.h **** 
  15:Generated_Source\PSoC6\pdl\drivers/peripheral/sysclk/cy_sysclk.h **** /**
  16:Generated_Source\PSoC6\pdl\drivers/peripheral/sysclk/cy_sysclk.h **** * \addtogroup group_sysclk
  17:Generated_Source\PSoC6\pdl\drivers/peripheral/sysclk/cy_sysclk.h **** * \{
  18:Generated_Source\PSoC6\pdl\drivers/peripheral/sysclk/cy_sysclk.h **** * The System Clock (SysClk) driver contains the API for configuring system and
ARM GAS  C:\Users\SimonChen\AppData\Local\Temp\ccD98YNQ.s 			page 5


  19:Generated_Source\PSoC6\pdl\drivers/peripheral/sysclk/cy_sysclk.h **** * peripheral clocks. 
  20:Generated_Source\PSoC6\pdl\drivers/peripheral/sysclk/cy_sysclk.h **** *
  21:Generated_Source\PSoC6\pdl\drivers/peripheral/sysclk/cy_sysclk.h **** * The functions and other declarations used in this driver are in cy_sysclk.h. 
  22:Generated_Source\PSoC6\pdl\drivers/peripheral/sysclk/cy_sysclk.h **** * You can include cy_pdl.h (ModusToolbox only) to get access to all functions 
  23:Generated_Source\PSoC6\pdl\drivers/peripheral/sysclk/cy_sysclk.h **** * and declarations in the PDL. 
  24:Generated_Source\PSoC6\pdl\drivers/peripheral/sysclk/cy_sysclk.h **** *
  25:Generated_Source\PSoC6\pdl\drivers/peripheral/sysclk/cy_sysclk.h **** * Firmware uses the API to configure , enable, or disable a clock.
  26:Generated_Source\PSoC6\pdl\drivers/peripheral/sysclk/cy_sysclk.h **** * 
  27:Generated_Source\PSoC6\pdl\drivers/peripheral/sysclk/cy_sysclk.h **** * The clock system includes a variety of resources that can vary per device, including:
  28:Generated_Source\PSoC6\pdl\drivers/peripheral/sysclk/cy_sysclk.h **** * - Internal clock sources such as internal oscillators
  29:Generated_Source\PSoC6\pdl\drivers/peripheral/sysclk/cy_sysclk.h **** * - External clock sources such as crystal oscillators or a signal on an I/O pin
  30:Generated_Source\PSoC6\pdl\drivers/peripheral/sysclk/cy_sysclk.h **** * - Generated clocks such as an FLL, a PLL, and peripheral clocks
  31:Generated_Source\PSoC6\pdl\drivers/peripheral/sysclk/cy_sysclk.h **** *
  32:Generated_Source\PSoC6\pdl\drivers/peripheral/sysclk/cy_sysclk.h **** * Consult the Technical Reference Manual for your device for details of the 
  33:Generated_Source\PSoC6\pdl\drivers/peripheral/sysclk/cy_sysclk.h **** * clock system.
  34:Generated_Source\PSoC6\pdl\drivers/peripheral/sysclk/cy_sysclk.h **** *
  35:Generated_Source\PSoC6\pdl\drivers/peripheral/sysclk/cy_sysclk.h **** * The PDL defines clock system capabilities in:\n
  36:Generated_Source\PSoC6\pdl\drivers/peripheral/sysclk/cy_sysclk.h **** * devices\<family\>/<series\>/include\<series\>_config.h. (E.g.
  37:Generated_Source\PSoC6\pdl\drivers/peripheral/sysclk/cy_sysclk.h **** * devices/psoc6/include/psoc6_01_config.h).
  38:Generated_Source\PSoC6\pdl\drivers/peripheral/sysclk/cy_sysclk.h **** * User-configurable clock speeds are defined in the file system_<series>.h.
  39:Generated_Source\PSoC6\pdl\drivers/peripheral/sysclk/cy_sysclk.h **** *
  40:Generated_Source\PSoC6\pdl\drivers/peripheral/sysclk/cy_sysclk.h **** * As an illustration of the clocking system, the following diagram shows the
  41:Generated_Source\PSoC6\pdl\drivers/peripheral/sysclk/cy_sysclk.h **** * PSoC 63 series clock tree. The actual tree may vary depending on the device series.
  42:Generated_Source\PSoC6\pdl\drivers/peripheral/sysclk/cy_sysclk.h **** * Consult the Technical Reference Manual for your device for details.
  43:Generated_Source\PSoC6\pdl\drivers/peripheral/sysclk/cy_sysclk.h **** * ![](sysclk_tree.png)
  44:Generated_Source\PSoC6\pdl\drivers/peripheral/sysclk/cy_sysclk.h **** *
  45:Generated_Source\PSoC6\pdl\drivers/peripheral/sysclk/cy_sysclk.h **** * The sysclk driver supports multiple peripheral clocks, as well as the fast 
  46:Generated_Source\PSoC6\pdl\drivers/peripheral/sysclk/cy_sysclk.h **** * clock, slow clock, backup domain clock, timer clock, and pump clock. The API
  47:Generated_Source\PSoC6\pdl\drivers/peripheral/sysclk/cy_sysclk.h **** * for any given clock contains the functions to manage that clock. Functions
  48:Generated_Source\PSoC6\pdl\drivers/peripheral/sysclk/cy_sysclk.h **** * for clock measurement and trimming are also provided.
  49:Generated_Source\PSoC6\pdl\drivers/peripheral/sysclk/cy_sysclk.h **** *
  50:Generated_Source\PSoC6\pdl\drivers/peripheral/sysclk/cy_sysclk.h **** * \section group_sysclk_configuration Configuration Considerations
  51:Generated_Source\PSoC6\pdl\drivers/peripheral/sysclk/cy_sysclk.h **** * The availability of clock functions depend on the availability of the chip
  52:Generated_Source\PSoC6\pdl\drivers/peripheral/sysclk/cy_sysclk.h **** * resources that support those functions. Consult the device TRM before
  53:Generated_Source\PSoC6\pdl\drivers/peripheral/sysclk/cy_sysclk.h **** * attempting to use these functions.
  54:Generated_Source\PSoC6\pdl\drivers/peripheral/sysclk/cy_sysclk.h **** *
  55:Generated_Source\PSoC6\pdl\drivers/peripheral/sysclk/cy_sysclk.h **** * LPActive and LPSleep power modes limit the maximum clock frequency allowed
  56:Generated_Source\PSoC6\pdl\drivers/peripheral/sysclk/cy_sysclk.h **** * on the device. Refer to the SysPm driver and the TRM for details.
  57:Generated_Source\PSoC6\pdl\drivers/peripheral/sysclk/cy_sysclk.h **** *
  58:Generated_Source\PSoC6\pdl\drivers/peripheral/sysclk/cy_sysclk.h **** * \section group_sysclk_more_information More Information
  59:Generated_Source\PSoC6\pdl\drivers/peripheral/sysclk/cy_sysclk.h **** * Refer to the technical reference manual (TRM) and the device datasheet.
  60:Generated_Source\PSoC6\pdl\drivers/peripheral/sysclk/cy_sysclk.h **** *
  61:Generated_Source\PSoC6\pdl\drivers/peripheral/sysclk/cy_sysclk.h **** * \section group_sysclk_MISRA MISRA-C Compliance
  62:Generated_Source\PSoC6\pdl\drivers/peripheral/sysclk/cy_sysclk.h **** * <table class="doxtable">
  63:Generated_Source\PSoC6\pdl\drivers/peripheral/sysclk/cy_sysclk.h **** *   <tr>
  64:Generated_Source\PSoC6\pdl\drivers/peripheral/sysclk/cy_sysclk.h **** *     <th>MISRA Rule</th>
  65:Generated_Source\PSoC6\pdl\drivers/peripheral/sysclk/cy_sysclk.h **** *     <th>Rule Class (Required/Advisory)</th>
  66:Generated_Source\PSoC6\pdl\drivers/peripheral/sysclk/cy_sysclk.h **** *     <th>Rule Description</th>
  67:Generated_Source\PSoC6\pdl\drivers/peripheral/sysclk/cy_sysclk.h **** *     <th>Description of Deviation(s)</th>
  68:Generated_Source\PSoC6\pdl\drivers/peripheral/sysclk/cy_sysclk.h **** *   </tr>
  69:Generated_Source\PSoC6\pdl\drivers/peripheral/sysclk/cy_sysclk.h **** *   <tr>
  70:Generated_Source\PSoC6\pdl\drivers/peripheral/sysclk/cy_sysclk.h **** *     <td>10.3</td>
  71:Generated_Source\PSoC6\pdl\drivers/peripheral/sysclk/cy_sysclk.h **** *     <td>R</td>
  72:Generated_Source\PSoC6\pdl\drivers/peripheral/sysclk/cy_sysclk.h **** *     <td>A composite expression of the "essentially unsigned" type is being
  73:Generated_Source\PSoC6\pdl\drivers/peripheral/sysclk/cy_sysclk.h **** *         cast to a different type category.</td>
  74:Generated_Source\PSoC6\pdl\drivers/peripheral/sysclk/cy_sysclk.h **** *     <td>The value got from the bitfield physically cannot exceed the enumeration
  75:Generated_Source\PSoC6\pdl\drivers/peripheral/sysclk/cy_sysclk.h **** *         that describes this bitfield. So, the code is safe by design.</td>
ARM GAS  C:\Users\SimonChen\AppData\Local\Temp\ccD98YNQ.s 			page 6


  76:Generated_Source\PSoC6\pdl\drivers/peripheral/sysclk/cy_sysclk.h **** *   </tr>
  77:Generated_Source\PSoC6\pdl\drivers/peripheral/sysclk/cy_sysclk.h **** *   <tr>
  78:Generated_Source\PSoC6\pdl\drivers/peripheral/sysclk/cy_sysclk.h **** *     <td>10.4</td>
  79:Generated_Source\PSoC6\pdl\drivers/peripheral/sysclk/cy_sysclk.h **** *     <td>R</td>
  80:Generated_Source\PSoC6\pdl\drivers/peripheral/sysclk/cy_sysclk.h **** *     <td>A composite floating point expression is being cast to double, or unsigned.</td>
  81:Generated_Source\PSoC6\pdl\drivers/peripheral/sysclk/cy_sysclk.h **** *     <td>Casting a floating-point calculation result to an integer.</td>
  82:Generated_Source\PSoC6\pdl\drivers/peripheral/sysclk/cy_sysclk.h **** *   </tr>
  83:Generated_Source\PSoC6\pdl\drivers/peripheral/sysclk/cy_sysclk.h **** *   <tr>
  84:Generated_Source\PSoC6\pdl\drivers/peripheral/sysclk/cy_sysclk.h **** *     <td>13.4</td>
  85:Generated_Source\PSoC6\pdl\drivers/peripheral/sysclk/cy_sysclk.h **** *     <td>R</td>
  86:Generated_Source\PSoC6\pdl\drivers/peripheral/sysclk/cy_sysclk.h **** *     <td>The controlling expression of a for statement shall not contain any objects of floating t
  87:Generated_Source\PSoC6\pdl\drivers/peripheral/sysclk/cy_sysclk.h **** *     <td>Scanning through a list of floating point values: only greater_than/less_then checks are 
  88:Generated_Source\PSoC6\pdl\drivers/peripheral/sysclk/cy_sysclk.h **** *         with floating point numbers, the loop counter is integer. </td>
  89:Generated_Source\PSoC6\pdl\drivers/peripheral/sysclk/cy_sysclk.h **** *   </tr>
  90:Generated_Source\PSoC6\pdl\drivers/peripheral/sysclk/cy_sysclk.h **** *   <tr>
  91:Generated_Source\PSoC6\pdl\drivers/peripheral/sysclk/cy_sysclk.h **** *     <td>16.7</td>
  92:Generated_Source\PSoC6\pdl\drivers/peripheral/sysclk/cy_sysclk.h **** *     <td>R</td>
  93:Generated_Source\PSoC6\pdl\drivers/peripheral/sysclk/cy_sysclk.h **** *     <td>The object addressed by the pointer parameter is not modified and so the pointer could be
  94:Generated_Source\PSoC6\pdl\drivers/peripheral/sysclk/cy_sysclk.h **** *         type 'pointer to const'.</td>
  95:Generated_Source\PSoC6\pdl\drivers/peripheral/sysclk/cy_sysclk.h **** *     <td>The callback function for system power management (SysPm) must be of generic callback typ
  96:Generated_Source\PSoC6\pdl\drivers/peripheral/sysclk/cy_sysclk.h **** *         contains non-const pointer parameter.</td>
  97:Generated_Source\PSoC6\pdl\drivers/peripheral/sysclk/cy_sysclk.h **** *   </tr>
  98:Generated_Source\PSoC6\pdl\drivers/peripheral/sysclk/cy_sysclk.h **** * </table>
  99:Generated_Source\PSoC6\pdl\drivers/peripheral/sysclk/cy_sysclk.h **** *
 100:Generated_Source\PSoC6\pdl\drivers/peripheral/sysclk/cy_sysclk.h **** * \section group_sysclk_changelog Changelog
 101:Generated_Source\PSoC6\pdl\drivers/peripheral/sysclk/cy_sysclk.h **** * <table class="doxtable">
 102:Generated_Source\PSoC6\pdl\drivers/peripheral/sysclk/cy_sysclk.h **** *   <tr><th>Version</th><th>Changes</th><th>Reason for Change</th></tr>
 103:Generated_Source\PSoC6\pdl\drivers/peripheral/sysclk/cy_sysclk.h **** *   <tr>
 104:Generated_Source\PSoC6\pdl\drivers/peripheral/sysclk/cy_sysclk.h **** *     <td rowspan="4">1.20</td>
 105:Generated_Source\PSoC6\pdl\drivers/peripheral/sysclk/cy_sysclk.h **** *     <td>Flattened the organization of the driver source code into the single 
 106:Generated_Source\PSoC6\pdl\drivers/peripheral/sysclk/cy_sysclk.h **** *         source directory and the single include directory.
 107:Generated_Source\PSoC6\pdl\drivers/peripheral/sysclk/cy_sysclk.h **** *     </td>
 108:Generated_Source\PSoC6\pdl\drivers/peripheral/sysclk/cy_sysclk.h **** *     <td>Driver library directory-structure simplification.</td>
 109:Generated_Source\PSoC6\pdl\drivers/peripheral/sysclk/cy_sysclk.h **** *   </tr>
 110:Generated_Source\PSoC6\pdl\drivers/peripheral/sysclk/cy_sysclk.h **** *   <tr>
 111:Generated_Source\PSoC6\pdl\drivers/peripheral/sysclk/cy_sysclk.h **** *     <td>Updated \ref Cy_SysClk_FllLocked function description</td>
 112:Generated_Source\PSoC6\pdl\drivers/peripheral/sysclk/cy_sysclk.h **** *     <td>The SRSS_ver1 HW details clarification</td>
 113:Generated_Source\PSoC6\pdl\drivers/peripheral/sysclk/cy_sysclk.h **** *   </tr>
 114:Generated_Source\PSoC6\pdl\drivers/peripheral/sysclk/cy_sysclk.h **** *   <tr>
 115:Generated_Source\PSoC6\pdl\drivers/peripheral/sysclk/cy_sysclk.h **** *     <td>Removed the following functions:
 116:Generated_Source\PSoC6\pdl\drivers/peripheral/sysclk/cy_sysclk.h **** *         - Cy_SysClk_FllLostLock
 117:Generated_Source\PSoC6\pdl\drivers/peripheral/sysclk/cy_sysclk.h **** *         - Cy_SysClk_WcoConfigureCsv
 118:Generated_Source\PSoC6\pdl\drivers/peripheral/sysclk/cy_sysclk.h **** *         - Cy_SysClk_ClkHfConfigureCsv
 119:Generated_Source\PSoC6\pdl\drivers/peripheral/sysclk/cy_sysclk.h **** *     </td>
 120:Generated_Source\PSoC6\pdl\drivers/peripheral/sysclk/cy_sysclk.h **** *     <td>No hardware support for the removed functions.</td>
 121:Generated_Source\PSoC6\pdl\drivers/peripheral/sysclk/cy_sysclk.h **** *   </tr>
 122:Generated_Source\PSoC6\pdl\drivers/peripheral/sysclk/cy_sysclk.h **** *   <tr>
 123:Generated_Source\PSoC6\pdl\drivers/peripheral/sysclk/cy_sysclk.h **** *     <td>Added register access layer. Use register access macros instead
 124:Generated_Source\PSoC6\pdl\drivers/peripheral/sysclk/cy_sysclk.h **** *         of direct register access using dereferenced pointers.</td>
 125:Generated_Source\PSoC6\pdl\drivers/peripheral/sysclk/cy_sysclk.h **** *     <td>Makes register access device-independent, so that the PDL does 
 126:Generated_Source\PSoC6\pdl\drivers/peripheral/sysclk/cy_sysclk.h **** *         not need to be recompiled for each supported part number.</td>
 127:Generated_Source\PSoC6\pdl\drivers/peripheral/sysclk/cy_sysclk.h **** *   </tr>
 128:Generated_Source\PSoC6\pdl\drivers/peripheral/sysclk/cy_sysclk.h **** *   <tr>
 129:Generated_Source\PSoC6\pdl\drivers/peripheral/sysclk/cy_sysclk.h **** *     <td>1.11</td>
 130:Generated_Source\PSoC6\pdl\drivers/peripheral/sysclk/cy_sysclk.h **** *     <td>Updated the following functions. Now they use a semaphore when 
 131:Generated_Source\PSoC6\pdl\drivers/peripheral/sysclk/cy_sysclk.h **** *         try to read the status or configure the SysClk measurement counters:
 132:Generated_Source\PSoC6\pdl\drivers/peripheral/sysclk/cy_sysclk.h **** *         * Cy_SysClk_StartClkMeasurementCounters()
ARM GAS  C:\Users\SimonChen\AppData\Local\Temp\ccD98YNQ.s 			page 7


 133:Generated_Source\PSoC6\pdl\drivers/peripheral/sysclk/cy_sysclk.h **** *         * Cy_SysClk_ClkMeasurementCountersGetFreq()
 134:Generated_Source\PSoC6\pdl\drivers/peripheral/sysclk/cy_sysclk.h **** *
 135:Generated_Source\PSoC6\pdl\drivers/peripheral/sysclk/cy_sysclk.h **** *         Now Cy_SysClk_ClkMeasurementCountersGetFreq() returns zero value,
 136:Generated_Source\PSoC6\pdl\drivers/peripheral/sysclk/cy_sysclk.h **** *         if during measurement device was in the Deep Sleep or partially
 137:Generated_Source\PSoC6\pdl\drivers/peripheral/sysclk/cy_sysclk.h **** *         blocking flash operation occurred </td>
 138:Generated_Source\PSoC6\pdl\drivers/peripheral/sysclk/cy_sysclk.h **** *     <td>Added arbiter mechanism for correct usage of the SysClk measurement 
 139:Generated_Source\PSoC6\pdl\drivers/peripheral/sysclk/cy_sysclk.h **** *         counters</td>
 140:Generated_Source\PSoC6\pdl\drivers/peripheral/sysclk/cy_sysclk.h **** *   </tr>
 141:Generated_Source\PSoC6\pdl\drivers/peripheral/sysclk/cy_sysclk.h **** *   <tr>
 142:Generated_Source\PSoC6\pdl\drivers/peripheral/sysclk/cy_sysclk.h **** *     <td>1.10.1</td>
 143:Generated_Source\PSoC6\pdl\drivers/peripheral/sysclk/cy_sysclk.h **** *     <td>Renamed Power Management section to Low Power Callback section</td>
 144:Generated_Source\PSoC6\pdl\drivers/peripheral/sysclk/cy_sysclk.h **** *     <td>Documentation update and clarification</td>
 145:Generated_Source\PSoC6\pdl\drivers/peripheral/sysclk/cy_sysclk.h **** *   </tr>
 146:Generated_Source\PSoC6\pdl\drivers/peripheral/sysclk/cy_sysclk.h **** *   <tr>
 147:Generated_Source\PSoC6\pdl\drivers/peripheral/sysclk/cy_sysclk.h **** *     <td rowspan="5">1.10</td>
 148:Generated_Source\PSoC6\pdl\drivers/peripheral/sysclk/cy_sysclk.h **** *     <td>Updated FLL parameter calculation</td>
 149:Generated_Source\PSoC6\pdl\drivers/peripheral/sysclk/cy_sysclk.h **** *     <td>Support low frequency sources</td>
 150:Generated_Source\PSoC6\pdl\drivers/peripheral/sysclk/cy_sysclk.h **** *   </tr>
 151:Generated_Source\PSoC6\pdl\drivers/peripheral/sysclk/cy_sysclk.h **** *   <tr>
 152:Generated_Source\PSoC6\pdl\drivers/peripheral/sysclk/cy_sysclk.h **** *     <td>Added Cy_SysClk_PiloSetTrim() and Cy_SysclkPiloGetTrim() functions</td>
 153:Generated_Source\PSoC6\pdl\drivers/peripheral/sysclk/cy_sysclk.h **** *     <td>Support PILO manual trims</td>
 154:Generated_Source\PSoC6\pdl\drivers/peripheral/sysclk/cy_sysclk.h **** *   </tr>
 155:Generated_Source\PSoC6\pdl\drivers/peripheral/sysclk/cy_sysclk.h **** *   <tr>
 156:Generated_Source\PSoC6\pdl\drivers/peripheral/sysclk/cy_sysclk.h **** *     <td>Made Cy_SysClk_FllLostLock() function dependent on SRSS v1</td>
 157:Generated_Source\PSoC6\pdl\drivers/peripheral/sysclk/cy_sysclk.h **** *     <td>Feature is not supported in SRSS v1</td>
 158:Generated_Source\PSoC6\pdl\drivers/peripheral/sysclk/cy_sysclk.h **** *   </tr>
 159:Generated_Source\PSoC6\pdl\drivers/peripheral/sysclk/cy_sysclk.h **** *   <tr>
 160:Generated_Source\PSoC6\pdl\drivers/peripheral/sysclk/cy_sysclk.h **** *     <td>Updated Cy_SysClk_DeepSleepCallback() to save/restore both FLL and PLL settings</td>
 161:Generated_Source\PSoC6\pdl\drivers/peripheral/sysclk/cy_sysclk.h **** *     <td>The function should return when the lock is established or a timeout has occurred</td>
 162:Generated_Source\PSoC6\pdl\drivers/peripheral/sysclk/cy_sysclk.h **** *   </tr>
 163:Generated_Source\PSoC6\pdl\drivers/peripheral/sysclk/cy_sysclk.h **** *   <tr>
 164:Generated_Source\PSoC6\pdl\drivers/peripheral/sysclk/cy_sysclk.h **** *     <td>General documentation updates</td>
 165:Generated_Source\PSoC6\pdl\drivers/peripheral/sysclk/cy_sysclk.h **** *     <td></td>
 166:Generated_Source\PSoC6\pdl\drivers/peripheral/sysclk/cy_sysclk.h **** *   </tr>
 167:Generated_Source\PSoC6\pdl\drivers/peripheral/sysclk/cy_sysclk.h **** *   <tr>
 168:Generated_Source\PSoC6\pdl\drivers/peripheral/sysclk/cy_sysclk.h **** *     <td>1.0</td>
 169:Generated_Source\PSoC6\pdl\drivers/peripheral/sysclk/cy_sysclk.h **** *     <td>Initial version</td>
 170:Generated_Source\PSoC6\pdl\drivers/peripheral/sysclk/cy_sysclk.h **** *     <td></td>
 171:Generated_Source\PSoC6\pdl\drivers/peripheral/sysclk/cy_sysclk.h **** *   </tr>
 172:Generated_Source\PSoC6\pdl\drivers/peripheral/sysclk/cy_sysclk.h **** * </table>
 173:Generated_Source\PSoC6\pdl\drivers/peripheral/sysclk/cy_sysclk.h **** *
 174:Generated_Source\PSoC6\pdl\drivers/peripheral/sysclk/cy_sysclk.h **** * \defgroup group_sysclk_macros           Macros
 175:Generated_Source\PSoC6\pdl\drivers/peripheral/sysclk/cy_sysclk.h **** * \{
 176:Generated_Source\PSoC6\pdl\drivers/peripheral/sysclk/cy_sysclk.h **** * \}
 177:Generated_Source\PSoC6\pdl\drivers/peripheral/sysclk/cy_sysclk.h **** * \defgroup group_sysclk_enums           General Enumerated Types
 178:Generated_Source\PSoC6\pdl\drivers/peripheral/sysclk/cy_sysclk.h **** * \{
 179:Generated_Source\PSoC6\pdl\drivers/peripheral/sysclk/cy_sysclk.h **** *   \defgroup group_sysclk_returns         Function return values
 180:Generated_Source\PSoC6\pdl\drivers/peripheral/sysclk/cy_sysclk.h **** * \}
 181:Generated_Source\PSoC6\pdl\drivers/peripheral/sysclk/cy_sysclk.h **** * \defgroup group_sysclk_eco             External Crystal Oscillator (ECO)
 182:Generated_Source\PSoC6\pdl\drivers/peripheral/sysclk/cy_sysclk.h **** * \{
 183:Generated_Source\PSoC6\pdl\drivers/peripheral/sysclk/cy_sysclk.h **** *   The External Crystal Oscillator (ECO) is a clock source that consists
 184:Generated_Source\PSoC6\pdl\drivers/peripheral/sysclk/cy_sysclk.h **** *   of an oscillator circuit that drives an external crystal through its
 185:Generated_Source\PSoC6\pdl\drivers/peripheral/sysclk/cy_sysclk.h **** *   dedicated ECO pins. The ECO is a source clock that can be used to
 186:Generated_Source\PSoC6\pdl\drivers/peripheral/sysclk/cy_sysclk.h **** *   source one or more clock paths (Refer to \ref group_sysclk_path_src).
 187:Generated_Source\PSoC6\pdl\drivers/peripheral/sysclk/cy_sysclk.h **** *   These clock paths can then source the processors and peripherals in
 188:Generated_Source\PSoC6\pdl\drivers/peripheral/sysclk/cy_sysclk.h **** *   the device.
 189:Generated_Source\PSoC6\pdl\drivers/peripheral/sysclk/cy_sysclk.h **** *
ARM GAS  C:\Users\SimonChen\AppData\Local\Temp\ccD98YNQ.s 			page 8


 190:Generated_Source\PSoC6\pdl\drivers/peripheral/sysclk/cy_sysclk.h **** *   The ECO relies on the presence of an external crystal. The pins
 191:Generated_Source\PSoC6\pdl\drivers/peripheral/sysclk/cy_sysclk.h **** *   connected to this crystal must be configured to operate in analog
 192:Generated_Source\PSoC6\pdl\drivers/peripheral/sysclk/cy_sysclk.h **** *   drive mode with HSIOM connection set to GPIO control (HSIOM_SEL_GPIO).
 193:Generated_Source\PSoC6\pdl\drivers/peripheral/sysclk/cy_sysclk.h **** *
 194:Generated_Source\PSoC6\pdl\drivers/peripheral/sysclk/cy_sysclk.h **** *   \defgroup group_sysclk_eco_funcs       Functions
 195:Generated_Source\PSoC6\pdl\drivers/peripheral/sysclk/cy_sysclk.h **** * \}
 196:Generated_Source\PSoC6\pdl\drivers/peripheral/sysclk/cy_sysclk.h **** * \defgroup group_sysclk_path_src           Clock Path Source
 197:Generated_Source\PSoC6\pdl\drivers/peripheral/sysclk/cy_sysclk.h **** * \{
 198:Generated_Source\PSoC6\pdl\drivers/peripheral/sysclk/cy_sysclk.h **** *   Clock paths are a series of multiplexers that allow a source clock
 199:Generated_Source\PSoC6\pdl\drivers/peripheral/sysclk/cy_sysclk.h **** *   to drive multiple clocking resources down the chain. These paths are
 200:Generated_Source\PSoC6\pdl\drivers/peripheral/sysclk/cy_sysclk.h **** *   used for active domain clocks that are not operational during chip 
 201:Generated_Source\PSoC6\pdl\drivers/peripheral/sysclk/cy_sysclk.h **** *   deep-sleep, hibernate and off modes. Illustrated below is a diagram
 202:Generated_Source\PSoC6\pdl\drivers/peripheral/sysclk/cy_sysclk.h **** *   of the clock paths for the PSoC 63 series, showing the first three
 203:Generated_Source\PSoC6\pdl\drivers/peripheral/sysclk/cy_sysclk.h **** *   clock paths. The source clocks for these paths are highlighted in
 204:Generated_Source\PSoC6\pdl\drivers/peripheral/sysclk/cy_sysclk.h **** *   the red box.
 205:Generated_Source\PSoC6\pdl\drivers/peripheral/sysclk/cy_sysclk.h **** *
 206:Generated_Source\PSoC6\pdl\drivers/peripheral/sysclk/cy_sysclk.h **** *   - IMO: 8 MHz Internal Main Oscillator (Default)
 207:Generated_Source\PSoC6\pdl\drivers/peripheral/sysclk/cy_sysclk.h **** *   - EXTCLK: External clock (signal brought in through dedicated pins)
 208:Generated_Source\PSoC6\pdl\drivers/peripheral/sysclk/cy_sysclk.h **** *   - ECO: External Crystal Oscillator (requires external crystal on dedicated pins)
 209:Generated_Source\PSoC6\pdl\drivers/peripheral/sysclk/cy_sysclk.h **** *   - ALTHF: Select on-chip signals (e.g. BLE ECO)
 210:Generated_Source\PSoC6\pdl\drivers/peripheral/sysclk/cy_sysclk.h **** *   - Digital Signal (DSI): Digital signal from a UDB source
 211:Generated_Source\PSoC6\pdl\drivers/peripheral/sysclk/cy_sysclk.h **** *
 212:Generated_Source\PSoC6\pdl\drivers/peripheral/sysclk/cy_sysclk.h **** *   Some clock paths such as path 0 and path 1 have additional resources
 213:Generated_Source\PSoC6\pdl\drivers/peripheral/sysclk/cy_sysclk.h **** *   that can be utilized to provide a higher frequency clock. For example, 
 214:Generated_Source\PSoC6\pdl\drivers/peripheral/sysclk/cy_sysclk.h **** *   path 0 source clock can be used as the reference clock for the FLL and 
 215:Generated_Source\PSoC6\pdl\drivers/peripheral/sysclk/cy_sysclk.h **** *   path 1 source clock can be used as the reference clock for the PLL.
 216:Generated_Source\PSoC6\pdl\drivers/peripheral/sysclk/cy_sysclk.h **** *
 217:Generated_Source\PSoC6\pdl\drivers/peripheral/sysclk/cy_sysclk.h **** *   ![](sysclk_path_source.png)
 218:Generated_Source\PSoC6\pdl\drivers/peripheral/sysclk/cy_sysclk.h **** *
 219:Generated_Source\PSoC6\pdl\drivers/peripheral/sysclk/cy_sysclk.h **** *   \note The PDL driver cannot configure a clock path to use Digital Signal
 220:Generated_Source\PSoC6\pdl\drivers/peripheral/sysclk/cy_sysclk.h **** *   Interconnect (DSI) outputs as sources. This must be done through DSI
 221:Generated_Source\PSoC6\pdl\drivers/peripheral/sysclk/cy_sysclk.h **** *   configuration tool such as PSoC Creator.
 222:Generated_Source\PSoC6\pdl\drivers/peripheral/sysclk/cy_sysclk.h **** *
 223:Generated_Source\PSoC6\pdl\drivers/peripheral/sysclk/cy_sysclk.h **** *   \defgroup group_sysclk_path_src_funcs     Functions
 224:Generated_Source\PSoC6\pdl\drivers/peripheral/sysclk/cy_sysclk.h **** *   \defgroup group_sysclk_path_src_enums     Enumerated Types
 225:Generated_Source\PSoC6\pdl\drivers/peripheral/sysclk/cy_sysclk.h **** * \}
 226:Generated_Source\PSoC6\pdl\drivers/peripheral/sysclk/cy_sysclk.h **** * \defgroup group_sysclk_fll             Frequency Locked Loop (FLL)
 227:Generated_Source\PSoC6\pdl\drivers/peripheral/sysclk/cy_sysclk.h **** * \{
 228:Generated_Source\PSoC6\pdl\drivers/peripheral/sysclk/cy_sysclk.h **** *   The FLL is a clock generation circuit that can be used to produce a
 229:Generated_Source\PSoC6\pdl\drivers/peripheral/sysclk/cy_sysclk.h **** *   higher frequency clock from a reference clock. The output clock exhibits
 230:Generated_Source\PSoC6\pdl\drivers/peripheral/sysclk/cy_sysclk.h **** *   some characteristics of the reference clock such as the accuracy of the
 231:Generated_Source\PSoC6\pdl\drivers/peripheral/sysclk/cy_sysclk.h **** *   source. However other attributes such as the clock phase are not preserved.
 232:Generated_Source\PSoC6\pdl\drivers/peripheral/sysclk/cy_sysclk.h **** *   The FLL is similar in purpose to a (Phase locked loop) PLL but they are
 233:Generated_Source\PSoC6\pdl\drivers/peripheral/sysclk/cy_sysclk.h **** *   not equivalent.
 234:Generated_Source\PSoC6\pdl\drivers/peripheral/sysclk/cy_sysclk.h **** *
 235:Generated_Source\PSoC6\pdl\drivers/peripheral/sysclk/cy_sysclk.h **** *   - They may have different frequency ranges.
 236:Generated_Source\PSoC6\pdl\drivers/peripheral/sysclk/cy_sysclk.h **** *   - The FLL starts up (locks) faster and consumes less current than the PLL.
 237:Generated_Source\PSoC6\pdl\drivers/peripheral/sysclk/cy_sysclk.h **** *   - The FLL accepts a source clock with lower frequency than PLL, such as the WCO (32 KHz). 
 238:Generated_Source\PSoC6\pdl\drivers/peripheral/sysclk/cy_sysclk.h **** *   - The FLL does not lock phase. The hardware consist of a counter with a
 239:Generated_Source\PSoC6\pdl\drivers/peripheral/sysclk/cy_sysclk.h **** *     current-controlled oscillator (CCO). The counter counts the number of output
 240:Generated_Source\PSoC6\pdl\drivers/peripheral/sysclk/cy_sysclk.h **** *     clock edges in a reference clock period and adjusts the CCO until the
 241:Generated_Source\PSoC6\pdl\drivers/peripheral/sysclk/cy_sysclk.h **** *     expected ratio is achieved (locked). After initial lock, the CCO is
 242:Generated_Source\PSoC6\pdl\drivers/peripheral/sysclk/cy_sysclk.h **** *     adjusted dynamically to keep the ratio within tolerance. The lock tolerance
 243:Generated_Source\PSoC6\pdl\drivers/peripheral/sysclk/cy_sysclk.h **** *     is user-adjustable.
 244:Generated_Source\PSoC6\pdl\drivers/peripheral/sysclk/cy_sysclk.h **** *   ![](sysclk_fll.png)
 245:Generated_Source\PSoC6\pdl\drivers/peripheral/sysclk/cy_sysclk.h **** *
 246:Generated_Source\PSoC6\pdl\drivers/peripheral/sysclk/cy_sysclk.h **** *   The SysClk driver supports two models for configuring the FLL. The first
ARM GAS  C:\Users\SimonChen\AppData\Local\Temp\ccD98YNQ.s 			page 9


 247:Generated_Source\PSoC6\pdl\drivers/peripheral/sysclk/cy_sysclk.h **** *   model is to call the Cy_SysClk_FllConfigure() function, which calculates the 
 248:Generated_Source\PSoC6\pdl\drivers/peripheral/sysclk/cy_sysclk.h **** *   necessary parameters for the FLL at run-time. This may be necessary for dynamic
 249:Generated_Source\PSoC6\pdl\drivers/peripheral/sysclk/cy_sysclk.h **** *   run-time changes to the FLL. However this method is slow as it needs to perform 
 250:Generated_Source\PSoC6\pdl\drivers/peripheral/sysclk/cy_sysclk.h **** *   the calculation before configuring the FLL. The other model is to call 
 251:Generated_Source\PSoC6\pdl\drivers/peripheral/sysclk/cy_sysclk.h **** *   Cy_SysClk_FllManualConfigure() function with pre-calculated parameter values. 
 252:Generated_Source\PSoC6\pdl\drivers/peripheral/sysclk/cy_sysclk.h **** *   This method is faster but requires prior knowledge of the necessary parameters.
 253:Generated_Source\PSoC6\pdl\drivers/peripheral/sysclk/cy_sysclk.h **** *   Consult the device TRM for the FLL calculation equations.
 254:Generated_Source\PSoC6\pdl\drivers/peripheral/sysclk/cy_sysclk.h **** *
 255:Generated_Source\PSoC6\pdl\drivers/peripheral/sysclk/cy_sysclk.h **** *   \defgroup group_sysclk_fll_funcs       Functions
 256:Generated_Source\PSoC6\pdl\drivers/peripheral/sysclk/cy_sysclk.h **** *   \defgroup group_sysclk_fll_structs     Data Structures
 257:Generated_Source\PSoC6\pdl\drivers/peripheral/sysclk/cy_sysclk.h **** *   \defgroup group_sysclk_fll_enums       Enumerated Types
 258:Generated_Source\PSoC6\pdl\drivers/peripheral/sysclk/cy_sysclk.h **** * \}
 259:Generated_Source\PSoC6\pdl\drivers/peripheral/sysclk/cy_sysclk.h **** * \defgroup group_sysclk_pll             Phase Locked Loop (PLL)
 260:Generated_Source\PSoC6\pdl\drivers/peripheral/sysclk/cy_sysclk.h **** * \{
 261:Generated_Source\PSoC6\pdl\drivers/peripheral/sysclk/cy_sysclk.h **** *   The PLL is a clock generation circuit that can be used to produce a
 262:Generated_Source\PSoC6\pdl\drivers/peripheral/sysclk/cy_sysclk.h **** *   higher frequency clock from a reference clock. The output clock exhibits
 263:Generated_Source\PSoC6\pdl\drivers/peripheral/sysclk/cy_sysclk.h **** *   characteristics of the reference clock such as the accuracy of the source
 264:Generated_Source\PSoC6\pdl\drivers/peripheral/sysclk/cy_sysclk.h **** *   and its phase. The PLL is similar in purpose to a (Frequency locked loop) FLL
 265:Generated_Source\PSoC6\pdl\drivers/peripheral/sysclk/cy_sysclk.h **** *   but they are not equivalent.
 266:Generated_Source\PSoC6\pdl\drivers/peripheral/sysclk/cy_sysclk.h **** *
 267:Generated_Source\PSoC6\pdl\drivers/peripheral/sysclk/cy_sysclk.h **** *   - They may have different frequency ranges.
 268:Generated_Source\PSoC6\pdl\drivers/peripheral/sysclk/cy_sysclk.h **** *   - The PLL starts up more slowly and consumes more current than the FLL.
 269:Generated_Source\PSoC6\pdl\drivers/peripheral/sysclk/cy_sysclk.h **** *   - The PLL requires a higher frequency source clock than PLL. 
 270:Generated_Source\PSoC6\pdl\drivers/peripheral/sysclk/cy_sysclk.h **** *   ![](sysclk_pll.png)
 271:Generated_Source\PSoC6\pdl\drivers/peripheral/sysclk/cy_sysclk.h **** *
 272:Generated_Source\PSoC6\pdl\drivers/peripheral/sysclk/cy_sysclk.h **** *   The SysClk driver supports two models for configuring the PLL. The first
 273:Generated_Source\PSoC6\pdl\drivers/peripheral/sysclk/cy_sysclk.h **** *   model is to call the Cy_SysClk_PllConfigure() function, which calculates the 
 274:Generated_Source\PSoC6\pdl\drivers/peripheral/sysclk/cy_sysclk.h **** *   necessary parameters for the PLL at run-time. This may be necessary for dynamic
 275:Generated_Source\PSoC6\pdl\drivers/peripheral/sysclk/cy_sysclk.h **** *   run-time changes to the PLL. However this method is slow as it needs to perform 
 276:Generated_Source\PSoC6\pdl\drivers/peripheral/sysclk/cy_sysclk.h **** *   the calculation before configuring the PLL. The other model is to call 
 277:Generated_Source\PSoC6\pdl\drivers/peripheral/sysclk/cy_sysclk.h **** *   Cy_SysClk_PllManualConfigure() function with pre-calculated parameter values. 
 278:Generated_Source\PSoC6\pdl\drivers/peripheral/sysclk/cy_sysclk.h **** *   This method is faster but requires prior knowledge of the necessary parameters.
 279:Generated_Source\PSoC6\pdl\drivers/peripheral/sysclk/cy_sysclk.h **** *   Consult the device TRM for the PLL calculation equations.
 280:Generated_Source\PSoC6\pdl\drivers/peripheral/sysclk/cy_sysclk.h **** *
 281:Generated_Source\PSoC6\pdl\drivers/peripheral/sysclk/cy_sysclk.h **** *   \defgroup group_sysclk_pll_funcs       Functions
 282:Generated_Source\PSoC6\pdl\drivers/peripheral/sysclk/cy_sysclk.h **** *   \defgroup group_sysclk_pll_structs     Data Structures
 283:Generated_Source\PSoC6\pdl\drivers/peripheral/sysclk/cy_sysclk.h **** * \}
 284:Generated_Source\PSoC6\pdl\drivers/peripheral/sysclk/cy_sysclk.h **** * \defgroup group_sysclk_ilo             Internal Low-Speed Oscillator (ILO)
 285:Generated_Source\PSoC6\pdl\drivers/peripheral/sysclk/cy_sysclk.h **** * \{
 286:Generated_Source\PSoC6\pdl\drivers/peripheral/sysclk/cy_sysclk.h **** *   The ILO operates with no external components and outputs a stable clock at
 287:Generated_Source\PSoC6\pdl\drivers/peripheral/sysclk/cy_sysclk.h **** *   32.768 kHz nominal. The ILO is relatively low power and low accuracy. It is 
 288:Generated_Source\PSoC6\pdl\drivers/peripheral/sysclk/cy_sysclk.h **** *   available in all power modes and can be used as a source for the Backup domain clock.
 289:Generated_Source\PSoC6\pdl\drivers/peripheral/sysclk/cy_sysclk.h **** *   ![](sysclk_backup.png)
 290:Generated_Source\PSoC6\pdl\drivers/peripheral/sysclk/cy_sysclk.h **** *
 291:Generated_Source\PSoC6\pdl\drivers/peripheral/sysclk/cy_sysclk.h **** *   To ensure the ILO remains active in Hibernate mode, and across power-on-reset
 292:Generated_Source\PSoC6\pdl\drivers/peripheral/sysclk/cy_sysclk.h **** *   (POR) or brown out detect (BOD), firmware must call Cy_SysClk_IloHibernateOn(). 
 293:Generated_Source\PSoC6\pdl\drivers/peripheral/sysclk/cy_sysclk.h **** *
 294:Generated_Source\PSoC6\pdl\drivers/peripheral/sysclk/cy_sysclk.h **** *   Additionally, the ILO clock can be trimmed to +/- 1.5% of nominal frequency using
 295:Generated_Source\PSoC6\pdl\drivers/peripheral/sysclk/cy_sysclk.h **** *   a higher precision clock source. Use the \ref group_sysclk_calclk API to measure 
 296:Generated_Source\PSoC6\pdl\drivers/peripheral/sysclk/cy_sysclk.h **** *   the current ILO frequency before trimming.
 297:Generated_Source\PSoC6\pdl\drivers/peripheral/sysclk/cy_sysclk.h **** *
 298:Generated_Source\PSoC6\pdl\drivers/peripheral/sysclk/cy_sysclk.h **** *   \note The ILO is always the source clock for the \ref group_wdt. Therefore:
 299:Generated_Source\PSoC6\pdl\drivers/peripheral/sysclk/cy_sysclk.h **** *   - The WDT must be unlocked when making an ILO function call in the PDL
 300:Generated_Source\PSoC6\pdl\drivers/peripheral/sysclk/cy_sysclk.h **** *   - It is recommended to always have the ILO enabled
 301:Generated_Source\PSoC6\pdl\drivers/peripheral/sysclk/cy_sysclk.h **** *
 302:Generated_Source\PSoC6\pdl\drivers/peripheral/sysclk/cy_sysclk.h **** *   \defgroup group_sysclk_ilo_funcs       Functions
 303:Generated_Source\PSoC6\pdl\drivers/peripheral/sysclk/cy_sysclk.h **** * \}
ARM GAS  C:\Users\SimonChen\AppData\Local\Temp\ccD98YNQ.s 			page 10


 304:Generated_Source\PSoC6\pdl\drivers/peripheral/sysclk/cy_sysclk.h **** * \defgroup group_sysclk_pilo            Precision Internal Low-Speed Oscillator (PILO)
 305:Generated_Source\PSoC6\pdl\drivers/peripheral/sysclk/cy_sysclk.h **** * \{
 306:Generated_Source\PSoC6\pdl\drivers/peripheral/sysclk/cy_sysclk.h **** *   PILO provides a higher accuracy 32.768 kHz clock than the \ref group_sysclk_ilo "ILO".
 307:Generated_Source\PSoC6\pdl\drivers/peripheral/sysclk/cy_sysclk.h **** *   When periodically calibrated using a high-accuracy clock such as the
 308:Generated_Source\PSoC6\pdl\drivers/peripheral/sysclk/cy_sysclk.h **** *   \ref group_sysclk_eco "ECO", the PILO can achieve 250 ppm accuracy of nominal frequency.
 309:Generated_Source\PSoC6\pdl\drivers/peripheral/sysclk/cy_sysclk.h **** *   The PILO is capable of operating in device Active, Sleep and Deep-Sleep power modes. 
 310:Generated_Source\PSoC6\pdl\drivers/peripheral/sysclk/cy_sysclk.h **** *   It is not available in Hibernate mode.
 311:Generated_Source\PSoC6\pdl\drivers/peripheral/sysclk/cy_sysclk.h **** *
 312:Generated_Source\PSoC6\pdl\drivers/peripheral/sysclk/cy_sysclk.h **** *   The PILO can be used as a source for the \ref group_sysclk_clk_lf. However,
 313:Generated_Source\PSoC6\pdl\drivers/peripheral/sysclk/cy_sysclk.h **** *   because PILO is disabled in Hibernate mode, RTC timers cannot operate in this mode
 314:Generated_Source\PSoC6\pdl\drivers/peripheral/sysclk/cy_sysclk.h **** *   when clocked using the PILO. Instead, either the \ref group_sysclk_ilo "ILO" or
 315:Generated_Source\PSoC6\pdl\drivers/peripheral/sysclk/cy_sysclk.h **** *   \ref group_sysclk_wco "WCO" should be used when hibernate operation is required. 
 316:Generated_Source\PSoC6\pdl\drivers/peripheral/sysclk/cy_sysclk.h **** *
 317:Generated_Source\PSoC6\pdl\drivers/peripheral/sysclk/cy_sysclk.h **** *   ![](sysclk_backup.png)
 318:Generated_Source\PSoC6\pdl\drivers/peripheral/sysclk/cy_sysclk.h **** *
 319:Generated_Source\PSoC6\pdl\drivers/peripheral/sysclk/cy_sysclk.h **** *   Periodic calibration to a high-accuracy clock (such as ECO) is required to
 320:Generated_Source\PSoC6\pdl\drivers/peripheral/sysclk/cy_sysclk.h **** *   maintain accuracy. The application should use the functions described in the 
 321:Generated_Source\PSoC6\pdl\drivers/peripheral/sysclk/cy_sysclk.h **** *   \ref group_sysclk_calclk API to measure the current PILO frequency before trimming.
 322:Generated_Source\PSoC6\pdl\drivers/peripheral/sysclk/cy_sysclk.h **** *
 323:Generated_Source\PSoC6\pdl\drivers/peripheral/sysclk/cy_sysclk.h **** *   \defgroup group_sysclk_pilo_funcs      Functions
 324:Generated_Source\PSoC6\pdl\drivers/peripheral/sysclk/cy_sysclk.h **** * \}
 325:Generated_Source\PSoC6\pdl\drivers/peripheral/sysclk/cy_sysclk.h **** * \defgroup group_sysclk_calclk          Clock Measurement
 326:Generated_Source\PSoC6\pdl\drivers/peripheral/sysclk/cy_sysclk.h **** * \{
 327:Generated_Source\PSoC6\pdl\drivers/peripheral/sysclk/cy_sysclk.h **** *   These functions measure the frequency of a specified clock relative to a
 328:Generated_Source\PSoC6\pdl\drivers/peripheral/sysclk/cy_sysclk.h **** *   reference clock. They are typically called in the following order:
 329:Generated_Source\PSoC6\pdl\drivers/peripheral/sysclk/cy_sysclk.h **** *
 330:Generated_Source\PSoC6\pdl\drivers/peripheral/sysclk/cy_sysclk.h **** *   1. Specify the measured clock, the count, and the reference clock
 331:Generated_Source\PSoC6\pdl\drivers/peripheral/sysclk/cy_sysclk.h **** *   2. Start the counters
 332:Generated_Source\PSoC6\pdl\drivers/peripheral/sysclk/cy_sysclk.h **** *   3. Wait for the measurement counter to finish counting
 333:Generated_Source\PSoC6\pdl\drivers/peripheral/sysclk/cy_sysclk.h **** *   4. Retrieve the measured frequency
 334:Generated_Source\PSoC6\pdl\drivers/peripheral/sysclk/cy_sysclk.h **** *
 335:Generated_Source\PSoC6\pdl\drivers/peripheral/sysclk/cy_sysclk.h **** *   \note These functions may also be used as part of a clock trimming
 336:Generated_Source\PSoC6\pdl\drivers/peripheral/sysclk/cy_sysclk.h **** *   process. Refer to the \ref group_sysclk_trim "Clock Trim" API.
 337:Generated_Source\PSoC6\pdl\drivers/peripheral/sysclk/cy_sysclk.h **** *
 338:Generated_Source\PSoC6\pdl\drivers/peripheral/sysclk/cy_sysclk.h **** *   \defgroup group_sysclk_calclk_funcs    Functions
 339:Generated_Source\PSoC6\pdl\drivers/peripheral/sysclk/cy_sysclk.h **** *   \defgroup group_sysclk_calclk_enums    Enumerated Types
 340:Generated_Source\PSoC6\pdl\drivers/peripheral/sysclk/cy_sysclk.h **** * \}
 341:Generated_Source\PSoC6\pdl\drivers/peripheral/sysclk/cy_sysclk.h **** * \defgroup group_sysclk_trim            Clock Trim (ILO, PILO)
 342:Generated_Source\PSoC6\pdl\drivers/peripheral/sysclk/cy_sysclk.h **** * \{
 343:Generated_Source\PSoC6\pdl\drivers/peripheral/sysclk/cy_sysclk.h **** *   These functions perform a single trim operation on the ILO or PILO. Each
 344:Generated_Source\PSoC6\pdl\drivers/peripheral/sysclk/cy_sysclk.h **** *   function's parameter is the actual frequency of the clock. To measure the
 345:Generated_Source\PSoC6\pdl\drivers/peripheral/sysclk/cy_sysclk.h **** *   frequency, use the functions described in the \ref group_sysclk_calclk API.
 346:Generated_Source\PSoC6\pdl\drivers/peripheral/sysclk/cy_sysclk.h **** *
 347:Generated_Source\PSoC6\pdl\drivers/peripheral/sysclk/cy_sysclk.h **** *   To trim the clock as close as possible to the target frequency, multiple
 348:Generated_Source\PSoC6\pdl\drivers/peripheral/sysclk/cy_sysclk.h **** *   calls to the trim function may be needed. A typical usage example is to:
 349:Generated_Source\PSoC6\pdl\drivers/peripheral/sysclk/cy_sysclk.h **** *   1. Call the clock measurement functions to get the actual frequency of the clock
 350:Generated_Source\PSoC6\pdl\drivers/peripheral/sysclk/cy_sysclk.h **** *   2. Call the trim function, passing in the measured frequency
 351:Generated_Source\PSoC6\pdl\drivers/peripheral/sysclk/cy_sysclk.h **** *   3. Repeat the above until the trim function reports that the clock is trimmed to within limits.
 352:Generated_Source\PSoC6\pdl\drivers/peripheral/sysclk/cy_sysclk.h **** *
 353:Generated_Source\PSoC6\pdl\drivers/peripheral/sysclk/cy_sysclk.h **** *   \defgroup group_sysclk_trim_funcs      Functions
 354:Generated_Source\PSoC6\pdl\drivers/peripheral/sysclk/cy_sysclk.h **** * \}
 355:Generated_Source\PSoC6\pdl\drivers/peripheral/sysclk/cy_sysclk.h **** * \defgroup group_sysclk_pm              Low Power Callback
 356:Generated_Source\PSoC6\pdl\drivers/peripheral/sysclk/cy_sysclk.h **** * \{
 357:Generated_Source\PSoC6\pdl\drivers/peripheral/sysclk/cy_sysclk.h **** *   Entering and exiting low power modes require compatible clock configurations
 358:Generated_Source\PSoC6\pdl\drivers/peripheral/sysclk/cy_sysclk.h **** *   to be set before entering low power and restored upon wake-up and exit. The
 359:Generated_Source\PSoC6\pdl\drivers/peripheral/sysclk/cy_sysclk.h **** *   SysClk driver provides a Cy_SysClk_DeepSleepCallback() function to support
 360:Generated_Source\PSoC6\pdl\drivers/peripheral/sysclk/cy_sysclk.h **** *   deep-sleep mode entry. 
ARM GAS  C:\Users\SimonChen\AppData\Local\Temp\ccD98YNQ.s 			page 11


 361:Generated_Source\PSoC6\pdl\drivers/peripheral/sysclk/cy_sysclk.h **** *
 362:Generated_Source\PSoC6\pdl\drivers/peripheral/sysclk/cy_sysclk.h **** *   This function can be called either by itself before initiating low-power mode
 363:Generated_Source\PSoC6\pdl\drivers/peripheral/sysclk/cy_sysclk.h **** *   entry or it can be used in conjunction with the SysPm driver as a registered 
 364:Generated_Source\PSoC6\pdl\drivers/peripheral/sysclk/cy_sysclk.h **** *   callback. To do so, register this function as a callback before calling 
 365:Generated_Source\PSoC6\pdl\drivers/peripheral/sysclk/cy_sysclk.h **** *   Cy_SysPm_DeepSleep(). Specify \ref CY_SYSPM_DEEPSLEEP as the callback type, 
 366:Generated_Source\PSoC6\pdl\drivers/peripheral/sysclk/cy_sysclk.h **** *   and call Cy_SysPm_RegisterCallback().
 367:Generated_Source\PSoC6\pdl\drivers/peripheral/sysclk/cy_sysclk.h **** *   
 368:Generated_Source\PSoC6\pdl\drivers/peripheral/sysclk/cy_sysclk.h **** *   \note If the FLL or PLL source is the ECO, this function must be called.
 369:Generated_Source\PSoC6\pdl\drivers/peripheral/sysclk/cy_sysclk.h **** *
 370:Generated_Source\PSoC6\pdl\drivers/peripheral/sysclk/cy_sysclk.h **** *   \defgroup group_sysclk_pm_funcs        Functions
 371:Generated_Source\PSoC6\pdl\drivers/peripheral/sysclk/cy_sysclk.h **** * \}
 372:Generated_Source\PSoC6\pdl\drivers/peripheral/sysclk/cy_sysclk.h **** * \defgroup group_sysclk_wco             Watch Crystal Oscillator (WCO)
 373:Generated_Source\PSoC6\pdl\drivers/peripheral/sysclk/cy_sysclk.h **** * \{
 374:Generated_Source\PSoC6\pdl\drivers/peripheral/sysclk/cy_sysclk.h **** *   The WCO is a highly accurate 32.768 kHz clock source capable of operating
 375:Generated_Source\PSoC6\pdl\drivers/peripheral/sysclk/cy_sysclk.h **** *   in all power modes (excluding the Off mode). It is the primary clock source for
 376:Generated_Source\PSoC6\pdl\drivers/peripheral/sysclk/cy_sysclk.h **** *   the backup domain clock, which is used by the real-time clock (RTC). The 
 377:Generated_Source\PSoC6\pdl\drivers/peripheral/sysclk/cy_sysclk.h **** *   WCO can also be used as a source for the low-frequency clock to support other
 378:Generated_Source\PSoC6\pdl\drivers/peripheral/sysclk/cy_sysclk.h **** *   low power mode peripherals.
 379:Generated_Source\PSoC6\pdl\drivers/peripheral/sysclk/cy_sysclk.h **** *
 380:Generated_Source\PSoC6\pdl\drivers/peripheral/sysclk/cy_sysclk.h **** *   ![](sysclk_backup.png)
 381:Generated_Source\PSoC6\pdl\drivers/peripheral/sysclk/cy_sysclk.h **** *
 382:Generated_Source\PSoC6\pdl\drivers/peripheral/sysclk/cy_sysclk.h **** *   The WCO requires the configuration of the dedicated WCO pins (SRSS_WCO_IN_PIN,
 383:Generated_Source\PSoC6\pdl\drivers/peripheral/sysclk/cy_sysclk.h **** *   SRSS_WCO_OUT_PIN). These must be configured as Analog Hi-Z drive modes and the
 384:Generated_Source\PSoC6\pdl\drivers/peripheral/sysclk/cy_sysclk.h **** *   HSIOM selection set to GPIO. The WCO can also be used in bypass mode, where
 385:Generated_Source\PSoC6\pdl\drivers/peripheral/sysclk/cy_sysclk.h **** *   an external 32.768 kHz square wave is brought in directly through the 
 386:Generated_Source\PSoC6\pdl\drivers/peripheral/sysclk/cy_sysclk.h **** *   SRSS_WCO_OUT_PIN pin.
 387:Generated_Source\PSoC6\pdl\drivers/peripheral/sysclk/cy_sysclk.h **** *
 388:Generated_Source\PSoC6\pdl\drivers/peripheral/sysclk/cy_sysclk.h **** *   Some devices support a built-in clock supervisor (CSV) in the WCO. The clock
 389:Generated_Source\PSoC6\pdl\drivers/peripheral/sysclk/cy_sysclk.h **** *   supervisor detects if the WCO has been lost; that is, the WCO is no longer 
 390:Generated_Source\PSoC6\pdl\drivers/peripheral/sysclk/cy_sysclk.h **** *   producing clock pulses. The CSV does this by checking to ensure there is at 
 391:Generated_Source\PSoC6\pdl\drivers/peripheral/sysclk/cy_sysclk.h **** *   least one WCO clock pulse within a certain time window. The ILO or PILO can be
 392:Generated_Source\PSoC6\pdl\drivers/peripheral/sysclk/cy_sysclk.h **** *   the supervising clock. Firmware can configure the CSV to trigger a fault,
 393:Generated_Source\PSoC6\pdl\drivers/peripheral/sysclk/cy_sysclk.h **** *   a reset, or both after specified cycles of the supervising clock.
 394:Generated_Source\PSoC6\pdl\drivers/peripheral/sysclk/cy_sysclk.h **** *
 395:Generated_Source\PSoC6\pdl\drivers/peripheral/sysclk/cy_sysclk.h **** *   \defgroup group_sysclk_wco_funcs       Functions
 396:Generated_Source\PSoC6\pdl\drivers/peripheral/sysclk/cy_sysclk.h **** *   \defgroup group_sysclk_wco_structs     Data Structures
 397:Generated_Source\PSoC6\pdl\drivers/peripheral/sysclk/cy_sysclk.h **** *   \defgroup group_sysclk_wco_enums       Enumerated Types
 398:Generated_Source\PSoC6\pdl\drivers/peripheral/sysclk/cy_sysclk.h **** * \}
 399:Generated_Source\PSoC6\pdl\drivers/peripheral/sysclk/cy_sysclk.h **** * \defgroup group_sysclk_clk_hf          High-Frequency Clocks
 400:Generated_Source\PSoC6\pdl\drivers/peripheral/sysclk/cy_sysclk.h **** * \{
 401:Generated_Source\PSoC6\pdl\drivers/peripheral/sysclk/cy_sysclk.h **** *   Multiple high frequency clocks (CLK_HF) are available in the device. For example,
 402:Generated_Source\PSoC6\pdl\drivers/peripheral/sysclk/cy_sysclk.h **** *   PSoC 63 series has five high-frequency root clocks. Each CLK_HF has a particular
 403:Generated_Source\PSoC6\pdl\drivers/peripheral/sysclk/cy_sysclk.h **** *   connection and chip-specific destination on the device.
 404:Generated_Source\PSoC6\pdl\drivers/peripheral/sysclk/cy_sysclk.h **** *
 405:Generated_Source\PSoC6\pdl\drivers/peripheral/sysclk/cy_sysclk.h **** *   |Name     |Description                                             |
 406:Generated_Source\PSoC6\pdl\drivers/peripheral/sysclk/cy_sysclk.h **** *   |:--------|:-------------------------------------------------------|
 407:Generated_Source\PSoC6\pdl\drivers/peripheral/sysclk/cy_sysclk.h **** *   |CLK_HF[0]| Root clock for CPUs, PERI, and AHB infrastructure      |
 408:Generated_Source\PSoC6\pdl\drivers/peripheral/sysclk/cy_sysclk.h **** *   |CLK_HF[1]| Root clock for the PDM/PCM and I2S audio subsystem     |
 409:Generated_Source\PSoC6\pdl\drivers/peripheral/sysclk/cy_sysclk.h **** *   |CLK_HF[2]| Root clock for the Serial Memory Interface subsystem   |
 410:Generated_Source\PSoC6\pdl\drivers/peripheral/sysclk/cy_sysclk.h **** *   |CLK_HF[3]| Root clock for USB communications                      |
 411:Generated_Source\PSoC6\pdl\drivers/peripheral/sysclk/cy_sysclk.h **** *   |CLK_HF[4]| Clock output on clk_ext pin (when used as an output)   |
 412:Generated_Source\PSoC6\pdl\drivers/peripheral/sysclk/cy_sysclk.h **** *
 413:Generated_Source\PSoC6\pdl\drivers/peripheral/sysclk/cy_sysclk.h **** *   ![](sysclk_hf.png)
 414:Generated_Source\PSoC6\pdl\drivers/peripheral/sysclk/cy_sysclk.h **** *
 415:Generated_Source\PSoC6\pdl\drivers/peripheral/sysclk/cy_sysclk.h **** *   Note this is a particular example. The actual tree may vary depending on the device series.
 416:Generated_Source\PSoC6\pdl\drivers/peripheral/sysclk/cy_sysclk.h **** *   Consult the Technical Reference Manual for your device for details.
 417:Generated_Source\PSoC6\pdl\drivers/peripheral/sysclk/cy_sysclk.h **** *   
ARM GAS  C:\Users\SimonChen\AppData\Local\Temp\ccD98YNQ.s 			page 12


 418:Generated_Source\PSoC6\pdl\drivers/peripheral/sysclk/cy_sysclk.h **** *   High frequency clocks are sourced by path clocks, which should be configured
 419:Generated_Source\PSoC6\pdl\drivers/peripheral/sysclk/cy_sysclk.h **** *   first. An exception to this rule is CLK_HF[0], which cannot be disabled. 
 420:Generated_Source\PSoC6\pdl\drivers/peripheral/sysclk/cy_sysclk.h **** *   This divided clock drives the core processors and the peripherals in the system.
 421:Generated_Source\PSoC6\pdl\drivers/peripheral/sysclk/cy_sysclk.h **** *   In order to update its clock source, CLK_HF[0] source must be selected without
 422:Generated_Source\PSoC6\pdl\drivers/peripheral/sysclk/cy_sysclk.h **** *   disabling the clock.
 423:Generated_Source\PSoC6\pdl\drivers/peripheral/sysclk/cy_sysclk.h **** *
 424:Generated_Source\PSoC6\pdl\drivers/peripheral/sysclk/cy_sysclk.h **** *   ![](sysclk_hf_dist.png)
 425:Generated_Source\PSoC6\pdl\drivers/peripheral/sysclk/cy_sysclk.h **** *
 426:Generated_Source\PSoC6\pdl\drivers/peripheral/sysclk/cy_sysclk.h **** *   Some devices support a clock supervisor (CSV) for each root clock. These
 427:Generated_Source\PSoC6\pdl\drivers/peripheral/sysclk/cy_sysclk.h **** *   can detect frequency loss, or monitor that the clock frequency stays within
 428:Generated_Source\PSoC6\pdl\drivers/peripheral/sysclk/cy_sysclk.h **** *   a specified range. The possible supervising clocks are IMO, ECO, or ALTHF. 
 429:Generated_Source\PSoC6\pdl\drivers/peripheral/sysclk/cy_sysclk.h **** *   Loss detection and frequency monitoring can be enabled or disabled independently.
 430:Generated_Source\PSoC6\pdl\drivers/peripheral/sysclk/cy_sysclk.h **** *   Each has its own programmable action that occurs on detection of an error.
 431:Generated_Source\PSoC6\pdl\drivers/peripheral/sysclk/cy_sysclk.h **** *
 432:Generated_Source\PSoC6\pdl\drivers/peripheral/sysclk/cy_sysclk.h **** *   \defgroup group_sysclk_clk_hf_funcs    Functions
 433:Generated_Source\PSoC6\pdl\drivers/peripheral/sysclk/cy_sysclk.h **** *   \defgroup group_sysclk_clk_hf_structs  Data Structures
 434:Generated_Source\PSoC6\pdl\drivers/peripheral/sysclk/cy_sysclk.h **** *   \defgroup group_sysclk_clk_hf_enums    Enumerated Types
 435:Generated_Source\PSoC6\pdl\drivers/peripheral/sysclk/cy_sysclk.h **** * \}
 436:Generated_Source\PSoC6\pdl\drivers/peripheral/sysclk/cy_sysclk.h **** * \defgroup group_sysclk_clk_fast        Fast Clock
 437:Generated_Source\PSoC6\pdl\drivers/peripheral/sysclk/cy_sysclk.h **** * \{
 438:Generated_Source\PSoC6\pdl\drivers/peripheral/sysclk/cy_sysclk.h **** *   The fast clock drives the "fast" processor (e.g. Cortex-M4 processor in PSoC 6).
 439:Generated_Source\PSoC6\pdl\drivers/peripheral/sysclk/cy_sysclk.h **** *   This clock is sourced by CLK_HF[0] (\ref group_sysclk_clk_hf "HF Clocks").
 440:Generated_Source\PSoC6\pdl\drivers/peripheral/sysclk/cy_sysclk.h **** *   A divider value of 1~256 can be used to further divide the CLK_HF[0] to a
 441:Generated_Source\PSoC6\pdl\drivers/peripheral/sysclk/cy_sysclk.h **** *   desired clock speed for the processor.
 442:Generated_Source\PSoC6\pdl\drivers/peripheral/sysclk/cy_sysclk.h **** *
 443:Generated_Source\PSoC6\pdl\drivers/peripheral/sysclk/cy_sysclk.h **** *   ![](sysclk_fast.png)
 444:Generated_Source\PSoC6\pdl\drivers/peripheral/sysclk/cy_sysclk.h **** *
 445:Generated_Source\PSoC6\pdl\drivers/peripheral/sysclk/cy_sysclk.h **** *   \defgroup group_sysclk_clk_fast_funcs  Functions
 446:Generated_Source\PSoC6\pdl\drivers/peripheral/sysclk/cy_sysclk.h **** * \}
 447:Generated_Source\PSoC6\pdl\drivers/peripheral/sysclk/cy_sysclk.h **** * \defgroup group_sysclk_clk_peri        Peripheral Clock
 448:Generated_Source\PSoC6\pdl\drivers/peripheral/sysclk/cy_sysclk.h **** * \{
 449:Generated_Source\PSoC6\pdl\drivers/peripheral/sysclk/cy_sysclk.h **** *   The peripheral clock is a divided clock of CLK_HF0 (\ref group_sysclk_clk_hf "HF Clocks").
 450:Generated_Source\PSoC6\pdl\drivers/peripheral/sysclk/cy_sysclk.h **** *   It is the source clock for the \ref group_sysclk_clk_slow, and most active domain
 451:Generated_Source\PSoC6\pdl\drivers/peripheral/sysclk/cy_sysclk.h **** *   peripheral clocks (\ref group_sysclk_clk_peripheral). A divider value of 1~256 
 452:Generated_Source\PSoC6\pdl\drivers/peripheral/sysclk/cy_sysclk.h **** *   can be used to further divide the CLK_HF[0] to a desired clock speed for the peripherals.
 453:Generated_Source\PSoC6\pdl\drivers/peripheral/sysclk/cy_sysclk.h **** *
 454:Generated_Source\PSoC6\pdl\drivers/peripheral/sysclk/cy_sysclk.h **** *   ![](sysclk_peri.png)
 455:Generated_Source\PSoC6\pdl\drivers/peripheral/sysclk/cy_sysclk.h **** *
 456:Generated_Source\PSoC6\pdl\drivers/peripheral/sysclk/cy_sysclk.h **** *   \defgroup group_sysclk_clk_peri_funcs  Functions
 457:Generated_Source\PSoC6\pdl\drivers/peripheral/sysclk/cy_sysclk.h **** * \}
 458:Generated_Source\PSoC6\pdl\drivers/peripheral/sysclk/cy_sysclk.h **** * \defgroup group_sysclk_clk_peripheral  Peripherals Clock Dividers
 459:Generated_Source\PSoC6\pdl\drivers/peripheral/sysclk/cy_sysclk.h **** * \{
 460:Generated_Source\PSoC6\pdl\drivers/peripheral/sysclk/cy_sysclk.h **** *   There are multiple peripheral clock dividers that, in effect, create 
 461:Generated_Source\PSoC6\pdl\drivers/peripheral/sysclk/cy_sysclk.h **** *   multiple separate peripheral clocks. The available dividers vary per device 
 462:Generated_Source\PSoC6\pdl\drivers/peripheral/sysclk/cy_sysclk.h **** *   series. As an example, for the PSoC 63 series there are 29 dividers:
 463:Generated_Source\PSoC6\pdl\drivers/peripheral/sysclk/cy_sysclk.h **** *
 464:Generated_Source\PSoC6\pdl\drivers/peripheral/sysclk/cy_sysclk.h **** *   - eight 8-bit dividers
 465:Generated_Source\PSoC6\pdl\drivers/peripheral/sysclk/cy_sysclk.h **** *   - sixteen 16-bit dividers
 466:Generated_Source\PSoC6\pdl\drivers/peripheral/sysclk/cy_sysclk.h **** *   - four fractional 16.5-bit dividers (16 integer bits, 5 fractional bits)
 467:Generated_Source\PSoC6\pdl\drivers/peripheral/sysclk/cy_sysclk.h **** *   - one fractional 24.5-bit divider (24 integer bits, 5 fractional bits)
 468:Generated_Source\PSoC6\pdl\drivers/peripheral/sysclk/cy_sysclk.h **** *
 469:Generated_Source\PSoC6\pdl\drivers/peripheral/sysclk/cy_sysclk.h **** *
 470:Generated_Source\PSoC6\pdl\drivers/peripheral/sysclk/cy_sysclk.h **** *   The 8-bit and 16-bit dividers are integer dividers. A divider value of 1 
 471:Generated_Source\PSoC6\pdl\drivers/peripheral/sysclk/cy_sysclk.h **** *   means the output frequency matches the input frequency (that is, there is
 472:Generated_Source\PSoC6\pdl\drivers/peripheral/sysclk/cy_sysclk.h **** *   no change). Otherwise the frequency is divided by the value of the divider.
 473:Generated_Source\PSoC6\pdl\drivers/peripheral/sysclk/cy_sysclk.h **** *   For example, if the input frequency is 50 MHz, and the divider is value 10,
 474:Generated_Source\PSoC6\pdl\drivers/peripheral/sysclk/cy_sysclk.h **** *   the output frequency is 5 MHz.
ARM GAS  C:\Users\SimonChen\AppData\Local\Temp\ccD98YNQ.s 			page 13


 475:Generated_Source\PSoC6\pdl\drivers/peripheral/sysclk/cy_sysclk.h **** *
 476:Generated_Source\PSoC6\pdl\drivers/peripheral/sysclk/cy_sysclk.h **** *   The five fractional bits supports further precision in 1/32nd increments. For
 477:Generated_Source\PSoC6\pdl\drivers/peripheral/sysclk/cy_sysclk.h **** *   example, a divider with an integer value of 3 and a fractional value of
 478:Generated_Source\PSoC6\pdl\drivers/peripheral/sysclk/cy_sysclk.h **** *   4 (4/32) results in a divider of 3.125. Fractional dividers are useful when
 479:Generated_Source\PSoC6\pdl\drivers/peripheral/sysclk/cy_sysclk.h **** *   a high-precision clock is required, for example, for a UART/SPI serial
 480:Generated_Source\PSoC6\pdl\drivers/peripheral/sysclk/cy_sysclk.h **** *   interface.
 481:Generated_Source\PSoC6\pdl\drivers/peripheral/sysclk/cy_sysclk.h **** *
 482:Generated_Source\PSoC6\pdl\drivers/peripheral/sysclk/cy_sysclk.h **** *   ![](sysclk_peri_divs.png)
 483:Generated_Source\PSoC6\pdl\drivers/peripheral/sysclk/cy_sysclk.h **** *
 484:Generated_Source\PSoC6\pdl\drivers/peripheral/sysclk/cy_sysclk.h **** *   Each peripheral can connect to any one of the programmable dividers. A
 485:Generated_Source\PSoC6\pdl\drivers/peripheral/sysclk/cy_sysclk.h **** *   particular peripheral clock divider can drive multiple peripherals.
 486:Generated_Source\PSoC6\pdl\drivers/peripheral/sysclk/cy_sysclk.h **** *   
 487:Generated_Source\PSoC6\pdl\drivers/peripheral/sysclk/cy_sysclk.h **** *   The SysClk driver also supports phase aligning two peripheral clock dividers using
 488:Generated_Source\PSoC6\pdl\drivers/peripheral/sysclk/cy_sysclk.h **** *   Cy_SysClk_PeriphEnablePhaseAlignDivider(). Alignment works for both integer
 489:Generated_Source\PSoC6\pdl\drivers/peripheral/sysclk/cy_sysclk.h **** *   and fractional dividers. The divider to which a second divider is aligned
 490:Generated_Source\PSoC6\pdl\drivers/peripheral/sysclk/cy_sysclk.h **** *   must already be enabled.
 491:Generated_Source\PSoC6\pdl\drivers/peripheral/sysclk/cy_sysclk.h **** *
 492:Generated_Source\PSoC6\pdl\drivers/peripheral/sysclk/cy_sysclk.h **** *   \defgroup group_sysclk_clk_peripheral_funcs Functions
 493:Generated_Source\PSoC6\pdl\drivers/peripheral/sysclk/cy_sysclk.h **** *   \defgroup group_sysclk_clk_peripheral_enums Enumerated Types
 494:Generated_Source\PSoC6\pdl\drivers/peripheral/sysclk/cy_sysclk.h **** * \}
 495:Generated_Source\PSoC6\pdl\drivers/peripheral/sysclk/cy_sysclk.h **** * \defgroup group_sysclk_clk_slow        Slow Clock
 496:Generated_Source\PSoC6\pdl\drivers/peripheral/sysclk/cy_sysclk.h **** * \{
 497:Generated_Source\PSoC6\pdl\drivers/peripheral/sysclk/cy_sysclk.h **** *   The slow clock is the source clock for the "slow" processor (e.g. Cortex-M0+ in PSoC 6).
 498:Generated_Source\PSoC6\pdl\drivers/peripheral/sysclk/cy_sysclk.h **** *   This clock is a divided version of the \ref group_sysclk_clk_peri, which in turn is 
 499:Generated_Source\PSoC6\pdl\drivers/peripheral/sysclk/cy_sysclk.h **** *   a divided version of CLK_HF[0] (\ref group_sysclk_clk_hf "HF Clocks"). A divider 
 500:Generated_Source\PSoC6\pdl\drivers/peripheral/sysclk/cy_sysclk.h **** *   value of 1~256 can be used to further divide the Peri clock to a desired clock speed
 501:Generated_Source\PSoC6\pdl\drivers/peripheral/sysclk/cy_sysclk.h **** *   for the processor.
 502:Generated_Source\PSoC6\pdl\drivers/peripheral/sysclk/cy_sysclk.h **** *
 503:Generated_Source\PSoC6\pdl\drivers/peripheral/sysclk/cy_sysclk.h **** *   ![](sysclk_slow.png)
 504:Generated_Source\PSoC6\pdl\drivers/peripheral/sysclk/cy_sysclk.h **** *
 505:Generated_Source\PSoC6\pdl\drivers/peripheral/sysclk/cy_sysclk.h **** *   \defgroup group_sysclk_clk_slow_funcs  Functions
 506:Generated_Source\PSoC6\pdl\drivers/peripheral/sysclk/cy_sysclk.h **** * \}
 507:Generated_Source\PSoC6\pdl\drivers/peripheral/sysclk/cy_sysclk.h **** * \defgroup group_sysclk_clk_lf          Low-Frequency Clock
 508:Generated_Source\PSoC6\pdl\drivers/peripheral/sysclk/cy_sysclk.h **** * \{
 509:Generated_Source\PSoC6\pdl\drivers/peripheral/sysclk/cy_sysclk.h **** *   The low-frequency clock is the source clock for the \ref group_mcwdt
 510:Generated_Source\PSoC6\pdl\drivers/peripheral/sysclk/cy_sysclk.h **** *   and can be the source clock for \ref group_sysclk_clk_bak, which drives the
 511:Generated_Source\PSoC6\pdl\drivers/peripheral/sysclk/cy_sysclk.h **** *   \ref group_rtc.
 512:Generated_Source\PSoC6\pdl\drivers/peripheral/sysclk/cy_sysclk.h **** *   
 513:Generated_Source\PSoC6\pdl\drivers/peripheral/sysclk/cy_sysclk.h **** *   The low-frequency clock has three possible source clocks:
 514:Generated_Source\PSoC6\pdl\drivers/peripheral/sysclk/cy_sysclk.h **** *   \ref group_sysclk_ilo "ILO", \ref group_sysclk_pilo "PILO", and
 515:Generated_Source\PSoC6\pdl\drivers/peripheral/sysclk/cy_sysclk.h **** *   \ref group_sysclk_wco "WCO".
 516:Generated_Source\PSoC6\pdl\drivers/peripheral/sysclk/cy_sysclk.h **** *
 517:Generated_Source\PSoC6\pdl\drivers/peripheral/sysclk/cy_sysclk.h **** *   ![](sysclk_lf.png)
 518:Generated_Source\PSoC6\pdl\drivers/peripheral/sysclk/cy_sysclk.h **** *
 519:Generated_Source\PSoC6\pdl\drivers/peripheral/sysclk/cy_sysclk.h **** *   \defgroup group_sysclk_clk_lf_funcs    Functions
 520:Generated_Source\PSoC6\pdl\drivers/peripheral/sysclk/cy_sysclk.h **** *   \defgroup group_sysclk_clk_lf_enums    Enumerated Types
 521:Generated_Source\PSoC6\pdl\drivers/peripheral/sysclk/cy_sysclk.h **** * \}
 522:Generated_Source\PSoC6\pdl\drivers/peripheral/sysclk/cy_sysclk.h **** * \defgroup group_sysclk_clk_timer       Timer Clock
 523:Generated_Source\PSoC6\pdl\drivers/peripheral/sysclk/cy_sysclk.h **** * \{
 524:Generated_Source\PSoC6\pdl\drivers/peripheral/sysclk/cy_sysclk.h **** *   The timer clock can be a source for the alternative clock driving 
 525:Generated_Source\PSoC6\pdl\drivers/peripheral/sysclk/cy_sysclk.h **** *   the \ref group_arm_system_timer. It can also be used as a reference clock 
 526:Generated_Source\PSoC6\pdl\drivers/peripheral/sysclk/cy_sysclk.h **** *   for a counter in the \ref group_energy_profiler "Energy Profiler".
 527:Generated_Source\PSoC6\pdl\drivers/peripheral/sysclk/cy_sysclk.h **** *   
 528:Generated_Source\PSoC6\pdl\drivers/peripheral/sysclk/cy_sysclk.h **** *   The timer clock is a divided clock of either the IMO or CLK_HF[0]
 529:Generated_Source\PSoC6\pdl\drivers/peripheral/sysclk/cy_sysclk.h **** *   (\ref group_sysclk_clk_hf "HF Clocks").
 530:Generated_Source\PSoC6\pdl\drivers/peripheral/sysclk/cy_sysclk.h **** *
 531:Generated_Source\PSoC6\pdl\drivers/peripheral/sysclk/cy_sysclk.h **** *   \defgroup group_sysclk_clk_timer_funcs Functions
ARM GAS  C:\Users\SimonChen\AppData\Local\Temp\ccD98YNQ.s 			page 14


 532:Generated_Source\PSoC6\pdl\drivers/peripheral/sysclk/cy_sysclk.h **** *   \defgroup group_sysclk_clk_timer_enums Enumerated Types
 533:Generated_Source\PSoC6\pdl\drivers/peripheral/sysclk/cy_sysclk.h **** * \}
 534:Generated_Source\PSoC6\pdl\drivers/peripheral/sysclk/cy_sysclk.h **** * \defgroup group_sysclk_clk_pump        Pump Clock
 535:Generated_Source\PSoC6\pdl\drivers/peripheral/sysclk/cy_sysclk.h **** * \{
 536:Generated_Source\PSoC6\pdl\drivers/peripheral/sysclk/cy_sysclk.h **** *   The pump clock is a clock source used to provide analog precision in low voltage
 537:Generated_Source\PSoC6\pdl\drivers/peripheral/sysclk/cy_sysclk.h **** *   applications. Depending on the usage scenario, it may be required to drive the
 538:Generated_Source\PSoC6\pdl\drivers/peripheral/sysclk/cy_sysclk.h **** *   internal voltage pump for the Continuous Time Block mini (CTBm) in the analog 
 539:Generated_Source\PSoC6\pdl\drivers/peripheral/sysclk/cy_sysclk.h **** *   subsystem. The pump clock is a divided clock of one of the clock paths 
 540:Generated_Source\PSoC6\pdl\drivers/peripheral/sysclk/cy_sysclk.h **** *   (\ref group_sysclk_path_src).
 541:Generated_Source\PSoC6\pdl\drivers/peripheral/sysclk/cy_sysclk.h **** *
 542:Generated_Source\PSoC6\pdl\drivers/peripheral/sysclk/cy_sysclk.h **** *   \defgroup group_sysclk_clk_pump_funcs  Functions
 543:Generated_Source\PSoC6\pdl\drivers/peripheral/sysclk/cy_sysclk.h **** *   \defgroup group_sysclk_clk_pump_enums  Enumerated Types
 544:Generated_Source\PSoC6\pdl\drivers/peripheral/sysclk/cy_sysclk.h **** * \}
 545:Generated_Source\PSoC6\pdl\drivers/peripheral/sysclk/cy_sysclk.h **** * \defgroup group_sysclk_clk_bak         Backup Domain Clock
 546:Generated_Source\PSoC6\pdl\drivers/peripheral/sysclk/cy_sysclk.h **** * \{
 547:Generated_Source\PSoC6\pdl\drivers/peripheral/sysclk/cy_sysclk.h **** *   The backup domain clock drives the \ref group_rtc.
 548:Generated_Source\PSoC6\pdl\drivers/peripheral/sysclk/cy_sysclk.h **** *   This clock has two possible source clocks: \ref group_sysclk_wco "WCO"
 549:Generated_Source\PSoC6\pdl\drivers/peripheral/sysclk/cy_sysclk.h **** *   or the \ref group_sysclk_clk_lf. In turn the low frequency clock is sourced by
 550:Generated_Source\PSoC6\pdl\drivers/peripheral/sysclk/cy_sysclk.h **** *   \ref group_sysclk_ilo "ILO", \ref group_sysclk_pilo "PILO", or
 551:Generated_Source\PSoC6\pdl\drivers/peripheral/sysclk/cy_sysclk.h **** *   \ref group_sysclk_wco "WCO". Typically the ILO is not suitable as an RTC source,
 552:Generated_Source\PSoC6\pdl\drivers/peripheral/sysclk/cy_sysclk.h **** *   because of its low accuracy. However the ILO does operate in hibernate mode and
 553:Generated_Source\PSoC6\pdl\drivers/peripheral/sysclk/cy_sysclk.h **** *   may be used as an alternative to the WCO with a tradeoff in precision.
 554:Generated_Source\PSoC6\pdl\drivers/peripheral/sysclk/cy_sysclk.h **** *
 555:Generated_Source\PSoC6\pdl\drivers/peripheral/sysclk/cy_sysclk.h **** *   \defgroup group_sysclk_clk_bak_funcs   Functions
 556:Generated_Source\PSoC6\pdl\drivers/peripheral/sysclk/cy_sysclk.h **** *   \defgroup group_sysclk_clk_bak_enums   Enumerated Types
 557:Generated_Source\PSoC6\pdl\drivers/peripheral/sysclk/cy_sysclk.h **** * \}
 558:Generated_Source\PSoC6\pdl\drivers/peripheral/sysclk/cy_sysclk.h **** */
 559:Generated_Source\PSoC6\pdl\drivers/peripheral/sysclk/cy_sysclk.h **** 
 560:Generated_Source\PSoC6\pdl\drivers/peripheral/sysclk/cy_sysclk.h **** #if !defined(CY_SYSCLK_H)
 561:Generated_Source\PSoC6\pdl\drivers/peripheral/sysclk/cy_sysclk.h **** #define CY_SYSCLK_H
 562:Generated_Source\PSoC6\pdl\drivers/peripheral/sysclk/cy_sysclk.h **** 
 563:Generated_Source\PSoC6\pdl\drivers/peripheral/sysclk/cy_sysclk.h **** #include <stdbool.h>
 564:Generated_Source\PSoC6\pdl\drivers/peripheral/sysclk/cy_sysclk.h **** #include "cy_device.h"
 565:Generated_Source\PSoC6\pdl\drivers/peripheral/sysclk/cy_sysclk.h **** #include "cy_device_headers.h"
 566:Generated_Source\PSoC6\pdl\drivers/peripheral/sysclk/cy_sysclk.h **** #include "cy_syslib.h"
 567:Generated_Source\PSoC6\pdl\drivers/peripheral/sysclk/cy_sysclk.h **** #include "cy_syspm.h"
 568:Generated_Source\PSoC6\pdl\drivers/peripheral/sysclk/cy_sysclk.h **** 
 569:Generated_Source\PSoC6\pdl\drivers/peripheral/sysclk/cy_sysclk.h **** 
 570:Generated_Source\PSoC6\pdl\drivers/peripheral/sysclk/cy_sysclk.h **** #if defined(__cplusplus)
 571:Generated_Source\PSoC6\pdl\drivers/peripheral/sysclk/cy_sysclk.h **** extern "C" {
 572:Generated_Source\PSoC6\pdl\drivers/peripheral/sysclk/cy_sysclk.h **** #endif /* __cplusplus */
 573:Generated_Source\PSoC6\pdl\drivers/peripheral/sysclk/cy_sysclk.h **** 
 574:Generated_Source\PSoC6\pdl\drivers/peripheral/sysclk/cy_sysclk.h **** /**
 575:Generated_Source\PSoC6\pdl\drivers/peripheral/sysclk/cy_sysclk.h **** * \addtogroup group_sysclk_macros
 576:Generated_Source\PSoC6\pdl\drivers/peripheral/sysclk/cy_sysclk.h **** * \{
 577:Generated_Source\PSoC6\pdl\drivers/peripheral/sysclk/cy_sysclk.h **** */
 578:Generated_Source\PSoC6\pdl\drivers/peripheral/sysclk/cy_sysclk.h **** /** Driver major version */
 579:Generated_Source\PSoC6\pdl\drivers/peripheral/sysclk/cy_sysclk.h **** #define  CY_SYSCLK_DRV_VERSION_MAJOR   1
 580:Generated_Source\PSoC6\pdl\drivers/peripheral/sysclk/cy_sysclk.h **** /** Driver minor version */
 581:Generated_Source\PSoC6\pdl\drivers/peripheral/sysclk/cy_sysclk.h **** #define  CY_SYSCLK_DRV_VERSION_MINOR   20
 582:Generated_Source\PSoC6\pdl\drivers/peripheral/sysclk/cy_sysclk.h **** /** Sysclk driver identifier */
 583:Generated_Source\PSoC6\pdl\drivers/peripheral/sysclk/cy_sysclk.h **** #define CY_SYSCLK_ID   CY_PDL_DRV_ID(0x12U)
 584:Generated_Source\PSoC6\pdl\drivers/peripheral/sysclk/cy_sysclk.h **** 
 585:Generated_Source\PSoC6\pdl\drivers/peripheral/sysclk/cy_sysclk.h **** /** \} group_sysclk_macros */
 586:Generated_Source\PSoC6\pdl\drivers/peripheral/sysclk/cy_sysclk.h **** 
 587:Generated_Source\PSoC6\pdl\drivers/peripheral/sysclk/cy_sysclk.h **** /**
 588:Generated_Source\PSoC6\pdl\drivers/peripheral/sysclk/cy_sysclk.h **** * \addtogroup group_sysclk_returns
ARM GAS  C:\Users\SimonChen\AppData\Local\Temp\ccD98YNQ.s 			page 15


 589:Generated_Source\PSoC6\pdl\drivers/peripheral/sysclk/cy_sysclk.h **** * \{
 590:Generated_Source\PSoC6\pdl\drivers/peripheral/sysclk/cy_sysclk.h **** */
 591:Generated_Source\PSoC6\pdl\drivers/peripheral/sysclk/cy_sysclk.h **** /** Defines general-purpose function return values. */
 592:Generated_Source\PSoC6\pdl\drivers/peripheral/sysclk/cy_sysclk.h **** typedef enum
 593:Generated_Source\PSoC6\pdl\drivers/peripheral/sysclk/cy_sysclk.h **** {
 594:Generated_Source\PSoC6\pdl\drivers/peripheral/sysclk/cy_sysclk.h ****     CY_SYSCLK_SUCCESS       = 0u, /**< Command completed with no errors */
 595:Generated_Source\PSoC6\pdl\drivers/peripheral/sysclk/cy_sysclk.h ****     CY_SYSCLK_BAD_PARAM     = (CY_SYSCLK_ID | CY_PDL_STATUS_ERROR | 1U), /**< Invalid function inpu
 596:Generated_Source\PSoC6\pdl\drivers/peripheral/sysclk/cy_sysclk.h ****     CY_SYSCLK_TIMEOUT       = (CY_SYSCLK_ID | CY_PDL_STATUS_ERROR | 2U), /**< Timeout occurred */
 597:Generated_Source\PSoC6\pdl\drivers/peripheral/sysclk/cy_sysclk.h ****     CY_SYSCLK_INVALID_STATE = (CY_SYSCLK_ID | CY_PDL_STATUS_ERROR | 3U)  /**< Clock is in an invali
 598:Generated_Source\PSoC6\pdl\drivers/peripheral/sysclk/cy_sysclk.h **** } cy_en_sysclk_status_t;
 599:Generated_Source\PSoC6\pdl\drivers/peripheral/sysclk/cy_sysclk.h **** /** \} group_sysclk_returns */
 600:Generated_Source\PSoC6\pdl\drivers/peripheral/sysclk/cy_sysclk.h **** 
 601:Generated_Source\PSoC6\pdl\drivers/peripheral/sysclk/cy_sysclk.h **** /** \cond INTERNAL */
 602:Generated_Source\PSoC6\pdl\drivers/peripheral/sysclk/cy_sysclk.h **** /* Calculate a / b with rounding to the nearest integer. a and b must have the same sign. */
 603:Generated_Source\PSoC6\pdl\drivers/peripheral/sysclk/cy_sysclk.h **** #define CY_SYSCLK_DIV_ROUND(a, b) (((a) + ((b) / 2u)) / (b))
 604:Generated_Source\PSoC6\pdl\drivers/peripheral/sysclk/cy_sysclk.h **** /* Calculate a / b with rounding up if remainder != 0. a and b must both be positive. */
 605:Generated_Source\PSoC6\pdl\drivers/peripheral/sysclk/cy_sysclk.h **** #define CY_SYSCLK_DIV_ROUNDUP(a, b) ((((a) - 1U) / (b)) + 1U)
 606:Generated_Source\PSoC6\pdl\drivers/peripheral/sysclk/cy_sysclk.h **** /** \endcond */
 607:Generated_Source\PSoC6\pdl\drivers/peripheral/sysclk/cy_sysclk.h **** 
 608:Generated_Source\PSoC6\pdl\drivers/peripheral/sysclk/cy_sysclk.h **** 
 609:Generated_Source\PSoC6\pdl\drivers/peripheral/sysclk/cy_sysclk.h **** /* ========================================================================== */
 610:Generated_Source\PSoC6\pdl\drivers/peripheral/sysclk/cy_sysclk.h **** /* ===========================    ECO SECTION    ============================ */
 611:Generated_Source\PSoC6\pdl\drivers/peripheral/sysclk/cy_sysclk.h **** /* ========================================================================== */
 612:Generated_Source\PSoC6\pdl\drivers/peripheral/sysclk/cy_sysclk.h **** 
 613:Generated_Source\PSoC6\pdl\drivers/peripheral/sysclk/cy_sysclk.h **** /**
 614:Generated_Source\PSoC6\pdl\drivers/peripheral/sysclk/cy_sysclk.h **** * \addtogroup group_sysclk_macros
 615:Generated_Source\PSoC6\pdl\drivers/peripheral/sysclk/cy_sysclk.h **** * \{
 616:Generated_Source\PSoC6\pdl\drivers/peripheral/sysclk/cy_sysclk.h **** */
 617:Generated_Source\PSoC6\pdl\drivers/peripheral/sysclk/cy_sysclk.h **** 
 618:Generated_Source\PSoC6\pdl\drivers/peripheral/sysclk/cy_sysclk.h **** /**
 619:Generated_Source\PSoC6\pdl\drivers/peripheral/sysclk/cy_sysclk.h **** * \defgroup group_sysclk_ecostatus ECO status
 620:Generated_Source\PSoC6\pdl\drivers/peripheral/sysclk/cy_sysclk.h **** * \{
 621:Generated_Source\PSoC6\pdl\drivers/peripheral/sysclk/cy_sysclk.h **** * Constants used for expressing ECO status.
 622:Generated_Source\PSoC6\pdl\drivers/peripheral/sysclk/cy_sysclk.h **** */
 623:Generated_Source\PSoC6\pdl\drivers/peripheral/sysclk/cy_sysclk.h **** #define CY_SYSCLK_ECOSTAT_AMPLITUDE  0UL /**< \brief ECO does not have sufficient amplitude */
 624:Generated_Source\PSoC6\pdl\drivers/peripheral/sysclk/cy_sysclk.h **** #define CY_SYSCLK_ECOSTAT_INACCURATE 1UL /**< \brief ECO may not be meeting accuracy and duty cycle
 625:Generated_Source\PSoC6\pdl\drivers/peripheral/sysclk/cy_sysclk.h **** #define CY_SYSCLK_ECOSTAT_STABLE     2UL /**< \brief ECO has fully stabilized */
 626:Generated_Source\PSoC6\pdl\drivers/peripheral/sysclk/cy_sysclk.h **** /** \} */
 627:Generated_Source\PSoC6\pdl\drivers/peripheral/sysclk/cy_sysclk.h **** 
 628:Generated_Source\PSoC6\pdl\drivers/peripheral/sysclk/cy_sysclk.h **** /** \} group_sysclk_macros */
 629:Generated_Source\PSoC6\pdl\drivers/peripheral/sysclk/cy_sysclk.h **** 
 630:Generated_Source\PSoC6\pdl\drivers/peripheral/sysclk/cy_sysclk.h **** 
 631:Generated_Source\PSoC6\pdl\drivers/peripheral/sysclk/cy_sysclk.h **** /**
 632:Generated_Source\PSoC6\pdl\drivers/peripheral/sysclk/cy_sysclk.h **** * \addtogroup group_sysclk_eco_funcs
 633:Generated_Source\PSoC6\pdl\drivers/peripheral/sysclk/cy_sysclk.h **** * \{
 634:Generated_Source\PSoC6\pdl\drivers/peripheral/sysclk/cy_sysclk.h **** */
 635:Generated_Source\PSoC6\pdl\drivers/peripheral/sysclk/cy_sysclk.h **** cy_en_sysclk_status_t Cy_SysClk_EcoConfigure(uint32_t freq, uint32_t cLoad, uint32_t esr, uint32_t 
 636:Generated_Source\PSoC6\pdl\drivers/peripheral/sysclk/cy_sysclk.h **** cy_en_sysclk_status_t Cy_SysClk_EcoEnable(uint32_t timeoutus);
 637:Generated_Source\PSoC6\pdl\drivers/peripheral/sysclk/cy_sysclk.h **** __STATIC_INLINE void Cy_SysClk_EcoDisable(void);
 638:Generated_Source\PSoC6\pdl\drivers/peripheral/sysclk/cy_sysclk.h **** __STATIC_INLINE uint32_t Cy_SysClk_EcoGetStatus(void);
 639:Generated_Source\PSoC6\pdl\drivers/peripheral/sysclk/cy_sysclk.h **** 
 640:Generated_Source\PSoC6\pdl\drivers/peripheral/sysclk/cy_sysclk.h **** /*******************************************************************************
 641:Generated_Source\PSoC6\pdl\drivers/peripheral/sysclk/cy_sysclk.h **** * Function Name: Cy_SysClk_EcoDisable
 642:Generated_Source\PSoC6\pdl\drivers/peripheral/sysclk/cy_sysclk.h **** ****************************************************************************//**
 643:Generated_Source\PSoC6\pdl\drivers/peripheral/sysclk/cy_sysclk.h **** *
 644:Generated_Source\PSoC6\pdl\drivers/peripheral/sysclk/cy_sysclk.h **** * Disables the external crystal oscillator (ECO). This function should not be
 645:Generated_Source\PSoC6\pdl\drivers/peripheral/sysclk/cy_sysclk.h **** * called if the ECO is sourcing clkHf[0].
ARM GAS  C:\Users\SimonChen\AppData\Local\Temp\ccD98YNQ.s 			page 16


 646:Generated_Source\PSoC6\pdl\drivers/peripheral/sysclk/cy_sysclk.h **** *
 647:Generated_Source\PSoC6\pdl\drivers/peripheral/sysclk/cy_sysclk.h **** * \funcusage
 648:Generated_Source\PSoC6\pdl\drivers/peripheral/sysclk/cy_sysclk.h **** * \snippet sysclk/1.20/snippet/main.c snippet_Cy_SysClk_EcoDisable
 649:Generated_Source\PSoC6\pdl\drivers/peripheral/sysclk/cy_sysclk.h **** *
 650:Generated_Source\PSoC6\pdl\drivers/peripheral/sysclk/cy_sysclk.h **** *******************************************************************************/
 651:Generated_Source\PSoC6\pdl\drivers/peripheral/sysclk/cy_sysclk.h **** __STATIC_INLINE void Cy_SysClk_EcoDisable(void)
 652:Generated_Source\PSoC6\pdl\drivers/peripheral/sysclk/cy_sysclk.h **** {
 653:Generated_Source\PSoC6\pdl\drivers/peripheral/sysclk/cy_sysclk.h ****     SRSS_CLK_ECO_CONFIG &= (uint32_t)~_VAL2FLD(SRSS_CLK_ECO_CONFIG_ECO_EN, 1U); /* 0 = disable */
 654:Generated_Source\PSoC6\pdl\drivers/peripheral/sysclk/cy_sysclk.h **** }
 655:Generated_Source\PSoC6\pdl\drivers/peripheral/sysclk/cy_sysclk.h **** 
 656:Generated_Source\PSoC6\pdl\drivers/peripheral/sysclk/cy_sysclk.h **** /*******************************************************************************
 657:Generated_Source\PSoC6\pdl\drivers/peripheral/sysclk/cy_sysclk.h **** * Function Name: Cy_SysClk_EcoGetStatus
 658:Generated_Source\PSoC6\pdl\drivers/peripheral/sysclk/cy_sysclk.h **** ****************************************************************************//**
 659:Generated_Source\PSoC6\pdl\drivers/peripheral/sysclk/cy_sysclk.h **** *
 660:Generated_Source\PSoC6\pdl\drivers/peripheral/sysclk/cy_sysclk.h **** * Reports the current status of the external crystal oscillator (ECO).
 661:Generated_Source\PSoC6\pdl\drivers/peripheral/sysclk/cy_sysclk.h **** *
 662:Generated_Source\PSoC6\pdl\drivers/peripheral/sysclk/cy_sysclk.h **** * \return
 663:Generated_Source\PSoC6\pdl\drivers/peripheral/sysclk/cy_sysclk.h **** * CY_SYSCLK_ECOSTAT_AMPLITUDE = ECO does not have sufficient amplitude<br>
 664:Generated_Source\PSoC6\pdl\drivers/peripheral/sysclk/cy_sysclk.h **** * CY_SYSCLK_ECOSTAT_INACCURATE = ECO has sufficient amplitude but may not be meeting accuracy and d
 665:Generated_Source\PSoC6\pdl\drivers/peripheral/sysclk/cy_sysclk.h **** * CY_SYSCLK_ECOSTAT_STABLE = ECO has fully stabilized
 666:Generated_Source\PSoC6\pdl\drivers/peripheral/sysclk/cy_sysclk.h **** *
 667:Generated_Source\PSoC6\pdl\drivers/peripheral/sysclk/cy_sysclk.h **** * \funcusage
 668:Generated_Source\PSoC6\pdl\drivers/peripheral/sysclk/cy_sysclk.h **** * \snippet sysclk/1.20/snippet/main.c snippet_Cy_SysClk_EcoGetStatus
 669:Generated_Source\PSoC6\pdl\drivers/peripheral/sysclk/cy_sysclk.h **** *
 670:Generated_Source\PSoC6\pdl\drivers/peripheral/sysclk/cy_sysclk.h **** *******************************************************************************/
 671:Generated_Source\PSoC6\pdl\drivers/peripheral/sysclk/cy_sysclk.h **** __STATIC_INLINE uint32_t Cy_SysClk_EcoGetStatus(void)
 672:Generated_Source\PSoC6\pdl\drivers/peripheral/sysclk/cy_sysclk.h **** {
 673:Generated_Source\PSoC6\pdl\drivers/peripheral/sysclk/cy_sysclk.h ****     uint32_t retVal = (SRSS_CLK_ECO_STATUS & (SRSS_CLK_ECO_STATUS_ECO_OK_Msk | SRSS_CLK_ECO_STATUS_
 674:Generated_Source\PSoC6\pdl\drivers/peripheral/sysclk/cy_sysclk.h ****     /* if ECO is not ready, just report the ECO_OK bit. Otherwise report 2 = ECO ready */
 675:Generated_Source\PSoC6\pdl\drivers/peripheral/sysclk/cy_sysclk.h ****     return ((0UL == (retVal & SRSS_CLK_ECO_STATUS_ECO_READY_Msk)) ? retVal : CY_SYSCLK_ECOSTAT_STAB
 676:Generated_Source\PSoC6\pdl\drivers/peripheral/sysclk/cy_sysclk.h **** }
 677:Generated_Source\PSoC6\pdl\drivers/peripheral/sysclk/cy_sysclk.h **** /** \} group_sysclk_eco_funcs */
 678:Generated_Source\PSoC6\pdl\drivers/peripheral/sysclk/cy_sysclk.h **** 
 679:Generated_Source\PSoC6\pdl\drivers/peripheral/sysclk/cy_sysclk.h **** 
 680:Generated_Source\PSoC6\pdl\drivers/peripheral/sysclk/cy_sysclk.h **** /* ========================================================================== */
 681:Generated_Source\PSoC6\pdl\drivers/peripheral/sysclk/cy_sysclk.h **** /* ====================    INPUT MULTIPLEXER SECTION    ===================== */
 682:Generated_Source\PSoC6\pdl\drivers/peripheral/sysclk/cy_sysclk.h **** /* ========================================================================== */
 683:Generated_Source\PSoC6\pdl\drivers/peripheral/sysclk/cy_sysclk.h **** /**
 684:Generated_Source\PSoC6\pdl\drivers/peripheral/sysclk/cy_sysclk.h **** * \addtogroup group_sysclk_path_src_enums
 685:Generated_Source\PSoC6\pdl\drivers/peripheral/sysclk/cy_sysclk.h **** * \{
 686:Generated_Source\PSoC6\pdl\drivers/peripheral/sysclk/cy_sysclk.h **** */
 687:Generated_Source\PSoC6\pdl\drivers/peripheral/sysclk/cy_sysclk.h **** /**
 688:Generated_Source\PSoC6\pdl\drivers/peripheral/sysclk/cy_sysclk.h **** *   Input multiplexer clock sources
 689:Generated_Source\PSoC6\pdl\drivers/peripheral/sysclk/cy_sysclk.h **** */
 690:Generated_Source\PSoC6\pdl\drivers/peripheral/sysclk/cy_sysclk.h **** typedef enum
 691:Generated_Source\PSoC6\pdl\drivers/peripheral/sysclk/cy_sysclk.h **** {
 692:Generated_Source\PSoC6\pdl\drivers/peripheral/sysclk/cy_sysclk.h ****     CY_SYSCLK_CLKPATH_IN_IMO    =     0U, /**< Select the IMO as the output of the path mux */
 693:Generated_Source\PSoC6\pdl\drivers/peripheral/sysclk/cy_sysclk.h ****     CY_SYSCLK_CLKPATH_IN_EXT    =     1U, /**< Select the EXT as the output of the path mux */
 694:Generated_Source\PSoC6\pdl\drivers/peripheral/sysclk/cy_sysclk.h ****     CY_SYSCLK_CLKPATH_IN_ECO    =     2U, /**< Select the ECO as the output of the path mux */
 695:Generated_Source\PSoC6\pdl\drivers/peripheral/sysclk/cy_sysclk.h ****     CY_SYSCLK_CLKPATH_IN_ALTHF  =     3U, /**< Select the ALTHF as the output of the path mux.
 696:Generated_Source\PSoC6\pdl\drivers/peripheral/sysclk/cy_sysclk.h ****                                            *   Make sure the ALTHF clock source is available on use
 697:Generated_Source\PSoC6\pdl\drivers/peripheral/sysclk/cy_sysclk.h ****                                            */
 698:Generated_Source\PSoC6\pdl\drivers/peripheral/sysclk/cy_sysclk.h ****     CY_SYSCLK_CLKPATH_IN_DSIMUX =     4U, /**< Select the DSI MUX output as the output of the path 
 699:Generated_Source\PSoC6\pdl\drivers/peripheral/sysclk/cy_sysclk.h ****     CY_SYSCLK_CLKPATH_IN_DSI    = 0x100U, /**< Select a DSI signal (0 - 15) as the output of the DS
 700:Generated_Source\PSoC6\pdl\drivers/peripheral/sysclk/cy_sysclk.h ****                                            *   Make sure the DSI clock sources are available on use
 701:Generated_Source\PSoC6\pdl\drivers/peripheral/sysclk/cy_sysclk.h ****                                            */
 702:Generated_Source\PSoC6\pdl\drivers/peripheral/sysclk/cy_sysclk.h ****     CY_SYSCLK_CLKPATH_IN_ILO    = 0x110U, /**< Select the ILO (16) as the output of the DSI mux and
ARM GAS  C:\Users\SimonChen\AppData\Local\Temp\ccD98YNQ.s 			page 17


 703:Generated_Source\PSoC6\pdl\drivers/peripheral/sysclk/cy_sysclk.h ****     CY_SYSCLK_CLKPATH_IN_WCO    = 0x111U, /**< Select the WCO (17) as the output of the DSI mux and
 704:Generated_Source\PSoC6\pdl\drivers/peripheral/sysclk/cy_sysclk.h ****     CY_SYSCLK_CLKPATH_IN_ALTLF  = 0x112U, /**< Select the ALTLF (18) as the output of the DSI mux a
 705:Generated_Source\PSoC6\pdl\drivers/peripheral/sysclk/cy_sysclk.h ****                                            *   Make sure the ALTLF clock sources in available on us
 706:Generated_Source\PSoC6\pdl\drivers/peripheral/sysclk/cy_sysclk.h ****                                            */
 707:Generated_Source\PSoC6\pdl\drivers/peripheral/sysclk/cy_sysclk.h ****     CY_SYSCLK_CLKPATH_IN_PILO   = 0x113U  /**< Select the PILO (19) as the output of the DSI mux an
 708:Generated_Source\PSoC6\pdl\drivers/peripheral/sysclk/cy_sysclk.h ****                                            *   Make sure the PILO clock sources in available on use
 709:Generated_Source\PSoC6\pdl\drivers/peripheral/sysclk/cy_sysclk.h ****                                            */
 710:Generated_Source\PSoC6\pdl\drivers/peripheral/sysclk/cy_sysclk.h **** } cy_en_clkpath_in_sources_t;
 711:Generated_Source\PSoC6\pdl\drivers/peripheral/sysclk/cy_sysclk.h **** /** \} group_sysclk_path_src_enums */
 712:Generated_Source\PSoC6\pdl\drivers/peripheral/sysclk/cy_sysclk.h **** 
 713:Generated_Source\PSoC6\pdl\drivers/peripheral/sysclk/cy_sysclk.h **** /**
 714:Generated_Source\PSoC6\pdl\drivers/peripheral/sysclk/cy_sysclk.h **** * \addtogroup group_sysclk_path_src_funcs
 715:Generated_Source\PSoC6\pdl\drivers/peripheral/sysclk/cy_sysclk.h **** * \{
 716:Generated_Source\PSoC6\pdl\drivers/peripheral/sysclk/cy_sysclk.h **** */
 717:Generated_Source\PSoC6\pdl\drivers/peripheral/sysclk/cy_sysclk.h **** cy_en_sysclk_status_t Cy_SysClk_ClkPathSetSource(uint32_t clkPath, cy_en_clkpath_in_sources_t sourc
 718:Generated_Source\PSoC6\pdl\drivers/peripheral/sysclk/cy_sysclk.h **** cy_en_clkpath_in_sources_t Cy_SysClk_ClkPathGetSource(uint32_t clkPath);
 719:Generated_Source\PSoC6\pdl\drivers/peripheral/sysclk/cy_sysclk.h **** /** \} group_sysclk_path_src_funcs */
 720:Generated_Source\PSoC6\pdl\drivers/peripheral/sysclk/cy_sysclk.h **** 
 721:Generated_Source\PSoC6\pdl\drivers/peripheral/sysclk/cy_sysclk.h **** 
 722:Generated_Source\PSoC6\pdl\drivers/peripheral/sysclk/cy_sysclk.h **** /* ========================================================================== */
 723:Generated_Source\PSoC6\pdl\drivers/peripheral/sysclk/cy_sysclk.h **** /* ===========================    FLL SECTION    ============================ */
 724:Generated_Source\PSoC6\pdl\drivers/peripheral/sysclk/cy_sysclk.h **** /* ========================================================================== */
 725:Generated_Source\PSoC6\pdl\drivers/peripheral/sysclk/cy_sysclk.h **** /**
 726:Generated_Source\PSoC6\pdl\drivers/peripheral/sysclk/cy_sysclk.h **** * \addtogroup group_sysclk_fll_enums
 727:Generated_Source\PSoC6\pdl\drivers/peripheral/sysclk/cy_sysclk.h **** * \{
 728:Generated_Source\PSoC6\pdl\drivers/peripheral/sysclk/cy_sysclk.h **** */
 729:Generated_Source\PSoC6\pdl\drivers/peripheral/sysclk/cy_sysclk.h **** /** FLL and PLL output mode.
 730:Generated_Source\PSoC6\pdl\drivers/peripheral/sysclk/cy_sysclk.h **** * See registers CLK_FLL_CONFIG3 and CLK_PLL_CONFIG0, bits BYPASS_SEL.
 731:Generated_Source\PSoC6\pdl\drivers/peripheral/sysclk/cy_sysclk.h **** */
 732:Generated_Source\PSoC6\pdl\drivers/peripheral/sysclk/cy_sysclk.h **** typedef enum
 733:Generated_Source\PSoC6\pdl\drivers/peripheral/sysclk/cy_sysclk.h **** {
 734:Generated_Source\PSoC6\pdl\drivers/peripheral/sysclk/cy_sysclk.h ****     CY_SYSCLK_FLLPLL_OUTPUT_AUTO   = 0U, /**< Output FLL/PLL input source when not locked, and FLL/
 735:Generated_Source\PSoC6\pdl\drivers/peripheral/sysclk/cy_sysclk.h ****     CY_SYSCLK_FLLPLL_OUTPUT_AUTO1  = 1U, /**< Same as AUTO */
 736:Generated_Source\PSoC6\pdl\drivers/peripheral/sysclk/cy_sysclk.h ****     CY_SYSCLK_FLLPLL_OUTPUT_INPUT  = 2U, /**< Output FLL/PLL input source regardless of lock status
 737:Generated_Source\PSoC6\pdl\drivers/peripheral/sysclk/cy_sysclk.h ****     CY_SYSCLK_FLLPLL_OUTPUT_OUTPUT = 3U  /**< Output FLL/PLL output regardless of lock status. This
 738:Generated_Source\PSoC6\pdl\drivers/peripheral/sysclk/cy_sysclk.h **** } cy_en_fll_pll_output_mode_t;
 739:Generated_Source\PSoC6\pdl\drivers/peripheral/sysclk/cy_sysclk.h **** 
 740:Generated_Source\PSoC6\pdl\drivers/peripheral/sysclk/cy_sysclk.h **** /** FLL current-controlled oscillator (CCO) frequency ranges.
 741:Generated_Source\PSoC6\pdl\drivers/peripheral/sysclk/cy_sysclk.h **** * See register CLK_FLL_CONFIG4, bits CCO_RANGE.
 742:Generated_Source\PSoC6\pdl\drivers/peripheral/sysclk/cy_sysclk.h **** */
 743:Generated_Source\PSoC6\pdl\drivers/peripheral/sysclk/cy_sysclk.h **** typedef enum
 744:Generated_Source\PSoC6\pdl\drivers/peripheral/sysclk/cy_sysclk.h **** {
 745:Generated_Source\PSoC6\pdl\drivers/peripheral/sysclk/cy_sysclk.h ****     CY_SYSCLK_FLL_CCO_RANGE0, /**< Target frequency is in range  48 -  64 MHz. */
 746:Generated_Source\PSoC6\pdl\drivers/peripheral/sysclk/cy_sysclk.h ****     CY_SYSCLK_FLL_CCO_RANGE1, /**< Target frequency is in range  64 -  85 MHz. */
 747:Generated_Source\PSoC6\pdl\drivers/peripheral/sysclk/cy_sysclk.h ****     CY_SYSCLK_FLL_CCO_RANGE2, /**< Target frequency is in range  85 - 113 MHz. */
 748:Generated_Source\PSoC6\pdl\drivers/peripheral/sysclk/cy_sysclk.h ****     CY_SYSCLK_FLL_CCO_RANGE3, /**< Target frequency is in range 113 - 150 MHz. */
 749:Generated_Source\PSoC6\pdl\drivers/peripheral/sysclk/cy_sysclk.h ****     CY_SYSCLK_FLL_CCO_RANGE4  /**< Target frequency is in range 150 - 200 MHz. */
 750:Generated_Source\PSoC6\pdl\drivers/peripheral/sysclk/cy_sysclk.h **** } cy_en_fll_cco_ranges_t;
 751:Generated_Source\PSoC6\pdl\drivers/peripheral/sysclk/cy_sysclk.h **** /** \} group_sysclk_fll_enums */
 752:Generated_Source\PSoC6\pdl\drivers/peripheral/sysclk/cy_sysclk.h **** 
 753:Generated_Source\PSoC6\pdl\drivers/peripheral/sysclk/cy_sysclk.h **** /**
 754:Generated_Source\PSoC6\pdl\drivers/peripheral/sysclk/cy_sysclk.h **** * \addtogroup group_sysclk_fll_structs
 755:Generated_Source\PSoC6\pdl\drivers/peripheral/sysclk/cy_sysclk.h **** * \{
 756:Generated_Source\PSoC6\pdl\drivers/peripheral/sysclk/cy_sysclk.h **** */
 757:Generated_Source\PSoC6\pdl\drivers/peripheral/sysclk/cy_sysclk.h **** /** Structure containing information for manual configuration of FLL.
 758:Generated_Source\PSoC6\pdl\drivers/peripheral/sysclk/cy_sysclk.h **** */
 759:Generated_Source\PSoC6\pdl\drivers/peripheral/sysclk/cy_sysclk.h **** typedef struct
ARM GAS  C:\Users\SimonChen\AppData\Local\Temp\ccD98YNQ.s 			page 18


 760:Generated_Source\PSoC6\pdl\drivers/peripheral/sysclk/cy_sysclk.h **** {
 761:Generated_Source\PSoC6\pdl\drivers/peripheral/sysclk/cy_sysclk.h ****     uint32_t                    fllMult;         /**< CLK_FLL_CONFIG  register, FLL_MULT bits */
 762:Generated_Source\PSoC6\pdl\drivers/peripheral/sysclk/cy_sysclk.h ****     uint16_t                    refDiv;          /**< CLK_FLL_CONFIG2 register, FLL_REF_DIV bits */
 763:Generated_Source\PSoC6\pdl\drivers/peripheral/sysclk/cy_sysclk.h ****     cy_en_fll_cco_ranges_t      ccoRange;        /**< CLK_FLL_CONFIG4 register, CCO_RANGE bits */
 764:Generated_Source\PSoC6\pdl\drivers/peripheral/sysclk/cy_sysclk.h ****     bool                        enableOutputDiv; /**< CLK_FLL_CONFIG  register, FLL_OUTPUT_DIV bit 
 765:Generated_Source\PSoC6\pdl\drivers/peripheral/sysclk/cy_sysclk.h ****     uint16_t                    lockTolerance;   /**< CLK_FLL_CONFIG2 register, LOCK_TOL bits */
 766:Generated_Source\PSoC6\pdl\drivers/peripheral/sysclk/cy_sysclk.h ****     uint8_t                     igain;           /**< CLK_FLL_CONFIG3 register, FLL_LF_IGAIN bits *
 767:Generated_Source\PSoC6\pdl\drivers/peripheral/sysclk/cy_sysclk.h ****     uint8_t                     pgain;           /**< CLK_FLL_CONFIG3 register, FLL_LF_PGAIN bits *
 768:Generated_Source\PSoC6\pdl\drivers/peripheral/sysclk/cy_sysclk.h ****     uint16_t                    settlingCount;   /**< CLK_FLL_CONFIG3 register, SETTLING_COUNT bits
 769:Generated_Source\PSoC6\pdl\drivers/peripheral/sysclk/cy_sysclk.h ****     cy_en_fll_pll_output_mode_t outputMode;      /**< CLK_FLL_CONFIG3 register, BYPASS_SEL bits */
 770:Generated_Source\PSoC6\pdl\drivers/peripheral/sysclk/cy_sysclk.h ****     uint16_t                    cco_Freq;        /**< CLK_FLL_CONFIG4 register, CCO_FREQ bits */
 771:Generated_Source\PSoC6\pdl\drivers/peripheral/sysclk/cy_sysclk.h **** } cy_stc_fll_manual_config_t;
 772:Generated_Source\PSoC6\pdl\drivers/peripheral/sysclk/cy_sysclk.h **** /** \} group_sysclk_fll_structs */
 773:Generated_Source\PSoC6\pdl\drivers/peripheral/sysclk/cy_sysclk.h **** 
 774:Generated_Source\PSoC6\pdl\drivers/peripheral/sysclk/cy_sysclk.h **** /**
 775:Generated_Source\PSoC6\pdl\drivers/peripheral/sysclk/cy_sysclk.h **** * \addtogroup group_sysclk_fll_funcs
 776:Generated_Source\PSoC6\pdl\drivers/peripheral/sysclk/cy_sysclk.h **** * \{
 777:Generated_Source\PSoC6\pdl\drivers/peripheral/sysclk/cy_sysclk.h **** */
 778:Generated_Source\PSoC6\pdl\drivers/peripheral/sysclk/cy_sysclk.h **** cy_en_sysclk_status_t Cy_SysClk_FllConfigure(uint32_t inputFreq, uint32_t outputFreq, cy_en_fll_pll
 779:Generated_Source\PSoC6\pdl\drivers/peripheral/sysclk/cy_sysclk.h **** cy_en_sysclk_status_t Cy_SysClk_FllManualConfigure(const cy_stc_fll_manual_config_t *config);
 780:Generated_Source\PSoC6\pdl\drivers/peripheral/sysclk/cy_sysclk.h **** void Cy_SysClk_FllGetConfiguration(cy_stc_fll_manual_config_t *config);
 781:Generated_Source\PSoC6\pdl\drivers/peripheral/sysclk/cy_sysclk.h **** cy_en_sysclk_status_t Cy_SysClk_FllEnable(uint32_t timeoutus);
 782:Generated_Source\PSoC6\pdl\drivers/peripheral/sysclk/cy_sysclk.h **** __STATIC_INLINE bool Cy_SysClk_FllLocked(void);
 783:Generated_Source\PSoC6\pdl\drivers/peripheral/sysclk/cy_sysclk.h **** __STATIC_INLINE cy_en_sysclk_status_t Cy_SysClk_FllDisable(void);
 784:Generated_Source\PSoC6\pdl\drivers/peripheral/sysclk/cy_sysclk.h **** 
 785:Generated_Source\PSoC6\pdl\drivers/peripheral/sysclk/cy_sysclk.h **** /*******************************************************************************
 786:Generated_Source\PSoC6\pdl\drivers/peripheral/sysclk/cy_sysclk.h **** * Function Name: Cy_SysClk_FllLocked
 787:Generated_Source\PSoC6\pdl\drivers/peripheral/sysclk/cy_sysclk.h **** ****************************************************************************//**
 788:Generated_Source\PSoC6\pdl\drivers/peripheral/sysclk/cy_sysclk.h **** *
 789:Generated_Source\PSoC6\pdl\drivers/peripheral/sysclk/cy_sysclk.h **** * Reports whether the FLL is locked first time during FLL starting.
 790:Generated_Source\PSoC6\pdl\drivers/peripheral/sysclk/cy_sysclk.h **** * Intended to be used with \ref Cy_SysClk_FllEnable with zero timeout.
 791:Generated_Source\PSoC6\pdl\drivers/peripheral/sysclk/cy_sysclk.h **** *
 792:Generated_Source\PSoC6\pdl\drivers/peripheral/sysclk/cy_sysclk.h **** * \return 
 793:Generated_Source\PSoC6\pdl\drivers/peripheral/sysclk/cy_sysclk.h **** * false = not locked<br>
 794:Generated_Source\PSoC6\pdl\drivers/peripheral/sysclk/cy_sysclk.h **** * true = locked
 795:Generated_Source\PSoC6\pdl\drivers/peripheral/sysclk/cy_sysclk.h **** *
 796:Generated_Source\PSoC6\pdl\drivers/peripheral/sysclk/cy_sysclk.h **** * \note
 797:Generated_Source\PSoC6\pdl\drivers/peripheral/sysclk/cy_sysclk.h **** * The unlock occurrence may appear during FLL normal operation, so this function 
 798:Generated_Source\PSoC6\pdl\drivers/peripheral/sysclk/cy_sysclk.h **** * is not recommended to check the FLL normal operation stability.
 799:Generated_Source\PSoC6\pdl\drivers/peripheral/sysclk/cy_sysclk.h **** *
 800:Generated_Source\PSoC6\pdl\drivers/peripheral/sysclk/cy_sysclk.h **** * \funcusage
 801:Generated_Source\PSoC6\pdl\drivers/peripheral/sysclk/cy_sysclk.h **** * \snippet sysclk/1.20/snippet/main.c snippet_Cy_SysClk_FllLocked
 802:Generated_Source\PSoC6\pdl\drivers/peripheral/sysclk/cy_sysclk.h **** *
 803:Generated_Source\PSoC6\pdl\drivers/peripheral/sysclk/cy_sysclk.h **** *******************************************************************************/
 804:Generated_Source\PSoC6\pdl\drivers/peripheral/sysclk/cy_sysclk.h **** __STATIC_INLINE bool Cy_SysClk_FllLocked(void)
 805:Generated_Source\PSoC6\pdl\drivers/peripheral/sysclk/cy_sysclk.h **** {
 806:Generated_Source\PSoC6\pdl\drivers/peripheral/sysclk/cy_sysclk.h ****     return (_FLD2BOOL(SRSS_CLK_FLL_STATUS_LOCKED, SRSS_CLK_FLL_STATUS));
 807:Generated_Source\PSoC6\pdl\drivers/peripheral/sysclk/cy_sysclk.h **** }
 808:Generated_Source\PSoC6\pdl\drivers/peripheral/sysclk/cy_sysclk.h **** 
 809:Generated_Source\PSoC6\pdl\drivers/peripheral/sysclk/cy_sysclk.h **** 
 810:Generated_Source\PSoC6\pdl\drivers/peripheral/sysclk/cy_sysclk.h **** /*******************************************************************************
 811:Generated_Source\PSoC6\pdl\drivers/peripheral/sysclk/cy_sysclk.h **** * Function Name: Cy_SysClk_FllDisable
 812:Generated_Source\PSoC6\pdl\drivers/peripheral/sysclk/cy_sysclk.h **** ****************************************************************************//**
 813:Generated_Source\PSoC6\pdl\drivers/peripheral/sysclk/cy_sysclk.h **** *
 814:Generated_Source\PSoC6\pdl\drivers/peripheral/sysclk/cy_sysclk.h **** * Disables the FLL and the CCO.
 815:Generated_Source\PSoC6\pdl\drivers/peripheral/sysclk/cy_sysclk.h **** *
 816:Generated_Source\PSoC6\pdl\drivers/peripheral/sysclk/cy_sysclk.h **** * \return \ref cy_en_sysclk_status_t
ARM GAS  C:\Users\SimonChen\AppData\Local\Temp\ccD98YNQ.s 			page 19


 817:Generated_Source\PSoC6\pdl\drivers/peripheral/sysclk/cy_sysclk.h **** *
 818:Generated_Source\PSoC6\pdl\drivers/peripheral/sysclk/cy_sysclk.h **** * \note 
 819:Generated_Source\PSoC6\pdl\drivers/peripheral/sysclk/cy_sysclk.h **** * Call \ref SystemCoreClockUpdate after this function calling 
 820:Generated_Source\PSoC6\pdl\drivers/peripheral/sysclk/cy_sysclk.h **** * if it affects the CLK_HF0 frequency.
 821:Generated_Source\PSoC6\pdl\drivers/peripheral/sysclk/cy_sysclk.h **** *
 822:Generated_Source\PSoC6\pdl\drivers/peripheral/sysclk/cy_sysclk.h **** * \note
 823:Generated_Source\PSoC6\pdl\drivers/peripheral/sysclk/cy_sysclk.h **** * Call \ref Cy_SysLib_SetWaitStates after calling this function if
 824:Generated_Source\PSoC6\pdl\drivers/peripheral/sysclk/cy_sysclk.h **** * the FLL is the source of CLK_HF0 and the CLK_HF0 frequency is decreasing.
 825:Generated_Source\PSoC6\pdl\drivers/peripheral/sysclk/cy_sysclk.h **** *
 826:Generated_Source\PSoC6\pdl\drivers/peripheral/sysclk/cy_sysclk.h **** * \funcusage
 827:Generated_Source\PSoC6\pdl\drivers/peripheral/sysclk/cy_sysclk.h **** * \snippet sysclk/1.20/snippet/main.c snippet_Cy_SysClk_FllDisable
 828:Generated_Source\PSoC6\pdl\drivers/peripheral/sysclk/cy_sysclk.h **** *
 829:Generated_Source\PSoC6\pdl\drivers/peripheral/sysclk/cy_sysclk.h **** *******************************************************************************/
 830:Generated_Source\PSoC6\pdl\drivers/peripheral/sysclk/cy_sysclk.h **** __STATIC_INLINE cy_en_sysclk_status_t Cy_SysClk_FllDisable(void)
 831:Generated_Source\PSoC6\pdl\drivers/peripheral/sysclk/cy_sysclk.h **** {
 832:Generated_Source\PSoC6\pdl\drivers/peripheral/sysclk/cy_sysclk.h ****     CY_REG32_CLR_SET(SRSS_CLK_FLL_CONFIG3, SRSS_CLK_FLL_CONFIG3_BYPASS_SEL, CY_SYSCLK_FLLPLL_OUTPUT
 833:Generated_Source\PSoC6\pdl\drivers/peripheral/sysclk/cy_sysclk.h ****     SRSS_CLK_FLL_CONFIG  &= ~SRSS_CLK_FLL_CONFIG_FLL_ENABLE_Msk;
 834:Generated_Source\PSoC6\pdl\drivers/peripheral/sysclk/cy_sysclk.h ****     SRSS_CLK_FLL_CONFIG4 &= ~SRSS_CLK_FLL_CONFIG4_CCO_ENABLE_Msk;
 835:Generated_Source\PSoC6\pdl\drivers/peripheral/sysclk/cy_sysclk.h ****     return CY_SYSCLK_SUCCESS;
 836:Generated_Source\PSoC6\pdl\drivers/peripheral/sysclk/cy_sysclk.h **** }
 837:Generated_Source\PSoC6\pdl\drivers/peripheral/sysclk/cy_sysclk.h **** /** \} group_sysclk_fll_funcs */
 838:Generated_Source\PSoC6\pdl\drivers/peripheral/sysclk/cy_sysclk.h **** 
 839:Generated_Source\PSoC6\pdl\drivers/peripheral/sysclk/cy_sysclk.h **** 
 840:Generated_Source\PSoC6\pdl\drivers/peripheral/sysclk/cy_sysclk.h **** /* ========================================================================== */
 841:Generated_Source\PSoC6\pdl\drivers/peripheral/sysclk/cy_sysclk.h **** /* ===========================    PLL SECTION    ============================ */
 842:Generated_Source\PSoC6\pdl\drivers/peripheral/sysclk/cy_sysclk.h **** /* ========================================================================== */
 843:Generated_Source\PSoC6\pdl\drivers/peripheral/sysclk/cy_sysclk.h **** /**
 844:Generated_Source\PSoC6\pdl\drivers/peripheral/sysclk/cy_sysclk.h **** * \addtogroup group_sysclk_pll_structs
 845:Generated_Source\PSoC6\pdl\drivers/peripheral/sysclk/cy_sysclk.h **** * \{
 846:Generated_Source\PSoC6\pdl\drivers/peripheral/sysclk/cy_sysclk.h **** */
 847:Generated_Source\PSoC6\pdl\drivers/peripheral/sysclk/cy_sysclk.h **** /** Structure containing information for configuration of a PLL.
 848:Generated_Source\PSoC6\pdl\drivers/peripheral/sysclk/cy_sysclk.h **** */
 849:Generated_Source\PSoC6\pdl\drivers/peripheral/sysclk/cy_sysclk.h **** typedef struct
 850:Generated_Source\PSoC6\pdl\drivers/peripheral/sysclk/cy_sysclk.h **** {
 851:Generated_Source\PSoC6\pdl\drivers/peripheral/sysclk/cy_sysclk.h ****     uint32_t                    inputFreq;  /**< frequency of PLL source, in Hz */
 852:Generated_Source\PSoC6\pdl\drivers/peripheral/sysclk/cy_sysclk.h ****     uint32_t                    outputFreq; /**< frequency of PLL output, in Hz */
 853:Generated_Source\PSoC6\pdl\drivers/peripheral/sysclk/cy_sysclk.h ****     bool                        lfMode;     /**< CLK_PLL_CONFIG register, PLL_LF_MODE bit */
 854:Generated_Source\PSoC6\pdl\drivers/peripheral/sysclk/cy_sysclk.h ****     cy_en_fll_pll_output_mode_t outputMode; /**< CLK_PLL_CONFIG register, BYPASS_SEL bits */
 855:Generated_Source\PSoC6\pdl\drivers/peripheral/sysclk/cy_sysclk.h **** } cy_stc_pll_config_t;
 856:Generated_Source\PSoC6\pdl\drivers/peripheral/sysclk/cy_sysclk.h **** 
 857:Generated_Source\PSoC6\pdl\drivers/peripheral/sysclk/cy_sysclk.h **** /** Structure containing information for manual configuration of a PLL.
 858:Generated_Source\PSoC6\pdl\drivers/peripheral/sysclk/cy_sysclk.h **** */
 859:Generated_Source\PSoC6\pdl\drivers/peripheral/sysclk/cy_sysclk.h **** typedef struct
 860:Generated_Source\PSoC6\pdl\drivers/peripheral/sysclk/cy_sysclk.h **** {
 861:Generated_Source\PSoC6\pdl\drivers/peripheral/sysclk/cy_sysclk.h ****     uint8_t                     feedbackDiv;  /**< CLK_PLL_CONFIG register, FEEDBACK_DIV (P) bits *
 862:Generated_Source\PSoC6\pdl\drivers/peripheral/sysclk/cy_sysclk.h ****     uint8_t                     referenceDiv; /**< CLK_PLL_CONFIG register, REFERENCE_DIV (Q) bits 
 863:Generated_Source\PSoC6\pdl\drivers/peripheral/sysclk/cy_sysclk.h ****     uint8_t                     outputDiv;    /**< CLK_PLL_CONFIG register, OUTPUT_DIV bits */
 864:Generated_Source\PSoC6\pdl\drivers/peripheral/sysclk/cy_sysclk.h ****     bool                        lfMode;       /**< CLK_PLL_CONFIG register, PLL_LF_MODE bit */
 865:Generated_Source\PSoC6\pdl\drivers/peripheral/sysclk/cy_sysclk.h ****     cy_en_fll_pll_output_mode_t outputMode;   /**< CLK_PLL_CONFIG register, BYPASS_SEL bits */
 866:Generated_Source\PSoC6\pdl\drivers/peripheral/sysclk/cy_sysclk.h **** } cy_stc_pll_manual_config_t;
 867:Generated_Source\PSoC6\pdl\drivers/peripheral/sysclk/cy_sysclk.h **** /** \} group_sysclk_pll_structs */
 868:Generated_Source\PSoC6\pdl\drivers/peripheral/sysclk/cy_sysclk.h **** 
 869:Generated_Source\PSoC6\pdl\drivers/peripheral/sysclk/cy_sysclk.h **** /**
 870:Generated_Source\PSoC6\pdl\drivers/peripheral/sysclk/cy_sysclk.h **** * \addtogroup group_sysclk_pll_funcs
 871:Generated_Source\PSoC6\pdl\drivers/peripheral/sysclk/cy_sysclk.h **** * \{
 872:Generated_Source\PSoC6\pdl\drivers/peripheral/sysclk/cy_sysclk.h **** */
 873:Generated_Source\PSoC6\pdl\drivers/peripheral/sysclk/cy_sysclk.h **** cy_en_sysclk_status_t Cy_SysClk_PllConfigure(uint32_t clkPath, const cy_stc_pll_config_t *config);
ARM GAS  C:\Users\SimonChen\AppData\Local\Temp\ccD98YNQ.s 			page 20


 874:Generated_Source\PSoC6\pdl\drivers/peripheral/sysclk/cy_sysclk.h **** cy_en_sysclk_status_t Cy_SysClk_PllManualConfigure(uint32_t clkPath, const cy_stc_pll_manual_config
 875:Generated_Source\PSoC6\pdl\drivers/peripheral/sysclk/cy_sysclk.h **** cy_en_sysclk_status_t Cy_SysClk_PllGetConfiguration(uint32_t clkPath, cy_stc_pll_manual_config_t *c
 876:Generated_Source\PSoC6\pdl\drivers/peripheral/sysclk/cy_sysclk.h **** cy_en_sysclk_status_t Cy_SysClk_PllEnable(uint32_t clkPath, uint32_t timeoutus);
 877:Generated_Source\PSoC6\pdl\drivers/peripheral/sysclk/cy_sysclk.h **** __STATIC_INLINE bool Cy_SysClk_PllLocked(uint32_t clkPath);
 878:Generated_Source\PSoC6\pdl\drivers/peripheral/sysclk/cy_sysclk.h **** __STATIC_INLINE bool Cy_SysClk_PllLostLock(uint32_t clkPath);
 879:Generated_Source\PSoC6\pdl\drivers/peripheral/sysclk/cy_sysclk.h **** __STATIC_INLINE cy_en_sysclk_status_t Cy_SysClk_PllDisable(uint32_t clkPath);
 880:Generated_Source\PSoC6\pdl\drivers/peripheral/sysclk/cy_sysclk.h **** 
 881:Generated_Source\PSoC6\pdl\drivers/peripheral/sysclk/cy_sysclk.h **** /*******************************************************************************
 882:Generated_Source\PSoC6\pdl\drivers/peripheral/sysclk/cy_sysclk.h **** * Function Name: Cy_SysClk_PllLocked
 883:Generated_Source\PSoC6\pdl\drivers/peripheral/sysclk/cy_sysclk.h **** ****************************************************************************//**
 884:Generated_Source\PSoC6\pdl\drivers/peripheral/sysclk/cy_sysclk.h **** *
 885:Generated_Source\PSoC6\pdl\drivers/peripheral/sysclk/cy_sysclk.h **** * Reports whether or not the selected PLL is locked.
 886:Generated_Source\PSoC6\pdl\drivers/peripheral/sysclk/cy_sysclk.h **** *
 887:Generated_Source\PSoC6\pdl\drivers/peripheral/sysclk/cy_sysclk.h **** * \param clkPath Selects which PLL to check. 1 is the first PLL; 0 is invalid.
 888:Generated_Source\PSoC6\pdl\drivers/peripheral/sysclk/cy_sysclk.h **** *
 889:Generated_Source\PSoC6\pdl\drivers/peripheral/sysclk/cy_sysclk.h **** * \return 
 890:Generated_Source\PSoC6\pdl\drivers/peripheral/sysclk/cy_sysclk.h **** * false = not locked<br>
 891:Generated_Source\PSoC6\pdl\drivers/peripheral/sysclk/cy_sysclk.h **** * true = locked
 892:Generated_Source\PSoC6\pdl\drivers/peripheral/sysclk/cy_sysclk.h **** *
 893:Generated_Source\PSoC6\pdl\drivers/peripheral/sysclk/cy_sysclk.h **** * \funcusage
 894:Generated_Source\PSoC6\pdl\drivers/peripheral/sysclk/cy_sysclk.h **** * \snippet sysclk/1.20/snippet/main.c snippet_Cy_SysClk_PllLocked
 895:Generated_Source\PSoC6\pdl\drivers/peripheral/sysclk/cy_sysclk.h **** *
 896:Generated_Source\PSoC6\pdl\drivers/peripheral/sysclk/cy_sysclk.h **** *******************************************************************************/
 897:Generated_Source\PSoC6\pdl\drivers/peripheral/sysclk/cy_sysclk.h **** __STATIC_INLINE bool Cy_SysClk_PllLocked(uint32_t clkPath)
 898:Generated_Source\PSoC6\pdl\drivers/peripheral/sysclk/cy_sysclk.h **** {
 899:Generated_Source\PSoC6\pdl\drivers/peripheral/sysclk/cy_sysclk.h ****     clkPath--; /* to correctly access PLL config and status registers structures */
 900:Generated_Source\PSoC6\pdl\drivers/peripheral/sysclk/cy_sysclk.h ****     CY_ASSERT_L1(clkPath < CY_SRSS_NUM_PLL);
 901:Generated_Source\PSoC6\pdl\drivers/peripheral/sysclk/cy_sysclk.h ****     return (_FLD2BOOL(SRSS_CLK_PLL_STATUS_LOCKED, SRSS_CLK_PLL_STATUS[clkPath]));
 902:Generated_Source\PSoC6\pdl\drivers/peripheral/sysclk/cy_sysclk.h **** }
 903:Generated_Source\PSoC6\pdl\drivers/peripheral/sysclk/cy_sysclk.h **** 
 904:Generated_Source\PSoC6\pdl\drivers/peripheral/sysclk/cy_sysclk.h **** /*******************************************************************************
 905:Generated_Source\PSoC6\pdl\drivers/peripheral/sysclk/cy_sysclk.h **** * Function Name: Cy_SysClk_PllLostLock
 906:Generated_Source\PSoC6\pdl\drivers/peripheral/sysclk/cy_sysclk.h **** ****************************************************************************//**
 907:Generated_Source\PSoC6\pdl\drivers/peripheral/sysclk/cy_sysclk.h **** *
 908:Generated_Source\PSoC6\pdl\drivers/peripheral/sysclk/cy_sysclk.h **** * Reports whether or not the selected PLL lost its lock since the last time this
 909:Generated_Source\PSoC6\pdl\drivers/peripheral/sysclk/cy_sysclk.h **** * function was called. Clears the lost lock indicator.
 910:Generated_Source\PSoC6\pdl\drivers/peripheral/sysclk/cy_sysclk.h **** *
 911:Generated_Source\PSoC6\pdl\drivers/peripheral/sysclk/cy_sysclk.h **** * \param clkPath Selects which PLL to check. 1 is the first PLL; 0 is invalid.
 912:Generated_Source\PSoC6\pdl\drivers/peripheral/sysclk/cy_sysclk.h **** *
 913:Generated_Source\PSoC6\pdl\drivers/peripheral/sysclk/cy_sysclk.h **** * \return 
 914:Generated_Source\PSoC6\pdl\drivers/peripheral/sysclk/cy_sysclk.h **** * false = did not lose lock<br>
 915:Generated_Source\PSoC6\pdl\drivers/peripheral/sysclk/cy_sysclk.h **** * true = lost lock
 916:Generated_Source\PSoC6\pdl\drivers/peripheral/sysclk/cy_sysclk.h **** *
 917:Generated_Source\PSoC6\pdl\drivers/peripheral/sysclk/cy_sysclk.h **** * \funcusage
 918:Generated_Source\PSoC6\pdl\drivers/peripheral/sysclk/cy_sysclk.h **** * \snippet sysclk/1.20/snippet/main.c snippet_Cy_SysClk_PllLostLock
 919:Generated_Source\PSoC6\pdl\drivers/peripheral/sysclk/cy_sysclk.h **** *
 920:Generated_Source\PSoC6\pdl\drivers/peripheral/sysclk/cy_sysclk.h **** *******************************************************************************/
 921:Generated_Source\PSoC6\pdl\drivers/peripheral/sysclk/cy_sysclk.h **** __STATIC_INLINE bool Cy_SysClk_PllLostLock(uint32_t clkPath)
 922:Generated_Source\PSoC6\pdl\drivers/peripheral/sysclk/cy_sysclk.h **** {
 923:Generated_Source\PSoC6\pdl\drivers/peripheral/sysclk/cy_sysclk.h ****     clkPath--; /* to correctly access PLL config and status registers structures */
 924:Generated_Source\PSoC6\pdl\drivers/peripheral/sysclk/cy_sysclk.h ****     CY_ASSERT_L1(clkPath < CY_SRSS_NUM_PLL);
 925:Generated_Source\PSoC6\pdl\drivers/peripheral/sysclk/cy_sysclk.h ****     bool retVal = _FLD2BOOL(SRSS_CLK_PLL_STATUS_UNLOCK_OCCURRED, SRSS_CLK_PLL_STATUS[clkPath]);
 926:Generated_Source\PSoC6\pdl\drivers/peripheral/sysclk/cy_sysclk.h ****     /* write a 1 to clear the unlock occurred bit */
 927:Generated_Source\PSoC6\pdl\drivers/peripheral/sysclk/cy_sysclk.h ****     SRSS_CLK_PLL_STATUS[clkPath] = SRSS_CLK_PLL_STATUS_UNLOCK_OCCURRED_Msk;
 928:Generated_Source\PSoC6\pdl\drivers/peripheral/sysclk/cy_sysclk.h ****     return (retVal);
 929:Generated_Source\PSoC6\pdl\drivers/peripheral/sysclk/cy_sysclk.h **** }
 930:Generated_Source\PSoC6\pdl\drivers/peripheral/sysclk/cy_sysclk.h **** 
ARM GAS  C:\Users\SimonChen\AppData\Local\Temp\ccD98YNQ.s 			page 21


 931:Generated_Source\PSoC6\pdl\drivers/peripheral/sysclk/cy_sysclk.h **** /*******************************************************************************
 932:Generated_Source\PSoC6\pdl\drivers/peripheral/sysclk/cy_sysclk.h **** * Function Name: Cy_SysClk_PllDisable
 933:Generated_Source\PSoC6\pdl\drivers/peripheral/sysclk/cy_sysclk.h **** ****************************************************************************//**
 934:Generated_Source\PSoC6\pdl\drivers/peripheral/sysclk/cy_sysclk.h **** *
 935:Generated_Source\PSoC6\pdl\drivers/peripheral/sysclk/cy_sysclk.h **** * Disables the selected PLL.
 936:Generated_Source\PSoC6\pdl\drivers/peripheral/sysclk/cy_sysclk.h **** *
 937:Generated_Source\PSoC6\pdl\drivers/peripheral/sysclk/cy_sysclk.h **** * \param clkPath Selects which PLL to disable. 1 is the first PLL; 0 is invalid.
 938:Generated_Source\PSoC6\pdl\drivers/peripheral/sysclk/cy_sysclk.h **** *
 939:Generated_Source\PSoC6\pdl\drivers/peripheral/sysclk/cy_sysclk.h **** * \return Error / status code:<br>
 940:Generated_Source\PSoC6\pdl\drivers/peripheral/sysclk/cy_sysclk.h **** * CY_SYSCLK_SUCCESS - PLL successfully disabled<br>
 941:Generated_Source\PSoC6\pdl\drivers/peripheral/sysclk/cy_sysclk.h **** * CY_SYSCLK_BAD_PARAM - invalid clock path number
 942:Generated_Source\PSoC6\pdl\drivers/peripheral/sysclk/cy_sysclk.h **** *
 943:Generated_Source\PSoC6\pdl\drivers/peripheral/sysclk/cy_sysclk.h **** * \note 
 944:Generated_Source\PSoC6\pdl\drivers/peripheral/sysclk/cy_sysclk.h **** * Call \ref SystemCoreClockUpdate after this function calling 
 945:Generated_Source\PSoC6\pdl\drivers/peripheral/sysclk/cy_sysclk.h **** * if it affects the CLK_HF0 frequency.
 946:Generated_Source\PSoC6\pdl\drivers/peripheral/sysclk/cy_sysclk.h **** *
 947:Generated_Source\PSoC6\pdl\drivers/peripheral/sysclk/cy_sysclk.h **** * \note
 948:Generated_Source\PSoC6\pdl\drivers/peripheral/sysclk/cy_sysclk.h **** * Call \ref Cy_SysLib_SetWaitStates before calling this function if
 949:Generated_Source\PSoC6\pdl\drivers/peripheral/sysclk/cy_sysclk.h **** * the PLL is the source of CLK_HF0 and the CLK_HF0 frequency is increasing.
 950:Generated_Source\PSoC6\pdl\drivers/peripheral/sysclk/cy_sysclk.h **** *
 951:Generated_Source\PSoC6\pdl\drivers/peripheral/sysclk/cy_sysclk.h **** * \note
 952:Generated_Source\PSoC6\pdl\drivers/peripheral/sysclk/cy_sysclk.h **** * Call \ref Cy_SysLib_SetWaitStates after calling this function if
 953:Generated_Source\PSoC6\pdl\drivers/peripheral/sysclk/cy_sysclk.h **** * the PLL is the source of CLK_HF0 and the CLK_HF0 frequency is decreasing.
 954:Generated_Source\PSoC6\pdl\drivers/peripheral/sysclk/cy_sysclk.h **** *
 955:Generated_Source\PSoC6\pdl\drivers/peripheral/sysclk/cy_sysclk.h **** * \funcusage
 956:Generated_Source\PSoC6\pdl\drivers/peripheral/sysclk/cy_sysclk.h **** * \snippet sysclk/1.20/snippet/main.c snippet_Cy_SysClk_PllDisable
 957:Generated_Source\PSoC6\pdl\drivers/peripheral/sysclk/cy_sysclk.h **** *
 958:Generated_Source\PSoC6\pdl\drivers/peripheral/sysclk/cy_sysclk.h **** *******************************************************************************/
 959:Generated_Source\PSoC6\pdl\drivers/peripheral/sysclk/cy_sysclk.h **** __STATIC_INLINE cy_en_sysclk_status_t Cy_SysClk_PllDisable(uint32_t clkPath)
 960:Generated_Source\PSoC6\pdl\drivers/peripheral/sysclk/cy_sysclk.h **** {
 961:Generated_Source\PSoC6\pdl\drivers/peripheral/sysclk/cy_sysclk.h ****     cy_en_sysclk_status_t retVal = CY_SYSCLK_BAD_PARAM;
 962:Generated_Source\PSoC6\pdl\drivers/peripheral/sysclk/cy_sysclk.h ****     clkPath--; /* to correctly access PLL config and status registers structures */
 963:Generated_Source\PSoC6\pdl\drivers/peripheral/sysclk/cy_sysclk.h ****     if (clkPath < CY_SRSS_NUM_PLL)
 964:Generated_Source\PSoC6\pdl\drivers/peripheral/sysclk/cy_sysclk.h ****     {
 965:Generated_Source\PSoC6\pdl\drivers/peripheral/sysclk/cy_sysclk.h ****         /* First bypass PLL */
 966:Generated_Source\PSoC6\pdl\drivers/peripheral/sysclk/cy_sysclk.h ****         CY_REG32_CLR_SET(SRSS_CLK_PLL_CONFIG[clkPath], SRSS_CLK_PLL_CONFIG_BYPASS_SEL, CY_SYSCLK_FL
 967:Generated_Source\PSoC6\pdl\drivers/peripheral/sysclk/cy_sysclk.h ****         /* Wait at least 6 PLL clock cycles */
 968:Generated_Source\PSoC6\pdl\drivers/peripheral/sysclk/cy_sysclk.h ****         Cy_SysLib_DelayUs(1U);
 969:Generated_Source\PSoC6\pdl\drivers/peripheral/sysclk/cy_sysclk.h ****         /* And now disable the PLL itself */
 970:Generated_Source\PSoC6\pdl\drivers/peripheral/sysclk/cy_sysclk.h ****         SRSS_CLK_PLL_CONFIG[clkPath] &= ~SRSS_CLK_PLL_CONFIG_ENABLE_Msk;
 971:Generated_Source\PSoC6\pdl\drivers/peripheral/sysclk/cy_sysclk.h ****         retVal = CY_SYSCLK_SUCCESS;
 972:Generated_Source\PSoC6\pdl\drivers/peripheral/sysclk/cy_sysclk.h ****     }
 973:Generated_Source\PSoC6\pdl\drivers/peripheral/sysclk/cy_sysclk.h ****     return (retVal);
 974:Generated_Source\PSoC6\pdl\drivers/peripheral/sysclk/cy_sysclk.h **** }
 975:Generated_Source\PSoC6\pdl\drivers/peripheral/sysclk/cy_sysclk.h **** /** \} group_sysclk_pll_funcs */
 976:Generated_Source\PSoC6\pdl\drivers/peripheral/sysclk/cy_sysclk.h **** 
 977:Generated_Source\PSoC6\pdl\drivers/peripheral/sysclk/cy_sysclk.h **** 
 978:Generated_Source\PSoC6\pdl\drivers/peripheral/sysclk/cy_sysclk.h **** /* ========================================================================== */
 979:Generated_Source\PSoC6\pdl\drivers/peripheral/sysclk/cy_sysclk.h **** /* ===========================    ILO SECTION    ============================ */
 980:Generated_Source\PSoC6\pdl\drivers/peripheral/sysclk/cy_sysclk.h **** /* ========================================================================== */
 981:Generated_Source\PSoC6\pdl\drivers/peripheral/sysclk/cy_sysclk.h **** /**
 982:Generated_Source\PSoC6\pdl\drivers/peripheral/sysclk/cy_sysclk.h **** * \addtogroup group_sysclk_ilo_funcs
 983:Generated_Source\PSoC6\pdl\drivers/peripheral/sysclk/cy_sysclk.h **** * \{
 984:Generated_Source\PSoC6\pdl\drivers/peripheral/sysclk/cy_sysclk.h **** */
 985:Generated_Source\PSoC6\pdl\drivers/peripheral/sysclk/cy_sysclk.h **** __STATIC_INLINE void Cy_SysClk_IloEnable(void);
 986:Generated_Source\PSoC6\pdl\drivers/peripheral/sysclk/cy_sysclk.h **** __STATIC_INLINE cy_en_sysclk_status_t Cy_SysClk_IloDisable(void);
 987:Generated_Source\PSoC6\pdl\drivers/peripheral/sysclk/cy_sysclk.h **** __STATIC_INLINE void Cy_SysClk_IloHibernateOn(bool on);
ARM GAS  C:\Users\SimonChen\AppData\Local\Temp\ccD98YNQ.s 			page 22


 988:Generated_Source\PSoC6\pdl\drivers/peripheral/sysclk/cy_sysclk.h **** 
 989:Generated_Source\PSoC6\pdl\drivers/peripheral/sysclk/cy_sysclk.h **** /*******************************************************************************
 990:Generated_Source\PSoC6\pdl\drivers/peripheral/sysclk/cy_sysclk.h **** * Function Name: Cy_SysClk_IloEnable
 991:Generated_Source\PSoC6\pdl\drivers/peripheral/sysclk/cy_sysclk.h **** ****************************************************************************//**
 992:Generated_Source\PSoC6\pdl\drivers/peripheral/sysclk/cy_sysclk.h **** *
 993:Generated_Source\PSoC6\pdl\drivers/peripheral/sysclk/cy_sysclk.h **** * Enables the ILO.
 994:Generated_Source\PSoC6\pdl\drivers/peripheral/sysclk/cy_sysclk.h **** *
 995:Generated_Source\PSoC6\pdl\drivers/peripheral/sysclk/cy_sysclk.h **** * \note The watchdog timer (WDT) must be unlocked before calling this function.
 996:Generated_Source\PSoC6\pdl\drivers/peripheral/sysclk/cy_sysclk.h **** *
 997:Generated_Source\PSoC6\pdl\drivers/peripheral/sysclk/cy_sysclk.h **** * \funcusage
 998:Generated_Source\PSoC6\pdl\drivers/peripheral/sysclk/cy_sysclk.h **** * \snippet sysclk/1.20/snippet/main.c snippet_Cy_SysClk_IloEnable
 999:Generated_Source\PSoC6\pdl\drivers/peripheral/sysclk/cy_sysclk.h **** *
1000:Generated_Source\PSoC6\pdl\drivers/peripheral/sysclk/cy_sysclk.h **** *******************************************************************************/
1001:Generated_Source\PSoC6\pdl\drivers/peripheral/sysclk/cy_sysclk.h **** __STATIC_INLINE void Cy_SysClk_IloEnable(void)
1002:Generated_Source\PSoC6\pdl\drivers/peripheral/sysclk/cy_sysclk.h **** {
1003:Generated_Source\PSoC6\pdl\drivers/peripheral/sysclk/cy_sysclk.h ****     SRSS_CLK_ILO_CONFIG |= SRSS_CLK_ILO_CONFIG_ENABLE_Msk;
1004:Generated_Source\PSoC6\pdl\drivers/peripheral/sysclk/cy_sysclk.h **** }
1005:Generated_Source\PSoC6\pdl\drivers/peripheral/sysclk/cy_sysclk.h **** 
1006:Generated_Source\PSoC6\pdl\drivers/peripheral/sysclk/cy_sysclk.h **** /*******************************************************************************
1007:Generated_Source\PSoC6\pdl\drivers/peripheral/sysclk/cy_sysclk.h **** * Function Name: Cy_SysClk_IloDisable
1008:Generated_Source\PSoC6\pdl\drivers/peripheral/sysclk/cy_sysclk.h **** ****************************************************************************//**
1009:Generated_Source\PSoC6\pdl\drivers/peripheral/sysclk/cy_sysclk.h **** *
1010:Generated_Source\PSoC6\pdl\drivers/peripheral/sysclk/cy_sysclk.h **** * Disables the ILO. ILO can't be disabled if WDT is enabled.
1011:Generated_Source\PSoC6\pdl\drivers/peripheral/sysclk/cy_sysclk.h **** *
1012:Generated_Source\PSoC6\pdl\drivers/peripheral/sysclk/cy_sysclk.h **** * \return Error / status code:<br>
1013:Generated_Source\PSoC6\pdl\drivers/peripheral/sysclk/cy_sysclk.h **** * CY_SYSCLK_SUCCESS - ILO successfully disabled<br>
1014:Generated_Source\PSoC6\pdl\drivers/peripheral/sysclk/cy_sysclk.h **** * CY_SYSCLK_INVALID_STATE - Cannot disable the ILO if the WDT is enabled.
1015:Generated_Source\PSoC6\pdl\drivers/peripheral/sysclk/cy_sysclk.h **** *
1016:Generated_Source\PSoC6\pdl\drivers/peripheral/sysclk/cy_sysclk.h **** * \note The watchdog timer (WDT) must be unlocked before calling this function.
1017:Generated_Source\PSoC6\pdl\drivers/peripheral/sysclk/cy_sysclk.h **** * Do not call this function if the WDT is enabled, because the WDT is clocked by
1018:Generated_Source\PSoC6\pdl\drivers/peripheral/sysclk/cy_sysclk.h **** * the ILO.
1019:Generated_Source\PSoC6\pdl\drivers/peripheral/sysclk/cy_sysclk.h **** *
1020:Generated_Source\PSoC6\pdl\drivers/peripheral/sysclk/cy_sysclk.h **** * \funcusage
1021:Generated_Source\PSoC6\pdl\drivers/peripheral/sysclk/cy_sysclk.h **** * \snippet sysclk/1.20/snippet/main.c snippet_Cy_SysClk_IloDisable
1022:Generated_Source\PSoC6\pdl\drivers/peripheral/sysclk/cy_sysclk.h **** *
1023:Generated_Source\PSoC6\pdl\drivers/peripheral/sysclk/cy_sysclk.h **** *******************************************************************************/
1024:Generated_Source\PSoC6\pdl\drivers/peripheral/sysclk/cy_sysclk.h **** __STATIC_INLINE cy_en_sysclk_status_t Cy_SysClk_IloDisable(void)
1025:Generated_Source\PSoC6\pdl\drivers/peripheral/sysclk/cy_sysclk.h **** {
1026:Generated_Source\PSoC6\pdl\drivers/peripheral/sysclk/cy_sysclk.h ****     cy_en_sysclk_status_t retVal = CY_SYSCLK_INVALID_STATE;
1027:Generated_Source\PSoC6\pdl\drivers/peripheral/sysclk/cy_sysclk.h ****     if (!_FLD2BOOL(SRSS_WDT_CTL_WDT_EN, SRSS_WDT_CTL)) /* if disabled */
1028:Generated_Source\PSoC6\pdl\drivers/peripheral/sysclk/cy_sysclk.h ****     {
1029:Generated_Source\PSoC6\pdl\drivers/peripheral/sysclk/cy_sysclk.h ****         SRSS_CLK_ILO_CONFIG &= ~SRSS_CLK_ILO_CONFIG_ENABLE_Msk;
1030:Generated_Source\PSoC6\pdl\drivers/peripheral/sysclk/cy_sysclk.h ****         retVal = CY_SYSCLK_SUCCESS;
1031:Generated_Source\PSoC6\pdl\drivers/peripheral/sysclk/cy_sysclk.h ****     }
1032:Generated_Source\PSoC6\pdl\drivers/peripheral/sysclk/cy_sysclk.h ****     return retVal;
1033:Generated_Source\PSoC6\pdl\drivers/peripheral/sysclk/cy_sysclk.h **** }
1034:Generated_Source\PSoC6\pdl\drivers/peripheral/sysclk/cy_sysclk.h **** 
1035:Generated_Source\PSoC6\pdl\drivers/peripheral/sysclk/cy_sysclk.h **** /*******************************************************************************
1036:Generated_Source\PSoC6\pdl\drivers/peripheral/sysclk/cy_sysclk.h **** * Function Name: Cy_SysClk_IloHibernateOn
1037:Generated_Source\PSoC6\pdl\drivers/peripheral/sysclk/cy_sysclk.h **** ****************************************************************************//**
1038:Generated_Source\PSoC6\pdl\drivers/peripheral/sysclk/cy_sysclk.h **** *
1039:Generated_Source\PSoC6\pdl\drivers/peripheral/sysclk/cy_sysclk.h **** * Controls whether the ILO stays on during a hibernate, or through an XRES or
1040:Generated_Source\PSoC6\pdl\drivers/peripheral/sysclk/cy_sysclk.h **** * brown-out detect (BOD) event.
1041:Generated_Source\PSoC6\pdl\drivers/peripheral/sysclk/cy_sysclk.h **** *
1042:Generated_Source\PSoC6\pdl\drivers/peripheral/sysclk/cy_sysclk.h **** * \param on
1043:Generated_Source\PSoC6\pdl\drivers/peripheral/sysclk/cy_sysclk.h **** * true = ILO stays on during hibernate or across XRES/BOD.<br> 
1044:Generated_Source\PSoC6\pdl\drivers/peripheral/sysclk/cy_sysclk.h **** * false = ILO turns off for hibernate or XRES/BOD.
ARM GAS  C:\Users\SimonChen\AppData\Local\Temp\ccD98YNQ.s 			page 23


1045:Generated_Source\PSoC6\pdl\drivers/peripheral/sysclk/cy_sysclk.h **** *
1046:Generated_Source\PSoC6\pdl\drivers/peripheral/sysclk/cy_sysclk.h **** * \note Writes to the register/bit are ignored if the watchdog (WDT) is locked.
1047:Generated_Source\PSoC6\pdl\drivers/peripheral/sysclk/cy_sysclk.h **** *
1048:Generated_Source\PSoC6\pdl\drivers/peripheral/sysclk/cy_sysclk.h **** * \funcusage
1049:Generated_Source\PSoC6\pdl\drivers/peripheral/sysclk/cy_sysclk.h **** * \snippet sysclk/1.20/snippet/main.c snippet_Cy_SysClk_IloHibernateOn
1050:Generated_Source\PSoC6\pdl\drivers/peripheral/sysclk/cy_sysclk.h **** *
1051:Generated_Source\PSoC6\pdl\drivers/peripheral/sysclk/cy_sysclk.h **** *******************************************************************************/
1052:Generated_Source\PSoC6\pdl\drivers/peripheral/sysclk/cy_sysclk.h **** __STATIC_INLINE void Cy_SysClk_IloHibernateOn(bool on)
1053:Generated_Source\PSoC6\pdl\drivers/peripheral/sysclk/cy_sysclk.h **** {
1054:Generated_Source\PSoC6\pdl\drivers/peripheral/sysclk/cy_sysclk.h ****     CY_REG32_CLR_SET(SRSS_CLK_ILO_CONFIG, SRSS_CLK_ILO_CONFIG_ILO_BACKUP, (uint32_t)on);
1055:Generated_Source\PSoC6\pdl\drivers/peripheral/sysclk/cy_sysclk.h **** }
1056:Generated_Source\PSoC6\pdl\drivers/peripheral/sysclk/cy_sysclk.h **** /** \} group_sysclk_ilo_funcs */
1057:Generated_Source\PSoC6\pdl\drivers/peripheral/sysclk/cy_sysclk.h **** 
1058:Generated_Source\PSoC6\pdl\drivers/peripheral/sysclk/cy_sysclk.h **** 
1059:Generated_Source\PSoC6\pdl\drivers/peripheral/sysclk/cy_sysclk.h **** /* ========================================================================== */
1060:Generated_Source\PSoC6\pdl\drivers/peripheral/sysclk/cy_sysclk.h **** /* ===========================    PILO SECTION    =========================== */
1061:Generated_Source\PSoC6\pdl\drivers/peripheral/sysclk/cy_sysclk.h **** /* ========================================================================== */
1062:Generated_Source\PSoC6\pdl\drivers/peripheral/sysclk/cy_sysclk.h **** /**
1063:Generated_Source\PSoC6\pdl\drivers/peripheral/sysclk/cy_sysclk.h **** * \addtogroup group_sysclk_pilo_funcs
1064:Generated_Source\PSoC6\pdl\drivers/peripheral/sysclk/cy_sysclk.h **** * \{
1065:Generated_Source\PSoC6\pdl\drivers/peripheral/sysclk/cy_sysclk.h **** */
1066:Generated_Source\PSoC6\pdl\drivers/peripheral/sysclk/cy_sysclk.h **** __STATIC_INLINE void Cy_SysClk_PiloEnable(void);
1067:Generated_Source\PSoC6\pdl\drivers/peripheral/sysclk/cy_sysclk.h **** __STATIC_INLINE void Cy_SysClk_PiloDisable(void);
1068:Generated_Source\PSoC6\pdl\drivers/peripheral/sysclk/cy_sysclk.h **** __STATIC_INLINE void Cy_SysClk_PiloSetTrim(uint32_t trimVal);
1069:Generated_Source\PSoC6\pdl\drivers/peripheral/sysclk/cy_sysclk.h **** __STATIC_INLINE uint32_t Cy_SysClk_PiloGetTrim(void);
1070:Generated_Source\PSoC6\pdl\drivers/peripheral/sysclk/cy_sysclk.h **** 
1071:Generated_Source\PSoC6\pdl\drivers/peripheral/sysclk/cy_sysclk.h **** /*******************************************************************************
1072:Generated_Source\PSoC6\pdl\drivers/peripheral/sysclk/cy_sysclk.h **** * Function Name: Cy_SysClk_PiloEnable
1073:Generated_Source\PSoC6\pdl\drivers/peripheral/sysclk/cy_sysclk.h **** ****************************************************************************//**
1074:Generated_Source\PSoC6\pdl\drivers/peripheral/sysclk/cy_sysclk.h **** *
1075:Generated_Source\PSoC6\pdl\drivers/peripheral/sysclk/cy_sysclk.h **** * Enables the PILO. 
1076:Generated_Source\PSoC6\pdl\drivers/peripheral/sysclk/cy_sysclk.h **** *
1077:Generated_Source\PSoC6\pdl\drivers/peripheral/sysclk/cy_sysclk.h **** * \note This function blocks for 1 millisecond between enabling the PILO and 
1078:Generated_Source\PSoC6\pdl\drivers/peripheral/sysclk/cy_sysclk.h **** * releasing the PILO reset.
1079:Generated_Source\PSoC6\pdl\drivers/peripheral/sysclk/cy_sysclk.h **** *
1080:Generated_Source\PSoC6\pdl\drivers/peripheral/sysclk/cy_sysclk.h **** * \funcusage
1081:Generated_Source\PSoC6\pdl\drivers/peripheral/sysclk/cy_sysclk.h **** * \snippet sysclk/1.20/snippet/main.c snippet_Cy_SysClk_PiloEnable
1082:Generated_Source\PSoC6\pdl\drivers/peripheral/sysclk/cy_sysclk.h **** *
1083:Generated_Source\PSoC6\pdl\drivers/peripheral/sysclk/cy_sysclk.h **** *******************************************************************************/
1084:Generated_Source\PSoC6\pdl\drivers/peripheral/sysclk/cy_sysclk.h **** __STATIC_INLINE void Cy_SysClk_PiloEnable(void)
1085:Generated_Source\PSoC6\pdl\drivers/peripheral/sysclk/cy_sysclk.h **** {
1086:Generated_Source\PSoC6\pdl\drivers/peripheral/sysclk/cy_sysclk.h ****     SRSS_CLK_PILO_CONFIG |= _VAL2FLD(SRSS_CLK_PILO_CONFIG_PILO_EN, 1U); /* 1 = enable */
1087:Generated_Source\PSoC6\pdl\drivers/peripheral/sysclk/cy_sysclk.h ****     Cy_SysLib_Delay(1U/*msec*/);
1088:Generated_Source\PSoC6\pdl\drivers/peripheral/sysclk/cy_sysclk.h ****     /* release the reset and enable clock output */
1089:Generated_Source\PSoC6\pdl\drivers/peripheral/sysclk/cy_sysclk.h ****     SRSS_CLK_PILO_CONFIG |= SRSS_CLK_PILO_CONFIG_PILO_RESET_N_Msk |
1090:Generated_Source\PSoC6\pdl\drivers/peripheral/sysclk/cy_sysclk.h ****                             SRSS_CLK_PILO_CONFIG_PILO_CLK_EN_Msk;
1091:Generated_Source\PSoC6\pdl\drivers/peripheral/sysclk/cy_sysclk.h **** }
1092:Generated_Source\PSoC6\pdl\drivers/peripheral/sysclk/cy_sysclk.h **** 
1093:Generated_Source\PSoC6\pdl\drivers/peripheral/sysclk/cy_sysclk.h **** /*******************************************************************************
1094:Generated_Source\PSoC6\pdl\drivers/peripheral/sysclk/cy_sysclk.h **** * Function Name: Cy_SysClk_PiloDisable
1095:Generated_Source\PSoC6\pdl\drivers/peripheral/sysclk/cy_sysclk.h **** ****************************************************************************//**
1096:Generated_Source\PSoC6\pdl\drivers/peripheral/sysclk/cy_sysclk.h **** *
1097:Generated_Source\PSoC6\pdl\drivers/peripheral/sysclk/cy_sysclk.h **** * Disables the PILO.
1098:Generated_Source\PSoC6\pdl\drivers/peripheral/sysclk/cy_sysclk.h **** *
1099:Generated_Source\PSoC6\pdl\drivers/peripheral/sysclk/cy_sysclk.h **** * \funcusage
1100:Generated_Source\PSoC6\pdl\drivers/peripheral/sysclk/cy_sysclk.h **** * \snippet sysclk/1.20/snippet/main.c snippet_Cy_SysClk_PiloDisable
1101:Generated_Source\PSoC6\pdl\drivers/peripheral/sysclk/cy_sysclk.h **** *
ARM GAS  C:\Users\SimonChen\AppData\Local\Temp\ccD98YNQ.s 			page 24


1102:Generated_Source\PSoC6\pdl\drivers/peripheral/sysclk/cy_sysclk.h **** *******************************************************************************/
1103:Generated_Source\PSoC6\pdl\drivers/peripheral/sysclk/cy_sysclk.h **** __STATIC_INLINE void Cy_SysClk_PiloDisable(void)
1104:Generated_Source\PSoC6\pdl\drivers/peripheral/sysclk/cy_sysclk.h **** {
1105:Generated_Source\PSoC6\pdl\drivers/peripheral/sysclk/cy_sysclk.h ****     /* Clear PILO_EN, PILO_RESET_N, and PILO_CLK_EN bitfields. This disables the
1106:Generated_Source\PSoC6\pdl\drivers/peripheral/sysclk/cy_sysclk.h ****        PILO and holds the PILO in a reset state. */
1107:Generated_Source\PSoC6\pdl\drivers/peripheral/sysclk/cy_sysclk.h ****     SRSS_CLK_PILO_CONFIG &= (uint32_t)~(SRSS_CLK_PILO_CONFIG_PILO_EN_Msk      |
1108:Generated_Source\PSoC6\pdl\drivers/peripheral/sysclk/cy_sysclk.h ****                                         SRSS_CLK_PILO_CONFIG_PILO_RESET_N_Msk |
1109:Generated_Source\PSoC6\pdl\drivers/peripheral/sysclk/cy_sysclk.h ****                                         SRSS_CLK_PILO_CONFIG_PILO_CLK_EN_Msk);
1110:Generated_Source\PSoC6\pdl\drivers/peripheral/sysclk/cy_sysclk.h **** }
1111:Generated_Source\PSoC6\pdl\drivers/peripheral/sysclk/cy_sysclk.h **** 
1112:Generated_Source\PSoC6\pdl\drivers/peripheral/sysclk/cy_sysclk.h **** /*******************************************************************************
1113:Generated_Source\PSoC6\pdl\drivers/peripheral/sysclk/cy_sysclk.h **** * Function Name: Cy_SysClk_PiloSetTrim
1114:Generated_Source\PSoC6\pdl\drivers/peripheral/sysclk/cy_sysclk.h **** ****************************************************************************//**
1115:Generated_Source\PSoC6\pdl\drivers/peripheral/sysclk/cy_sysclk.h **** *
1116:Generated_Source\PSoC6\pdl\drivers/peripheral/sysclk/cy_sysclk.h **** * Sets the PILO trim bits, which adjusts the PILO frequency. This is typically
1117:Generated_Source\PSoC6\pdl\drivers/peripheral/sysclk/cy_sysclk.h **** * done after measuring the PILO frequency; see \ref Cy_SysClk_StartClkMeasurementCounters().
1118:Generated_Source\PSoC6\pdl\drivers/peripheral/sysclk/cy_sysclk.h **** *
1119:Generated_Source\PSoC6\pdl\drivers/peripheral/sysclk/cy_sysclk.h **** * \funcusage
1120:Generated_Source\PSoC6\pdl\drivers/peripheral/sysclk/cy_sysclk.h **** * \snippet sysclk/1.20/snippet/main.c snippet_Cy_SysClk_PiloSetTrim
1121:Generated_Source\PSoC6\pdl\drivers/peripheral/sysclk/cy_sysclk.h **** *
1122:Generated_Source\PSoC6\pdl\drivers/peripheral/sysclk/cy_sysclk.h **** *******************************************************************************/
1123:Generated_Source\PSoC6\pdl\drivers/peripheral/sysclk/cy_sysclk.h **** __STATIC_INLINE void Cy_SysClk_PiloSetTrim(uint32_t trimVal)
1124:Generated_Source\PSoC6\pdl\drivers/peripheral/sysclk/cy_sysclk.h **** {
1125:Generated_Source\PSoC6\pdl\drivers/peripheral/sysclk/cy_sysclk.h ****     CY_REG32_CLR_SET(SRSS_CLK_PILO_CONFIG, SRSS_CLK_PILO_CONFIG_PILO_FFREQ, trimVal);
1126:Generated_Source\PSoC6\pdl\drivers/peripheral/sysclk/cy_sysclk.h **** }
1127:Generated_Source\PSoC6\pdl\drivers/peripheral/sysclk/cy_sysclk.h **** 
1128:Generated_Source\PSoC6\pdl\drivers/peripheral/sysclk/cy_sysclk.h **** /*******************************************************************************
1129:Generated_Source\PSoC6\pdl\drivers/peripheral/sysclk/cy_sysclk.h **** * Function Name: Cy_SysClk_PiloGetTrim
1130:Generated_Source\PSoC6\pdl\drivers/peripheral/sysclk/cy_sysclk.h **** ****************************************************************************//**
1131:Generated_Source\PSoC6\pdl\drivers/peripheral/sysclk/cy_sysclk.h **** *
1132:Generated_Source\PSoC6\pdl\drivers/peripheral/sysclk/cy_sysclk.h **** * Reports the current PILO trim bits value.
1133:Generated_Source\PSoC6\pdl\drivers/peripheral/sysclk/cy_sysclk.h **** *
1134:Generated_Source\PSoC6\pdl\drivers/peripheral/sysclk/cy_sysclk.h **** * \funcusage
1135:Generated_Source\PSoC6\pdl\drivers/peripheral/sysclk/cy_sysclk.h **** * Refer to the Cy_SysClk_PiloSetTrim() function usage.
1136:Generated_Source\PSoC6\pdl\drivers/peripheral/sysclk/cy_sysclk.h **** *
1137:Generated_Source\PSoC6\pdl\drivers/peripheral/sysclk/cy_sysclk.h **** *******************************************************************************/
1138:Generated_Source\PSoC6\pdl\drivers/peripheral/sysclk/cy_sysclk.h **** __STATIC_INLINE uint32_t Cy_SysClk_PiloGetTrim(void)
1139:Generated_Source\PSoC6\pdl\drivers/peripheral/sysclk/cy_sysclk.h **** {
1140:Generated_Source\PSoC6\pdl\drivers/peripheral/sysclk/cy_sysclk.h ****     return (_FLD2VAL(SRSS_CLK_PILO_CONFIG_PILO_FFREQ, SRSS_CLK_PILO_CONFIG));
1141:Generated_Source\PSoC6\pdl\drivers/peripheral/sysclk/cy_sysclk.h **** }
1142:Generated_Source\PSoC6\pdl\drivers/peripheral/sysclk/cy_sysclk.h **** /** \} group_sysclk_pilo_funcs */
1143:Generated_Source\PSoC6\pdl\drivers/peripheral/sysclk/cy_sysclk.h **** 
1144:Generated_Source\PSoC6\pdl\drivers/peripheral/sysclk/cy_sysclk.h **** 
1145:Generated_Source\PSoC6\pdl\drivers/peripheral/sysclk/cy_sysclk.h **** /* ========================================================================== */
1146:Generated_Source\PSoC6\pdl\drivers/peripheral/sysclk/cy_sysclk.h **** /* ====================    CLOCK MEASUREMENT SECTION    ===================== */
1147:Generated_Source\PSoC6\pdl\drivers/peripheral/sysclk/cy_sysclk.h **** /* ========================================================================== */
1148:Generated_Source\PSoC6\pdl\drivers/peripheral/sysclk/cy_sysclk.h **** /**
1149:Generated_Source\PSoC6\pdl\drivers/peripheral/sysclk/cy_sysclk.h **** * \addtogroup group_sysclk_calclk_enums
1150:Generated_Source\PSoC6\pdl\drivers/peripheral/sysclk/cy_sysclk.h **** * \{
1151:Generated_Source\PSoC6\pdl\drivers/peripheral/sysclk/cy_sysclk.h **** */
1152:Generated_Source\PSoC6\pdl\drivers/peripheral/sysclk/cy_sysclk.h **** /** Defines all possible clock sources. */
1153:Generated_Source\PSoC6\pdl\drivers/peripheral/sysclk/cy_sysclk.h **** typedef enum
1154:Generated_Source\PSoC6\pdl\drivers/peripheral/sysclk/cy_sysclk.h **** {
1155:Generated_Source\PSoC6\pdl\drivers/peripheral/sysclk/cy_sysclk.h ****     CY_SYSCLK_MEAS_CLK_NC =            0U,
1156:Generated_Source\PSoC6\pdl\drivers/peripheral/sysclk/cy_sysclk.h ****     CY_SYSCLK_MEAS_CLK_ILO =           1U,
1157:Generated_Source\PSoC6\pdl\drivers/peripheral/sysclk/cy_sysclk.h ****     CY_SYSCLK_MEAS_CLK_WCO =           2U,
1158:Generated_Source\PSoC6\pdl\drivers/peripheral/sysclk/cy_sysclk.h ****     CY_SYSCLK_MEAS_CLK_BAK =           3U,
ARM GAS  C:\Users\SimonChen\AppData\Local\Temp\ccD98YNQ.s 			page 25


1159:Generated_Source\PSoC6\pdl\drivers/peripheral/sysclk/cy_sysclk.h ****     CY_SYSCLK_MEAS_CLK_ALTLF =         4U,
1160:Generated_Source\PSoC6\pdl\drivers/peripheral/sysclk/cy_sysclk.h ****     CY_SYSCLK_MEAS_CLK_LFCLK =         5U,
1161:Generated_Source\PSoC6\pdl\drivers/peripheral/sysclk/cy_sysclk.h ****     CY_SYSCLK_MEAS_CLK_IMO =           6U,
1162:Generated_Source\PSoC6\pdl\drivers/peripheral/sysclk/cy_sysclk.h ****     CY_SYSCLK_MEAS_CLK_PILO =          8U,
1163:Generated_Source\PSoC6\pdl\drivers/peripheral/sysclk/cy_sysclk.h ****     CY_SYSCLK_MEAS_CLK_FAST_CLKS =     0x100U,
1164:Generated_Source\PSoC6\pdl\drivers/peripheral/sysclk/cy_sysclk.h ****     CY_SYSCLK_MEAS_CLK_ECO =           0x101U,
1165:Generated_Source\PSoC6\pdl\drivers/peripheral/sysclk/cy_sysclk.h ****     CY_SYSCLK_MEAS_CLK_EXT =           0x102U,
1166:Generated_Source\PSoC6\pdl\drivers/peripheral/sysclk/cy_sysclk.h ****     CY_SYSCLK_MEAS_CLK_ALTHF =         0x103U,
1167:Generated_Source\PSoC6\pdl\drivers/peripheral/sysclk/cy_sysclk.h ****     CY_SYSCLK_MEAS_CLK_TIMERCLK =      0x104U,
1168:Generated_Source\PSoC6\pdl\drivers/peripheral/sysclk/cy_sysclk.h ****     CY_SYSCLK_MEAS_CLK_PATH_CLKS =     0x500U,
1169:Generated_Source\PSoC6\pdl\drivers/peripheral/sysclk/cy_sysclk.h ****     CY_SYSCLK_MEAS_CLK_PATH0 =         0x500U,
1170:Generated_Source\PSoC6\pdl\drivers/peripheral/sysclk/cy_sysclk.h ****     CY_SYSCLK_MEAS_CLK_PATH1 =         0x501U,
1171:Generated_Source\PSoC6\pdl\drivers/peripheral/sysclk/cy_sysclk.h ****     CY_SYSCLK_MEAS_CLK_PATH2 =         0x502U,
1172:Generated_Source\PSoC6\pdl\drivers/peripheral/sysclk/cy_sysclk.h ****     CY_SYSCLK_MEAS_CLK_PATH3 =         0x503U,
1173:Generated_Source\PSoC6\pdl\drivers/peripheral/sysclk/cy_sysclk.h ****     CY_SYSCLK_MEAS_CLK_PATH4 =         0x504U,
1174:Generated_Source\PSoC6\pdl\drivers/peripheral/sysclk/cy_sysclk.h ****     CY_SYSCLK_MEAS_CLK_PATH5 =         0x505U,
1175:Generated_Source\PSoC6\pdl\drivers/peripheral/sysclk/cy_sysclk.h ****     CY_SYSCLK_MEAS_CLK_PATH6 =         0x506U,
1176:Generated_Source\PSoC6\pdl\drivers/peripheral/sysclk/cy_sysclk.h ****     CY_SYSCLK_MEAS_CLK_PATH7 =         0x507U,
1177:Generated_Source\PSoC6\pdl\drivers/peripheral/sysclk/cy_sysclk.h ****     CY_SYSCLK_MEAS_CLK_PATH8 =         0x508U,
1178:Generated_Source\PSoC6\pdl\drivers/peripheral/sysclk/cy_sysclk.h ****     CY_SYSCLK_MEAS_CLK_PATH9 =         0x509U,
1179:Generated_Source\PSoC6\pdl\drivers/peripheral/sysclk/cy_sysclk.h ****     CY_SYSCLK_MEAS_CLK_PATH10 =        0x50AU,
1180:Generated_Source\PSoC6\pdl\drivers/peripheral/sysclk/cy_sysclk.h ****     CY_SYSCLK_MEAS_CLK_PATH11 =        0x50BU,
1181:Generated_Source\PSoC6\pdl\drivers/peripheral/sysclk/cy_sysclk.h ****     CY_SYSCLK_MEAS_CLK_PATH12 =        0x50CU,
1182:Generated_Source\PSoC6\pdl\drivers/peripheral/sysclk/cy_sysclk.h ****     CY_SYSCLK_MEAS_CLK_PATH13 =        0x50DU,
1183:Generated_Source\PSoC6\pdl\drivers/peripheral/sysclk/cy_sysclk.h ****     CY_SYSCLK_MEAS_CLK_PATH14 =        0x50EU,
1184:Generated_Source\PSoC6\pdl\drivers/peripheral/sysclk/cy_sysclk.h ****     CY_SYSCLK_MEAS_CLK_PATH15 =        0x50FU,
1185:Generated_Source\PSoC6\pdl\drivers/peripheral/sysclk/cy_sysclk.h ****     CY_SYSCLK_MEAS_CLK_CLKHFS =        0x600U,
1186:Generated_Source\PSoC6\pdl\drivers/peripheral/sysclk/cy_sysclk.h ****     CY_SYSCLK_MEAS_CLK_CLKHF0 =        0x600U,
1187:Generated_Source\PSoC6\pdl\drivers/peripheral/sysclk/cy_sysclk.h ****     CY_SYSCLK_MEAS_CLK_CLKHF1 =        0x601U,
1188:Generated_Source\PSoC6\pdl\drivers/peripheral/sysclk/cy_sysclk.h ****     CY_SYSCLK_MEAS_CLK_CLKHF2 =        0x602U,
1189:Generated_Source\PSoC6\pdl\drivers/peripheral/sysclk/cy_sysclk.h ****     CY_SYSCLK_MEAS_CLK_CLKHF3 =        0x603U,
1190:Generated_Source\PSoC6\pdl\drivers/peripheral/sysclk/cy_sysclk.h ****     CY_SYSCLK_MEAS_CLK_CLKHF4 =        0x604U,
1191:Generated_Source\PSoC6\pdl\drivers/peripheral/sysclk/cy_sysclk.h ****     CY_SYSCLK_MEAS_CLK_CLKHF5 =        0x605U,
1192:Generated_Source\PSoC6\pdl\drivers/peripheral/sysclk/cy_sysclk.h ****     CY_SYSCLK_MEAS_CLK_CLKHF6 =        0x606U,
1193:Generated_Source\PSoC6\pdl\drivers/peripheral/sysclk/cy_sysclk.h ****     CY_SYSCLK_MEAS_CLK_CLKHF7 =        0x607U,
1194:Generated_Source\PSoC6\pdl\drivers/peripheral/sysclk/cy_sysclk.h ****     CY_SYSCLK_MEAS_CLK_CLKHF8 =        0x608U,
1195:Generated_Source\PSoC6\pdl\drivers/peripheral/sysclk/cy_sysclk.h ****     CY_SYSCLK_MEAS_CLK_CLKHF9 =        0x609U,
1196:Generated_Source\PSoC6\pdl\drivers/peripheral/sysclk/cy_sysclk.h ****     CY_SYSCLK_MEAS_CLK_CLKHF10 =       0x60AU,
1197:Generated_Source\PSoC6\pdl\drivers/peripheral/sysclk/cy_sysclk.h ****     CY_SYSCLK_MEAS_CLK_CLKHF11 =       0x60BU,
1198:Generated_Source\PSoC6\pdl\drivers/peripheral/sysclk/cy_sysclk.h ****     CY_SYSCLK_MEAS_CLK_CLKHF12 =       0x60CU,
1199:Generated_Source\PSoC6\pdl\drivers/peripheral/sysclk/cy_sysclk.h ****     CY_SYSCLK_MEAS_CLK_CLKHF13 =       0x60DU,
1200:Generated_Source\PSoC6\pdl\drivers/peripheral/sysclk/cy_sysclk.h ****     CY_SYSCLK_MEAS_CLK_CLKHF14 =       0x60EU,
1201:Generated_Source\PSoC6\pdl\drivers/peripheral/sysclk/cy_sysclk.h ****     CY_SYSCLK_MEAS_CLK_CLKHF15 =       0x60FU,
1202:Generated_Source\PSoC6\pdl\drivers/peripheral/sysclk/cy_sysclk.h ****     CY_SYSCLK_MEAS_CLK_LAST_CLK =      0x610U
1203:Generated_Source\PSoC6\pdl\drivers/peripheral/sysclk/cy_sysclk.h **** } cy_en_meas_clks_t;
1204:Generated_Source\PSoC6\pdl\drivers/peripheral/sysclk/cy_sysclk.h **** /** \} group_sysclk_calclk_enums */
1205:Generated_Source\PSoC6\pdl\drivers/peripheral/sysclk/cy_sysclk.h **** 
1206:Generated_Source\PSoC6\pdl\drivers/peripheral/sysclk/cy_sysclk.h **** /**
1207:Generated_Source\PSoC6\pdl\drivers/peripheral/sysclk/cy_sysclk.h **** * \addtogroup group_sysclk_calclk_funcs
1208:Generated_Source\PSoC6\pdl\drivers/peripheral/sysclk/cy_sysclk.h **** * \{
1209:Generated_Source\PSoC6\pdl\drivers/peripheral/sysclk/cy_sysclk.h **** */
1210:Generated_Source\PSoC6\pdl\drivers/peripheral/sysclk/cy_sysclk.h **** cy_en_sysclk_status_t Cy_SysClk_StartClkMeasurementCounters(cy_en_meas_clks_t clock1, uint32_t coun
1211:Generated_Source\PSoC6\pdl\drivers/peripheral/sysclk/cy_sysclk.h **** __STATIC_INLINE bool Cy_SysClk_ClkMeasurementCountersDone(void);
1212:Generated_Source\PSoC6\pdl\drivers/peripheral/sysclk/cy_sysclk.h **** uint32_t Cy_SysClk_ClkMeasurementCountersGetFreq(bool measuredClock, uint32_t refClkFreq);
1213:Generated_Source\PSoC6\pdl\drivers/peripheral/sysclk/cy_sysclk.h **** 
1214:Generated_Source\PSoC6\pdl\drivers/peripheral/sysclk/cy_sysclk.h **** /*******************************************************************************
1215:Generated_Source\PSoC6\pdl\drivers/peripheral/sysclk/cy_sysclk.h **** * Function Name: Cy_SysClk_ClkMeasurementCountersDone
ARM GAS  C:\Users\SimonChen\AppData\Local\Temp\ccD98YNQ.s 			page 26


1216:Generated_Source\PSoC6\pdl\drivers/peripheral/sysclk/cy_sysclk.h **** ****************************************************************************//**
1217:Generated_Source\PSoC6\pdl\drivers/peripheral/sysclk/cy_sysclk.h **** *
1218:Generated_Source\PSoC6\pdl\drivers/peripheral/sysclk/cy_sysclk.h **** * Checks if clock measurement counting is done, that is, counter1 has counted down
1219:Generated_Source\PSoC6\pdl\drivers/peripheral/sysclk/cy_sysclk.h **** * to zero. Call \ref Cy_SysClk_StartClkMeasurementCounters() before calling this function.
1220:Generated_Source\PSoC6\pdl\drivers/peripheral/sysclk/cy_sysclk.h **** *
1221:Generated_Source\PSoC6\pdl\drivers/peripheral/sysclk/cy_sysclk.h **** * \return Status of calibration counters:<br>
1222:Generated_Source\PSoC6\pdl\drivers/peripheral/sysclk/cy_sysclk.h **** * true = done<br>
1223:Generated_Source\PSoC6\pdl\drivers/peripheral/sysclk/cy_sysclk.h **** * false = not done
1224:Generated_Source\PSoC6\pdl\drivers/peripheral/sysclk/cy_sysclk.h **** *
1225:Generated_Source\PSoC6\pdl\drivers/peripheral/sysclk/cy_sysclk.h **** * \funcusage
1226:Generated_Source\PSoC6\pdl\drivers/peripheral/sysclk/cy_sysclk.h **** * Refer to the Cy_SysClk_StartClkMeasurementCounters() function usage.
1227:Generated_Source\PSoC6\pdl\drivers/peripheral/sysclk/cy_sysclk.h **** *
1228:Generated_Source\PSoC6\pdl\drivers/peripheral/sysclk/cy_sysclk.h **** *******************************************************************************/
1229:Generated_Source\PSoC6\pdl\drivers/peripheral/sysclk/cy_sysclk.h **** __STATIC_INLINE bool Cy_SysClk_ClkMeasurementCountersDone(void)
1230:Generated_Source\PSoC6\pdl\drivers/peripheral/sysclk/cy_sysclk.h **** {
1231:Generated_Source\PSoC6\pdl\drivers/peripheral/sysclk/cy_sysclk.h ****     return (_FLD2BOOL(SRSS_CLK_CAL_CNT1_CAL_COUNTER_DONE, SRSS_CLK_CAL_CNT1));
1232:Generated_Source\PSoC6\pdl\drivers/peripheral/sysclk/cy_sysclk.h **** }
1233:Generated_Source\PSoC6\pdl\drivers/peripheral/sysclk/cy_sysclk.h **** /** \} group_sysclk_calclk_funcs */
1234:Generated_Source\PSoC6\pdl\drivers/peripheral/sysclk/cy_sysclk.h **** 
1235:Generated_Source\PSoC6\pdl\drivers/peripheral/sysclk/cy_sysclk.h **** 
1236:Generated_Source\PSoC6\pdl\drivers/peripheral/sysclk/cy_sysclk.h **** /* ========================================================================== */
1237:Generated_Source\PSoC6\pdl\drivers/peripheral/sysclk/cy_sysclk.h **** /* ==========================    TRIM SECTION    ============================ */
1238:Generated_Source\PSoC6\pdl\drivers/peripheral/sysclk/cy_sysclk.h **** /* ========================================================================== */
1239:Generated_Source\PSoC6\pdl\drivers/peripheral/sysclk/cy_sysclk.h **** /**
1240:Generated_Source\PSoC6\pdl\drivers/peripheral/sysclk/cy_sysclk.h **** * \addtogroup group_sysclk_trim_funcs
1241:Generated_Source\PSoC6\pdl\drivers/peripheral/sysclk/cy_sysclk.h **** * \{
1242:Generated_Source\PSoC6\pdl\drivers/peripheral/sysclk/cy_sysclk.h **** */
1243:Generated_Source\PSoC6\pdl\drivers/peripheral/sysclk/cy_sysclk.h **** int32_t Cy_SysClk_IloTrim(uint32_t iloFreq);
1244:Generated_Source\PSoC6\pdl\drivers/peripheral/sysclk/cy_sysclk.h **** int32_t Cy_SysClk_PiloTrim(uint32_t piloFreq);
1245:Generated_Source\PSoC6\pdl\drivers/peripheral/sysclk/cy_sysclk.h **** /** \} group_sysclk_trim_funcs */
1246:Generated_Source\PSoC6\pdl\drivers/peripheral/sysclk/cy_sysclk.h **** 
1247:Generated_Source\PSoC6\pdl\drivers/peripheral/sysclk/cy_sysclk.h **** 
1248:Generated_Source\PSoC6\pdl\drivers/peripheral/sysclk/cy_sysclk.h **** /* ========================================================================== */
1249:Generated_Source\PSoC6\pdl\drivers/peripheral/sysclk/cy_sysclk.h **** /* ======================    POWER MANAGEMENT SECTION    ==================== */
1250:Generated_Source\PSoC6\pdl\drivers/peripheral/sysclk/cy_sysclk.h **** /* ========================================================================== */
1251:Generated_Source\PSoC6\pdl\drivers/peripheral/sysclk/cy_sysclk.h **** /**
1252:Generated_Source\PSoC6\pdl\drivers/peripheral/sysclk/cy_sysclk.h **** * \addtogroup group_sysclk_pm_funcs
1253:Generated_Source\PSoC6\pdl\drivers/peripheral/sysclk/cy_sysclk.h **** * \{
1254:Generated_Source\PSoC6\pdl\drivers/peripheral/sysclk/cy_sysclk.h **** */
1255:Generated_Source\PSoC6\pdl\drivers/peripheral/sysclk/cy_sysclk.h **** cy_en_syspm_status_t Cy_SysClk_DeepSleepCallback(cy_stc_syspm_callback_params_t *callbackParams, cy
1256:Generated_Source\PSoC6\pdl\drivers/peripheral/sysclk/cy_sysclk.h **** /** \} group_sysclk_pm_funcs */
1257:Generated_Source\PSoC6\pdl\drivers/peripheral/sysclk/cy_sysclk.h **** 
1258:Generated_Source\PSoC6\pdl\drivers/peripheral/sysclk/cy_sysclk.h **** 
1259:Generated_Source\PSoC6\pdl\drivers/peripheral/sysclk/cy_sysclk.h **** /* ========================================================================== */
1260:Generated_Source\PSoC6\pdl\drivers/peripheral/sysclk/cy_sysclk.h **** /* ===========================    WCO SECTION    ============================ */
1261:Generated_Source\PSoC6\pdl\drivers/peripheral/sysclk/cy_sysclk.h **** /* ========================================================================== */
1262:Generated_Source\PSoC6\pdl\drivers/peripheral/sysclk/cy_sysclk.h **** /**
1263:Generated_Source\PSoC6\pdl\drivers/peripheral/sysclk/cy_sysclk.h **** * \addtogroup group_sysclk_wco_enums
1264:Generated_Source\PSoC6\pdl\drivers/peripheral/sysclk/cy_sysclk.h **** * \{
1265:Generated_Source\PSoC6\pdl\drivers/peripheral/sysclk/cy_sysclk.h **** */
1266:Generated_Source\PSoC6\pdl\drivers/peripheral/sysclk/cy_sysclk.h **** /** WCO bypass modes */
1267:Generated_Source\PSoC6\pdl\drivers/peripheral/sysclk/cy_sysclk.h **** typedef enum
1268:Generated_Source\PSoC6\pdl\drivers/peripheral/sysclk/cy_sysclk.h **** {
1269:Generated_Source\PSoC6\pdl\drivers/peripheral/sysclk/cy_sysclk.h ****     CY_SYSCLK_WCO_NOT_BYPASSED = 0u, /**< WCO is not bypassed crystal is used */
1270:Generated_Source\PSoC6\pdl\drivers/peripheral/sysclk/cy_sysclk.h ****     CY_SYSCLK_WCO_BYPASSED = 1U      /**< WCO is bypassed external clock must be supplied  on XTAL 
1271:Generated_Source\PSoC6\pdl\drivers/peripheral/sysclk/cy_sysclk.h **** } cy_en_wco_bypass_modes_t;
1272:Generated_Source\PSoC6\pdl\drivers/peripheral/sysclk/cy_sysclk.h **** 
ARM GAS  C:\Users\SimonChen\AppData\Local\Temp\ccD98YNQ.s 			page 27


1273:Generated_Source\PSoC6\pdl\drivers/peripheral/sysclk/cy_sysclk.h **** /** WCO CSV supervisor clock selections */
1274:Generated_Source\PSoC6\pdl\drivers/peripheral/sysclk/cy_sysclk.h **** typedef enum
1275:Generated_Source\PSoC6\pdl\drivers/peripheral/sysclk/cy_sysclk.h **** {
1276:Generated_Source\PSoC6\pdl\drivers/peripheral/sysclk/cy_sysclk.h ****     CY_SYSCLK_WCO_CSV_SUPERVISOR_ILO,   /**< WCO CSV supervisor clock source is the ILO */
1277:Generated_Source\PSoC6\pdl\drivers/peripheral/sysclk/cy_sysclk.h ****     CY_SYSCLK_WCO_CSV_SUPERVISOR_ALTLF, /**< WCO CSV supervisor clock source is the alternate low-f
1278:Generated_Source\PSoC6\pdl\drivers/peripheral/sysclk/cy_sysclk.h ****     CY_SYSCLK_WCO_CSV_SUPERVISOR_PILO   /**< WCO CSV supervisor clock source is the PILO */
1279:Generated_Source\PSoC6\pdl\drivers/peripheral/sysclk/cy_sysclk.h **** } cy_en_wco_csv_supervisor_clock_t;
1280:Generated_Source\PSoC6\pdl\drivers/peripheral/sysclk/cy_sysclk.h **** 
1281:Generated_Source\PSoC6\pdl\drivers/peripheral/sysclk/cy_sysclk.h **** /**
1282:Generated_Source\PSoC6\pdl\drivers/peripheral/sysclk/cy_sysclk.h **** * Clock supervisor clock loss window. There must be one clock of the supervised
1283:Generated_Source\PSoC6\pdl\drivers/peripheral/sysclk/cy_sysclk.h **** * clock within this many clocks of the supervising clock.
1284:Generated_Source\PSoC6\pdl\drivers/peripheral/sysclk/cy_sysclk.h **** * See registers CLK_CSV_HF_CTL and CLK_CSV_WCO_CTL, bitfield CSV_LOSS_WINDOW.
1285:Generated_Source\PSoC6\pdl\drivers/peripheral/sysclk/cy_sysclk.h **** */
1286:Generated_Source\PSoC6\pdl\drivers/peripheral/sysclk/cy_sysclk.h **** typedef enum
1287:Generated_Source\PSoC6\pdl\drivers/peripheral/sysclk/cy_sysclk.h **** {
1288:Generated_Source\PSoC6\pdl\drivers/peripheral/sysclk/cy_sysclk.h ****     CY_SYSCLK_CSV_LOSS_4_CYCLES =   0u, /**< 1 clock must be seen within 4 cycles of the supervisin
1289:Generated_Source\PSoC6\pdl\drivers/peripheral/sysclk/cy_sysclk.h ****     CY_SYSCLK_CSV_LOSS_8_CYCLES =   1U, /**< 1 clock must be seen within 8 cycles of the supervisin
1290:Generated_Source\PSoC6\pdl\drivers/peripheral/sysclk/cy_sysclk.h ****     CY_SYSCLK_CSV_LOSS_16_CYCLES =  2u, /**< 1 clock must be seen within 16 cycles of the supervisi
1291:Generated_Source\PSoC6\pdl\drivers/peripheral/sysclk/cy_sysclk.h ****     CY_SYSCLK_CSV_LOSS_32_CYCLES =  3u, /**< 1 clock must be seen within 32 cycles of the supervisi
1292:Generated_Source\PSoC6\pdl\drivers/peripheral/sysclk/cy_sysclk.h ****     CY_SYSCLK_CSV_LOSS_64_CYCLES =  4u, /**< 1 clock must be seen within 64 cycles of the supervisi
1293:Generated_Source\PSoC6\pdl\drivers/peripheral/sysclk/cy_sysclk.h ****     CY_SYSCLK_CSV_LOSS_128_CYCLES = 5u, /**< 1 clock must be seen within 128 cycles of the supervis
1294:Generated_Source\PSoC6\pdl\drivers/peripheral/sysclk/cy_sysclk.h ****     CY_SYSCLK_CSV_LOSS_256_CYCLES = 6u, /**< 1 clock must be seen within 256 cycles of the supervis
1295:Generated_Source\PSoC6\pdl\drivers/peripheral/sysclk/cy_sysclk.h ****     CY_SYSCLK_CSV_LOSS_512_CYCLES = 7u  /**< 1 clock must be seen within 512 cycles of the supervis
1296:Generated_Source\PSoC6\pdl\drivers/peripheral/sysclk/cy_sysclk.h **** } cy_en_csv_loss_window_t;
1297:Generated_Source\PSoC6\pdl\drivers/peripheral/sysclk/cy_sysclk.h **** 
1298:Generated_Source\PSoC6\pdl\drivers/peripheral/sysclk/cy_sysclk.h **** /**
1299:Generated_Source\PSoC6\pdl\drivers/peripheral/sysclk/cy_sysclk.h **** * Clock supervisor error actions. See register CLK_CSV_HF_CTL[CSV_FREQ_ACTION and CSV_LOSS_ACTION].
1300:Generated_Source\PSoC6\pdl\drivers/peripheral/sysclk/cy_sysclk.h **** */
1301:Generated_Source\PSoC6\pdl\drivers/peripheral/sysclk/cy_sysclk.h **** typedef enum
1302:Generated_Source\PSoC6\pdl\drivers/peripheral/sysclk/cy_sysclk.h **** {
1303:Generated_Source\PSoC6\pdl\drivers/peripheral/sysclk/cy_sysclk.h ****     CY_SYSCLK_CSV_ERROR_IGNORE = 0u,     /**< Ignore the error reported by the clock supervisor. */
1304:Generated_Source\PSoC6\pdl\drivers/peripheral/sysclk/cy_sysclk.h ****     CY_SYSCLK_CSV_ERROR_FAULT = 1U,      /**< Trigger a fault when an error is reported by the cloc
1305:Generated_Source\PSoC6\pdl\drivers/peripheral/sysclk/cy_sysclk.h ****     CY_SYSCLK_CSV_ERROR_RESET = 2u,      /**< Trigger a reset when an error is reported by the cloc
1306:Generated_Source\PSoC6\pdl\drivers/peripheral/sysclk/cy_sysclk.h ****     CY_SYSCLK_CSV_ERROR_FAULT_RESET = 3u /**< Trigger a fault then reset when an error is reported 
1307:Generated_Source\PSoC6\pdl\drivers/peripheral/sysclk/cy_sysclk.h **** } cy_en_csv_error_actions_t;
1308:Generated_Source\PSoC6\pdl\drivers/peripheral/sysclk/cy_sysclk.h **** /** \} group_sysclk_wco_enums */
1309:Generated_Source\PSoC6\pdl\drivers/peripheral/sysclk/cy_sysclk.h **** 
1310:Generated_Source\PSoC6\pdl\drivers/peripheral/sysclk/cy_sysclk.h **** /**
1311:Generated_Source\PSoC6\pdl\drivers/peripheral/sysclk/cy_sysclk.h **** * \addtogroup group_sysclk_wco_structs
1312:Generated_Source\PSoC6\pdl\drivers/peripheral/sysclk/cy_sysclk.h **** * \{
1313:Generated_Source\PSoC6\pdl\drivers/peripheral/sysclk/cy_sysclk.h **** */
1314:Generated_Source\PSoC6\pdl\drivers/peripheral/sysclk/cy_sysclk.h **** /**
1315:Generated_Source\PSoC6\pdl\drivers/peripheral/sysclk/cy_sysclk.h **** * This structure is used to configure the clock supervisor for the WCO.
1316:Generated_Source\PSoC6\pdl\drivers/peripheral/sysclk/cy_sysclk.h **** */
1317:Generated_Source\PSoC6\pdl\drivers/peripheral/sysclk/cy_sysclk.h **** typedef struct
1318:Generated_Source\PSoC6\pdl\drivers/peripheral/sysclk/cy_sysclk.h **** {
1319:Generated_Source\PSoC6\pdl\drivers/peripheral/sysclk/cy_sysclk.h ****     cy_en_wco_csv_supervisor_clock_t supervisorClock; /**< supervisor clock selection */
1320:Generated_Source\PSoC6\pdl\drivers/peripheral/sysclk/cy_sysclk.h ****     bool enableLossDetection;                         /**< 1= enabled, 0= disabled. Note that if lo
1321:Generated_Source\PSoC6\pdl\drivers/peripheral/sysclk/cy_sysclk.h ****     cy_en_csv_loss_window_t lossWindow;               /**< \ref cy_en_csv_loss_window_t */
1322:Generated_Source\PSoC6\pdl\drivers/peripheral/sysclk/cy_sysclk.h ****     cy_en_csv_error_actions_t lossAction;             /**< \ref cy_en_csv_error_actions_t */
1323:Generated_Source\PSoC6\pdl\drivers/peripheral/sysclk/cy_sysclk.h **** } cy_stc_wco_csv_config_t;
1324:Generated_Source\PSoC6\pdl\drivers/peripheral/sysclk/cy_sysclk.h **** /** \} group_sysclk_wco_structs */
1325:Generated_Source\PSoC6\pdl\drivers/peripheral/sysclk/cy_sysclk.h **** 
1326:Generated_Source\PSoC6\pdl\drivers/peripheral/sysclk/cy_sysclk.h **** /**
1327:Generated_Source\PSoC6\pdl\drivers/peripheral/sysclk/cy_sysclk.h **** * \addtogroup group_sysclk_wco_funcs
1328:Generated_Source\PSoC6\pdl\drivers/peripheral/sysclk/cy_sysclk.h **** * \{
1329:Generated_Source\PSoC6\pdl\drivers/peripheral/sysclk/cy_sysclk.h **** */
ARM GAS  C:\Users\SimonChen\AppData\Local\Temp\ccD98YNQ.s 			page 28


1330:Generated_Source\PSoC6\pdl\drivers/peripheral/sysclk/cy_sysclk.h **** __STATIC_INLINE cy_en_sysclk_status_t Cy_SysClk_WcoEnable(uint32_t timeoutus);
1331:Generated_Source\PSoC6\pdl\drivers/peripheral/sysclk/cy_sysclk.h **** __STATIC_INLINE bool Cy_SysClk_WcoOkay(void);
1332:Generated_Source\PSoC6\pdl\drivers/peripheral/sysclk/cy_sysclk.h **** __STATIC_INLINE void Cy_SysClk_WcoDisable(void);
1333:Generated_Source\PSoC6\pdl\drivers/peripheral/sysclk/cy_sysclk.h **** __STATIC_INLINE void Cy_SysClk_WcoBypass(cy_en_wco_bypass_modes_t bypass);
1334:Generated_Source\PSoC6\pdl\drivers/peripheral/sysclk/cy_sysclk.h **** 
1335:Generated_Source\PSoC6\pdl\drivers/peripheral/sysclk/cy_sysclk.h **** 
1336:Generated_Source\PSoC6\pdl\drivers/peripheral/sysclk/cy_sysclk.h **** /*******************************************************************************
1337:Generated_Source\PSoC6\pdl\drivers/peripheral/sysclk/cy_sysclk.h **** * Function Name: Cy_SysClk_WcoEnable
1338:Generated_Source\PSoC6\pdl\drivers/peripheral/sysclk/cy_sysclk.h **** ****************************************************************************//**
1339:Generated_Source\PSoC6\pdl\drivers/peripheral/sysclk/cy_sysclk.h **** *
1340:Generated_Source\PSoC6\pdl\drivers/peripheral/sysclk/cy_sysclk.h **** * Enables the WCO.
1341:Generated_Source\PSoC6\pdl\drivers/peripheral/sysclk/cy_sysclk.h **** *
1342:Generated_Source\PSoC6\pdl\drivers/peripheral/sysclk/cy_sysclk.h **** * \param timeoutus amount of time in microseconds to wait for the WCO to be ready.
1343:Generated_Source\PSoC6\pdl\drivers/peripheral/sysclk/cy_sysclk.h **** * If WCO is not ready, WCO is stopped. To avoid waiting for WCO ready set this to 0,
1344:Generated_Source\PSoC6\pdl\drivers/peripheral/sysclk/cy_sysclk.h **** * and manually check if WCO is okay using \ref Cy_SysClk_WcoOkay.
1345:Generated_Source\PSoC6\pdl\drivers/peripheral/sysclk/cy_sysclk.h **** *
1346:Generated_Source\PSoC6\pdl\drivers/peripheral/sysclk/cy_sysclk.h **** * \return Error / status code:<br>
1347:Generated_Source\PSoC6\pdl\drivers/peripheral/sysclk/cy_sysclk.h **** * CY_SYSCLK_SUCCESS - WCO successfully enabled<br>
1348:Generated_Source\PSoC6\pdl\drivers/peripheral/sysclk/cy_sysclk.h **** * CY_SYSCLK_TIMEOUT - Timeout waiting for WCO to stabilize
1349:Generated_Source\PSoC6\pdl\drivers/peripheral/sysclk/cy_sysclk.h **** *
1350:Generated_Source\PSoC6\pdl\drivers/peripheral/sysclk/cy_sysclk.h **** * \funcusage
1351:Generated_Source\PSoC6\pdl\drivers/peripheral/sysclk/cy_sysclk.h **** * \snippet sysclk/1.20/snippet/main.c snippet_Cy_SysClk_WcoEnable
1352:Generated_Source\PSoC6\pdl\drivers/peripheral/sysclk/cy_sysclk.h **** *
1353:Generated_Source\PSoC6\pdl\drivers/peripheral/sysclk/cy_sysclk.h **** *******************************************************************************/
1354:Generated_Source\PSoC6\pdl\drivers/peripheral/sysclk/cy_sysclk.h **** __STATIC_INLINE cy_en_sysclk_status_t Cy_SysClk_WcoEnable(uint32_t timeoutus)
1355:Generated_Source\PSoC6\pdl\drivers/peripheral/sysclk/cy_sysclk.h **** {
1356:Generated_Source\PSoC6\pdl\drivers/peripheral/sysclk/cy_sysclk.h ****     cy_en_sysclk_status_t rtnval = CY_SYSCLK_TIMEOUT;
1357:Generated_Source\PSoC6\pdl\drivers/peripheral/sysclk/cy_sysclk.h **** 
1358:Generated_Source\PSoC6\pdl\drivers/peripheral/sysclk/cy_sysclk.h ****     /* first set the WCO enable bit */
1359:Generated_Source\PSoC6\pdl\drivers/peripheral/sysclk/cy_sysclk.h ****     BACKUP_CTL |= BACKUP_CTL_WCO_EN_Msk;
1360:Generated_Source\PSoC6\pdl\drivers/peripheral/sysclk/cy_sysclk.h **** 
1361:Generated_Source\PSoC6\pdl\drivers/peripheral/sysclk/cy_sysclk.h ****     /* now do the timeout wait for STATUS, bit WCO_OK */
1362:Generated_Source\PSoC6\pdl\drivers/peripheral/sysclk/cy_sysclk.h ****     for (; (Cy_SysClk_WcoOkay() == false) && (0UL != timeoutus); timeoutus--)
1363:Generated_Source\PSoC6\pdl\drivers/peripheral/sysclk/cy_sysclk.h ****     {
1364:Generated_Source\PSoC6\pdl\drivers/peripheral/sysclk/cy_sysclk.h ****         Cy_SysLib_DelayUs(1U);
1365:Generated_Source\PSoC6\pdl\drivers/peripheral/sysclk/cy_sysclk.h ****     }
1366:Generated_Source\PSoC6\pdl\drivers/peripheral/sysclk/cy_sysclk.h ****     if (0UL != timeoutus)
1367:Generated_Source\PSoC6\pdl\drivers/peripheral/sysclk/cy_sysclk.h ****     {
1368:Generated_Source\PSoC6\pdl\drivers/peripheral/sysclk/cy_sysclk.h ****         rtnval = CY_SYSCLK_SUCCESS;
1369:Generated_Source\PSoC6\pdl\drivers/peripheral/sysclk/cy_sysclk.h ****     }
1370:Generated_Source\PSoC6\pdl\drivers/peripheral/sysclk/cy_sysclk.h **** 
1371:Generated_Source\PSoC6\pdl\drivers/peripheral/sysclk/cy_sysclk.h ****     return (rtnval);
1372:Generated_Source\PSoC6\pdl\drivers/peripheral/sysclk/cy_sysclk.h **** }
1373:Generated_Source\PSoC6\pdl\drivers/peripheral/sysclk/cy_sysclk.h **** 
1374:Generated_Source\PSoC6\pdl\drivers/peripheral/sysclk/cy_sysclk.h **** /*******************************************************************************
1375:Generated_Source\PSoC6\pdl\drivers/peripheral/sysclk/cy_sysclk.h **** * Function Name: Cy_SysClk_WcoOkay
1376:Generated_Source\PSoC6\pdl\drivers/peripheral/sysclk/cy_sysclk.h **** ****************************************************************************//**
1377:Generated_Source\PSoC6\pdl\drivers/peripheral/sysclk/cy_sysclk.h **** *
1378:Generated_Source\PSoC6\pdl\drivers/peripheral/sysclk/cy_sysclk.h **** * Reports the status of the WCO_OK bit.
1379:Generated_Source\PSoC6\pdl\drivers/peripheral/sysclk/cy_sysclk.h **** *
1380:Generated_Source\PSoC6\pdl\drivers/peripheral/sysclk/cy_sysclk.h **** * \return 
1381:Generated_Source\PSoC6\pdl\drivers/peripheral/sysclk/cy_sysclk.h **** * true = okay<br>
1382:Generated_Source\PSoC6\pdl\drivers/peripheral/sysclk/cy_sysclk.h **** * false = not okay
1383:Generated_Source\PSoC6\pdl\drivers/peripheral/sysclk/cy_sysclk.h **** *
1384:Generated_Source\PSoC6\pdl\drivers/peripheral/sysclk/cy_sysclk.h **** * \funcusage
1385:Generated_Source\PSoC6\pdl\drivers/peripheral/sysclk/cy_sysclk.h **** * \snippet sysclk/1.20/snippet/main.c snippet_Cy_SysClk_WcoOkay
1386:Generated_Source\PSoC6\pdl\drivers/peripheral/sysclk/cy_sysclk.h **** *
ARM GAS  C:\Users\SimonChen\AppData\Local\Temp\ccD98YNQ.s 			page 29


1387:Generated_Source\PSoC6\pdl\drivers/peripheral/sysclk/cy_sysclk.h **** *******************************************************************************/
1388:Generated_Source\PSoC6\pdl\drivers/peripheral/sysclk/cy_sysclk.h **** __STATIC_INLINE bool Cy_SysClk_WcoOkay(void)
1389:Generated_Source\PSoC6\pdl\drivers/peripheral/sysclk/cy_sysclk.h **** {
1390:Generated_Source\PSoC6\pdl\drivers/peripheral/sysclk/cy_sysclk.h ****     return (_FLD2BOOL(BACKUP_STATUS_WCO_OK, BACKUP_STATUS));
1391:Generated_Source\PSoC6\pdl\drivers/peripheral/sysclk/cy_sysclk.h **** }
1392:Generated_Source\PSoC6\pdl\drivers/peripheral/sysclk/cy_sysclk.h **** 
1393:Generated_Source\PSoC6\pdl\drivers/peripheral/sysclk/cy_sysclk.h **** /*******************************************************************************
1394:Generated_Source\PSoC6\pdl\drivers/peripheral/sysclk/cy_sysclk.h **** * Function Name: Cy_SysClk_WcoDisable
1395:Generated_Source\PSoC6\pdl\drivers/peripheral/sysclk/cy_sysclk.h **** ****************************************************************************//**
1396:Generated_Source\PSoC6\pdl\drivers/peripheral/sysclk/cy_sysclk.h **** *
1397:Generated_Source\PSoC6\pdl\drivers/peripheral/sysclk/cy_sysclk.h **** * Disables the WCO.
1398:Generated_Source\PSoC6\pdl\drivers/peripheral/sysclk/cy_sysclk.h **** *
1399:Generated_Source\PSoC6\pdl\drivers/peripheral/sysclk/cy_sysclk.h **** * \funcusage
1400:Generated_Source\PSoC6\pdl\drivers/peripheral/sysclk/cy_sysclk.h **** * \snippet sysclk/1.20/snippet/main.c snippet_Cy_SysClk_WcoDisable
1401:Generated_Source\PSoC6\pdl\drivers/peripheral/sysclk/cy_sysclk.h **** *
1402:Generated_Source\PSoC6\pdl\drivers/peripheral/sysclk/cy_sysclk.h **** *******************************************************************************/
1403:Generated_Source\PSoC6\pdl\drivers/peripheral/sysclk/cy_sysclk.h **** __STATIC_INLINE void Cy_SysClk_WcoDisable(void)
1404:Generated_Source\PSoC6\pdl\drivers/peripheral/sysclk/cy_sysclk.h **** {
1405:Generated_Source\PSoC6\pdl\drivers/peripheral/sysclk/cy_sysclk.h ****     BACKUP_CTL &= (uint32_t)~BACKUP_CTL_WCO_EN_Msk;
1406:Generated_Source\PSoC6\pdl\drivers/peripheral/sysclk/cy_sysclk.h **** }
1407:Generated_Source\PSoC6\pdl\drivers/peripheral/sysclk/cy_sysclk.h **** 
1408:Generated_Source\PSoC6\pdl\drivers/peripheral/sysclk/cy_sysclk.h **** /*******************************************************************************
1409:Generated_Source\PSoC6\pdl\drivers/peripheral/sysclk/cy_sysclk.h **** * Function Name: Cy_SysClk_WcoBypass
1410:Generated_Source\PSoC6\pdl\drivers/peripheral/sysclk/cy_sysclk.h **** ****************************************************************************//**
1411:Generated_Source\PSoC6\pdl\drivers/peripheral/sysclk/cy_sysclk.h **** *
1412:Generated_Source\PSoC6\pdl\drivers/peripheral/sysclk/cy_sysclk.h **** * Sets whether the WCO is bypassed or not. If it is bypassed, then a 32-kHz clock
1413:Generated_Source\PSoC6\pdl\drivers/peripheral/sysclk/cy_sysclk.h **** * must be provided on the wco_out pin.
1414:Generated_Source\PSoC6\pdl\drivers/peripheral/sysclk/cy_sysclk.h **** *
1415:Generated_Source\PSoC6\pdl\drivers/peripheral/sysclk/cy_sysclk.h **** * \param bypass \ref cy_en_wco_bypass_modes_t
1416:Generated_Source\PSoC6\pdl\drivers/peripheral/sysclk/cy_sysclk.h **** *
1417:Generated_Source\PSoC6\pdl\drivers/peripheral/sysclk/cy_sysclk.h **** * \funcusage
1418:Generated_Source\PSoC6\pdl\drivers/peripheral/sysclk/cy_sysclk.h **** * \snippet sysclk/1.20/snippet/main.c snippet_Cy_SysClk_WcoBypass
1419:Generated_Source\PSoC6\pdl\drivers/peripheral/sysclk/cy_sysclk.h **** *
1420:Generated_Source\PSoC6\pdl\drivers/peripheral/sysclk/cy_sysclk.h **** *******************************************************************************/
1421:Generated_Source\PSoC6\pdl\drivers/peripheral/sysclk/cy_sysclk.h **** __STATIC_INLINE void Cy_SysClk_WcoBypass(cy_en_wco_bypass_modes_t bypass)
1422:Generated_Source\PSoC6\pdl\drivers/peripheral/sysclk/cy_sysclk.h **** {
1423:Generated_Source\PSoC6\pdl\drivers/peripheral/sysclk/cy_sysclk.h ****     CY_REG32_CLR_SET(BACKUP_CTL, BACKUP_CTL_WCO_BYPASS, bypass);
1424:Generated_Source\PSoC6\pdl\drivers/peripheral/sysclk/cy_sysclk.h **** }
1425:Generated_Source\PSoC6\pdl\drivers/peripheral/sysclk/cy_sysclk.h **** /** \} group_sysclk_wco_funcs */
1426:Generated_Source\PSoC6\pdl\drivers/peripheral/sysclk/cy_sysclk.h **** 
1427:Generated_Source\PSoC6\pdl\drivers/peripheral/sysclk/cy_sysclk.h **** 
1428:Generated_Source\PSoC6\pdl\drivers/peripheral/sysclk/cy_sysclk.h **** /* ========================================================================== */
1429:Generated_Source\PSoC6\pdl\drivers/peripheral/sysclk/cy_sysclk.h **** /* =========================    clkHf[n] SECTION    ========================= */
1430:Generated_Source\PSoC6\pdl\drivers/peripheral/sysclk/cy_sysclk.h **** /* ========================================================================== */
1431:Generated_Source\PSoC6\pdl\drivers/peripheral/sysclk/cy_sysclk.h **** /**
1432:Generated_Source\PSoC6\pdl\drivers/peripheral/sysclk/cy_sysclk.h **** * \addtogroup group_sysclk_clk_hf_enums
1433:Generated_Source\PSoC6\pdl\drivers/peripheral/sysclk/cy_sysclk.h **** * \{
1434:Generated_Source\PSoC6\pdl\drivers/peripheral/sysclk/cy_sysclk.h **** */
1435:Generated_Source\PSoC6\pdl\drivers/peripheral/sysclk/cy_sysclk.h **** /**
1436:Generated_Source\PSoC6\pdl\drivers/peripheral/sysclk/cy_sysclk.h **** * Selects which clkHf input, or root mux, to configure.
1437:Generated_Source\PSoC6\pdl\drivers/peripheral/sysclk/cy_sysclk.h **** * See CLK_ROOT_SELECT registers, bits ROOT_MUX.
1438:Generated_Source\PSoC6\pdl\drivers/peripheral/sysclk/cy_sysclk.h **** * Used with functions \ref Cy_SysClk_ClkHfSetSource and \ref Cy_SysClk_ClkHfGetSource.
1439:Generated_Source\PSoC6\pdl\drivers/peripheral/sysclk/cy_sysclk.h **** */
1440:Generated_Source\PSoC6\pdl\drivers/peripheral/sysclk/cy_sysclk.h **** typedef enum
1441:Generated_Source\PSoC6\pdl\drivers/peripheral/sysclk/cy_sysclk.h **** {
1442:Generated_Source\PSoC6\pdl\drivers/peripheral/sysclk/cy_sysclk.h ****     CY_SYSCLK_CLKHF_IN_CLKPATH0  = 0U,  /**< clkHf input is Clock Path 0 */
1443:Generated_Source\PSoC6\pdl\drivers/peripheral/sysclk/cy_sysclk.h ****     CY_SYSCLK_CLKHF_IN_CLKPATH1  = 1U,  /**< clkHf input is Clock Path 1 */
ARM GAS  C:\Users\SimonChen\AppData\Local\Temp\ccD98YNQ.s 			page 30


1444:Generated_Source\PSoC6\pdl\drivers/peripheral/sysclk/cy_sysclk.h ****     CY_SYSCLK_CLKHF_IN_CLKPATH2  = 2U,  /**< clkHf input is Clock Path 2 */
1445:Generated_Source\PSoC6\pdl\drivers/peripheral/sysclk/cy_sysclk.h ****     CY_SYSCLK_CLKHF_IN_CLKPATH3  = 3U,  /**< clkHf input is Clock Path 3 */
1446:Generated_Source\PSoC6\pdl\drivers/peripheral/sysclk/cy_sysclk.h ****     CY_SYSCLK_CLKHF_IN_CLKPATH4  = 4U,  /**< clkHf input is Clock Path 4 */
1447:Generated_Source\PSoC6\pdl\drivers/peripheral/sysclk/cy_sysclk.h ****     CY_SYSCLK_CLKHF_IN_CLKPATH5  = 5U,  /**< clkHf input is Clock Path 5 */
1448:Generated_Source\PSoC6\pdl\drivers/peripheral/sysclk/cy_sysclk.h ****     CY_SYSCLK_CLKHF_IN_CLKPATH6  = 6U,  /**< clkHf input is Clock Path 6 */
1449:Generated_Source\PSoC6\pdl\drivers/peripheral/sysclk/cy_sysclk.h ****     CY_SYSCLK_CLKHF_IN_CLKPATH7  = 7U,  /**< clkHf input is Clock Path 7 */
1450:Generated_Source\PSoC6\pdl\drivers/peripheral/sysclk/cy_sysclk.h ****     CY_SYSCLK_CLKHF_IN_CLKPATH8  = 8U,  /**< clkHf input is Clock Path 8 */
1451:Generated_Source\PSoC6\pdl\drivers/peripheral/sysclk/cy_sysclk.h ****     CY_SYSCLK_CLKHF_IN_CLKPATH9  = 9U,  /**< clkHf input is Clock Path 9 */
1452:Generated_Source\PSoC6\pdl\drivers/peripheral/sysclk/cy_sysclk.h ****     CY_SYSCLK_CLKHF_IN_CLKPATH10 = 10U, /**< clkHf input is Clock Path 10 */
1453:Generated_Source\PSoC6\pdl\drivers/peripheral/sysclk/cy_sysclk.h ****     CY_SYSCLK_CLKHF_IN_CLKPATH11 = 11U, /**< clkHf input is Clock Path 11 */
1454:Generated_Source\PSoC6\pdl\drivers/peripheral/sysclk/cy_sysclk.h ****     CY_SYSCLK_CLKHF_IN_CLKPATH12 = 12U, /**< clkHf input is Clock Path 12 */
1455:Generated_Source\PSoC6\pdl\drivers/peripheral/sysclk/cy_sysclk.h ****     CY_SYSCLK_CLKHF_IN_CLKPATH13 = 13U, /**< clkHf input is Clock Path 13 */
1456:Generated_Source\PSoC6\pdl\drivers/peripheral/sysclk/cy_sysclk.h ****     CY_SYSCLK_CLKHF_IN_CLKPATH14 = 14U, /**< clkHf input is Clock Path 14 */
1457:Generated_Source\PSoC6\pdl\drivers/peripheral/sysclk/cy_sysclk.h ****     CY_SYSCLK_CLKHF_IN_CLKPATH15 = 15U, /**< clkHf input is Clock Path 15 */
1458:Generated_Source\PSoC6\pdl\drivers/peripheral/sysclk/cy_sysclk.h **** } cy_en_clkhf_in_sources_t;
1459:Generated_Source\PSoC6\pdl\drivers/peripheral/sysclk/cy_sysclk.h **** 
1460:Generated_Source\PSoC6\pdl\drivers/peripheral/sysclk/cy_sysclk.h **** 
1461:Generated_Source\PSoC6\pdl\drivers/peripheral/sysclk/cy_sysclk.h **** /**
1462:Generated_Source\PSoC6\pdl\drivers/peripheral/sysclk/cy_sysclk.h **** * clkHf divider values. See CLK_ROOT_SELECT registers, bits ROOT_DIV.
1463:Generated_Source\PSoC6\pdl\drivers/peripheral/sysclk/cy_sysclk.h **** * Used with functions \ref Cy_SysClk_ClkHfSetDivider and \ref Cy_SysClk_ClkHfGetDivider.
1464:Generated_Source\PSoC6\pdl\drivers/peripheral/sysclk/cy_sysclk.h **** */
1465:Generated_Source\PSoC6\pdl\drivers/peripheral/sysclk/cy_sysclk.h **** typedef enum
1466:Generated_Source\PSoC6\pdl\drivers/peripheral/sysclk/cy_sysclk.h **** {
1467:Generated_Source\PSoC6\pdl\drivers/peripheral/sysclk/cy_sysclk.h ****     CY_SYSCLK_CLKHF_NO_DIVIDE   = 0U,    /**< don't divide clkHf. */
1468:Generated_Source\PSoC6\pdl\drivers/peripheral/sysclk/cy_sysclk.h ****     CY_SYSCLK_CLKHF_DIVIDE_BY_2 = 1U,    /**< divide clkHf by 2 */
1469:Generated_Source\PSoC6\pdl\drivers/peripheral/sysclk/cy_sysclk.h ****     CY_SYSCLK_CLKHF_DIVIDE_BY_4 = 2U,    /**< divide clkHf by 4 */
1470:Generated_Source\PSoC6\pdl\drivers/peripheral/sysclk/cy_sysclk.h ****     CY_SYSCLK_CLKHF_DIVIDE_BY_8 = 3U     /**< divide clkHf by 8 */
1471:Generated_Source\PSoC6\pdl\drivers/peripheral/sysclk/cy_sysclk.h **** } cy_en_clkhf_dividers_t;
1472:Generated_Source\PSoC6\pdl\drivers/peripheral/sysclk/cy_sysclk.h **** 
1473:Generated_Source\PSoC6\pdl\drivers/peripheral/sysclk/cy_sysclk.h **** /**
1474:Generated_Source\PSoC6\pdl\drivers/peripheral/sysclk/cy_sysclk.h **** * clkHf clock supervisor input sources. See register CLK_CSV_HF_CTL[CSV_MUX].
1475:Generated_Source\PSoC6\pdl\drivers/peripheral/sysclk/cy_sysclk.h **** */
1476:Generated_Source\PSoC6\pdl\drivers/peripheral/sysclk/cy_sysclk.h **** typedef enum
1477:Generated_Source\PSoC6\pdl\drivers/peripheral/sysclk/cy_sysclk.h **** {
1478:Generated_Source\PSoC6\pdl\drivers/peripheral/sysclk/cy_sysclk.h ****     CY_SYSCLK_CLKHF_CSV_SUPERVISOR_IMO   = 0U,  /**< Supervising clock is the IMO. */
1479:Generated_Source\PSoC6\pdl\drivers/peripheral/sysclk/cy_sysclk.h ****     CY_SYSCLK_CLKHF_CSV_SUPERVISOR_EXT   = 1U,  /**< Supervising clock is the external clock */
1480:Generated_Source\PSoC6\pdl\drivers/peripheral/sysclk/cy_sysclk.h ****     CY_SYSCLK_CLKHF_CSV_SUPERVISOR_ALTHF = 2U   /**< Supervising clock is clk_althf */
1481:Generated_Source\PSoC6\pdl\drivers/peripheral/sysclk/cy_sysclk.h **** } cy_en_clkhf_csv_supervisor_clock_t;
1482:Generated_Source\PSoC6\pdl\drivers/peripheral/sysclk/cy_sysclk.h **** /** \} group_sysclk_clk_hf_enums */
1483:Generated_Source\PSoC6\pdl\drivers/peripheral/sysclk/cy_sysclk.h **** 
1484:Generated_Source\PSoC6\pdl\drivers/peripheral/sysclk/cy_sysclk.h **** /**
1485:Generated_Source\PSoC6\pdl\drivers/peripheral/sysclk/cy_sysclk.h **** * \addtogroup group_sysclk_clk_hf_structs
1486:Generated_Source\PSoC6\pdl\drivers/peripheral/sysclk/cy_sysclk.h **** * \{SupervisingWindow
1487:Generated_Source\PSoC6\pdl\drivers/peripheral/sysclk/cy_sysclk.h **** */
1488:Generated_Source\PSoC6\pdl\drivers/peripheral/sysclk/cy_sysclk.h **** /**
1489:Generated_Source\PSoC6\pdl\drivers/peripheral/sysclk/cy_sysclk.h **** * This structure is used to configure the clock supervisor for clkHf.
1490:Generated_Source\PSoC6\pdl\drivers/peripheral/sysclk/cy_sysclk.h **** */
1491:Generated_Source\PSoC6\pdl\drivers/peripheral/sysclk/cy_sysclk.h **** typedef struct
1492:Generated_Source\PSoC6\pdl\drivers/peripheral/sysclk/cy_sysclk.h **** {
1493:Generated_Source\PSoC6\pdl\drivers/peripheral/sysclk/cy_sysclk.h ****     cy_en_clkhf_csv_supervisor_clock_t supervisorClock; /**< \ref cy_en_clkhf_csv_supervisor_clock_
1494:Generated_Source\PSoC6\pdl\drivers/peripheral/sysclk/cy_sysclk.h ****     uint16_t supervisingWindow;                         /**< Number of supervising clock cycles */
1495:Generated_Source\PSoC6\pdl\drivers/peripheral/sysclk/cy_sysclk.h ****     bool enableFrequencyFaultDetection;                 /**< 1= enabled, 0= disabled */
1496:Generated_Source\PSoC6\pdl\drivers/peripheral/sysclk/cy_sysclk.h ****     uint16_t frequencyLowerLimit;                       /**< Lowest frequency in kHz that supervise
1497:Generated_Source\PSoC6\pdl\drivers/peripheral/sysclk/cy_sysclk.h ****     uint16_t frequencyUpperLimit;                       /**< Highest frequency in kHz that supervis
1498:Generated_Source\PSoC6\pdl\drivers/peripheral/sysclk/cy_sysclk.h ****     cy_en_csv_error_actions_t frequencyAction;          /**< \ref cy_en_csv_error_actions_t */
1499:Generated_Source\PSoC6\pdl\drivers/peripheral/sysclk/cy_sysclk.h ****     bool enableLossDetection;                           /**< 1= enabled, 0= disabled */
1500:Generated_Source\PSoC6\pdl\drivers/peripheral/sysclk/cy_sysclk.h ****     cy_en_csv_loss_window_t lossWindow;                 /**< \ref cy_en_csv_loss_window_t */
ARM GAS  C:\Users\SimonChen\AppData\Local\Temp\ccD98YNQ.s 			page 31


1501:Generated_Source\PSoC6\pdl\drivers/peripheral/sysclk/cy_sysclk.h ****     cy_en_csv_error_actions_t lossAction;               /**< \ref cy_en_csv_error_actions_t */
1502:Generated_Source\PSoC6\pdl\drivers/peripheral/sysclk/cy_sysclk.h **** } cy_stc_clkhf_csv_config_t;
1503:Generated_Source\PSoC6\pdl\drivers/peripheral/sysclk/cy_sysclk.h **** /** \} group_sysclk_clk_hf_structs */
1504:Generated_Source\PSoC6\pdl\drivers/peripheral/sysclk/cy_sysclk.h **** 
1505:Generated_Source\PSoC6\pdl\drivers/peripheral/sysclk/cy_sysclk.h **** /**
1506:Generated_Source\PSoC6\pdl\drivers/peripheral/sysclk/cy_sysclk.h **** * \addtogroup group_sysclk_clk_hf_funcs
1507:Generated_Source\PSoC6\pdl\drivers/peripheral/sysclk/cy_sysclk.h **** * \{
1508:Generated_Source\PSoC6\pdl\drivers/peripheral/sysclk/cy_sysclk.h **** */
1509:Generated_Source\PSoC6\pdl\drivers/peripheral/sysclk/cy_sysclk.h **** __STATIC_INLINE cy_en_sysclk_status_t Cy_SysClk_ClkHfEnable(uint32_t clkHf);
1510:Generated_Source\PSoC6\pdl\drivers/peripheral/sysclk/cy_sysclk.h **** __STATIC_INLINE cy_en_sysclk_status_t Cy_SysClk_ClkHfDisable(uint32_t clkHf);
1511:Generated_Source\PSoC6\pdl\drivers/peripheral/sysclk/cy_sysclk.h **** __STATIC_INLINE cy_en_sysclk_status_t Cy_SysClk_ClkHfSetSource(uint32_t clkHf, cy_en_clkhf_in_sourc
1512:Generated_Source\PSoC6\pdl\drivers/peripheral/sysclk/cy_sysclk.h **** __STATIC_INLINE cy_en_clkhf_in_sources_t Cy_SysClk_ClkHfGetSource(uint32_t clkHf);
1513:Generated_Source\PSoC6\pdl\drivers/peripheral/sysclk/cy_sysclk.h **** __STATIC_INLINE cy_en_sysclk_status_t Cy_SysClk_ClkHfSetDivider(uint32_t clkHf, cy_en_clkhf_divider
1514:Generated_Source\PSoC6\pdl\drivers/peripheral/sysclk/cy_sysclk.h **** __STATIC_INLINE cy_en_clkhf_dividers_t Cy_SysClk_ClkHfGetDivider(uint32_t clkHf);
1515:Generated_Source\PSoC6\pdl\drivers/peripheral/sysclk/cy_sysclk.h **** 
1516:Generated_Source\PSoC6\pdl\drivers/peripheral/sysclk/cy_sysclk.h **** 
1517:Generated_Source\PSoC6\pdl\drivers/peripheral/sysclk/cy_sysclk.h **** /*******************************************************************************
1518:Generated_Source\PSoC6\pdl\drivers/peripheral/sysclk/cy_sysclk.h **** * Function Name: Cy_SysClk_ClkHfEnable
1519:Generated_Source\PSoC6\pdl\drivers/peripheral/sysclk/cy_sysclk.h **** ****************************************************************************//**
1520:Generated_Source\PSoC6\pdl\drivers/peripheral/sysclk/cy_sysclk.h **** *
1521:Generated_Source\PSoC6\pdl\drivers/peripheral/sysclk/cy_sysclk.h **** * Enables the selected clkHf.
1522:Generated_Source\PSoC6\pdl\drivers/peripheral/sysclk/cy_sysclk.h **** *
1523:Generated_Source\PSoC6\pdl\drivers/peripheral/sysclk/cy_sysclk.h **** * \param clkHf Selects which clkHf to enable.
1524:Generated_Source\PSoC6\pdl\drivers/peripheral/sysclk/cy_sysclk.h **** *
1525:Generated_Source\PSoC6\pdl\drivers/peripheral/sysclk/cy_sysclk.h **** * \return \ref cy_en_sysclk_status_t
1526:Generated_Source\PSoC6\pdl\drivers/peripheral/sysclk/cy_sysclk.h **** *
1527:Generated_Source\PSoC6\pdl\drivers/peripheral/sysclk/cy_sysclk.h **** * \funcusage
1528:Generated_Source\PSoC6\pdl\drivers/peripheral/sysclk/cy_sysclk.h **** * \snippet sysclk/1.20/snippet/main.c snippet_Cy_SysClk_ClkHfEnable
1529:Generated_Source\PSoC6\pdl\drivers/peripheral/sysclk/cy_sysclk.h **** *
1530:Generated_Source\PSoC6\pdl\drivers/peripheral/sysclk/cy_sysclk.h **** *******************************************************************************/
1531:Generated_Source\PSoC6\pdl\drivers/peripheral/sysclk/cy_sysclk.h **** __STATIC_INLINE cy_en_sysclk_status_t Cy_SysClk_ClkHfEnable(uint32_t clkHf)
1532:Generated_Source\PSoC6\pdl\drivers/peripheral/sysclk/cy_sysclk.h **** {
1533:Generated_Source\PSoC6\pdl\drivers/peripheral/sysclk/cy_sysclk.h ****     cy_en_sysclk_status_t retVal = CY_SYSCLK_BAD_PARAM;
1534:Generated_Source\PSoC6\pdl\drivers/peripheral/sysclk/cy_sysclk.h ****     if (clkHf < CY_SRSS_NUM_HFROOT)
1535:Generated_Source\PSoC6\pdl\drivers/peripheral/sysclk/cy_sysclk.h ****     {
1536:Generated_Source\PSoC6\pdl\drivers/peripheral/sysclk/cy_sysclk.h ****         SRSS_CLK_ROOT_SELECT[clkHf] |= SRSS_CLK_ROOT_SELECT_ENABLE_Msk;
1537:Generated_Source\PSoC6\pdl\drivers/peripheral/sysclk/cy_sysclk.h ****         retVal = CY_SYSCLK_SUCCESS;
1538:Generated_Source\PSoC6\pdl\drivers/peripheral/sysclk/cy_sysclk.h ****     }
1539:Generated_Source\PSoC6\pdl\drivers/peripheral/sysclk/cy_sysclk.h ****     return (retVal);
1540:Generated_Source\PSoC6\pdl\drivers/peripheral/sysclk/cy_sysclk.h **** }
1541:Generated_Source\PSoC6\pdl\drivers/peripheral/sysclk/cy_sysclk.h **** 
1542:Generated_Source\PSoC6\pdl\drivers/peripheral/sysclk/cy_sysclk.h **** /*******************************************************************************
1543:Generated_Source\PSoC6\pdl\drivers/peripheral/sysclk/cy_sysclk.h **** * Function Name: Cy_SysClk_ClkHfDisable
1544:Generated_Source\PSoC6\pdl\drivers/peripheral/sysclk/cy_sysclk.h **** ****************************************************************************//**
1545:Generated_Source\PSoC6\pdl\drivers/peripheral/sysclk/cy_sysclk.h **** *
1546:Generated_Source\PSoC6\pdl\drivers/peripheral/sysclk/cy_sysclk.h **** * Disables the selected clkHf.
1547:Generated_Source\PSoC6\pdl\drivers/peripheral/sysclk/cy_sysclk.h **** *
1548:Generated_Source\PSoC6\pdl\drivers/peripheral/sysclk/cy_sysclk.h **** * \param clkHf Selects which clkHf to enable.
1549:Generated_Source\PSoC6\pdl\drivers/peripheral/sysclk/cy_sysclk.h **** *
1550:Generated_Source\PSoC6\pdl\drivers/peripheral/sysclk/cy_sysclk.h **** * \return \ref cy_en_sysclk_status_t
1551:Generated_Source\PSoC6\pdl\drivers/peripheral/sysclk/cy_sysclk.h **** *
1552:Generated_Source\PSoC6\pdl\drivers/peripheral/sysclk/cy_sysclk.h **** * \note clkHf[0] cannot be disabled.
1553:Generated_Source\PSoC6\pdl\drivers/peripheral/sysclk/cy_sysclk.h **** *
1554:Generated_Source\PSoC6\pdl\drivers/peripheral/sysclk/cy_sysclk.h **** * \funcusage
1555:Generated_Source\PSoC6\pdl\drivers/peripheral/sysclk/cy_sysclk.h **** * \snippet sysclk/1.20/snippet/main.c snippet_Cy_SysClk_ClkHfDisable
1556:Generated_Source\PSoC6\pdl\drivers/peripheral/sysclk/cy_sysclk.h **** *
1557:Generated_Source\PSoC6\pdl\drivers/peripheral/sysclk/cy_sysclk.h **** *******************************************************************************/
ARM GAS  C:\Users\SimonChen\AppData\Local\Temp\ccD98YNQ.s 			page 32


1558:Generated_Source\PSoC6\pdl\drivers/peripheral/sysclk/cy_sysclk.h **** __STATIC_INLINE cy_en_sysclk_status_t Cy_SysClk_ClkHfDisable(uint32_t clkHf)
1559:Generated_Source\PSoC6\pdl\drivers/peripheral/sysclk/cy_sysclk.h **** {
1560:Generated_Source\PSoC6\pdl\drivers/peripheral/sysclk/cy_sysclk.h ****     cy_en_sysclk_status_t retVal = CY_SYSCLK_BAD_PARAM;
1561:Generated_Source\PSoC6\pdl\drivers/peripheral/sysclk/cy_sysclk.h ****     if ((0UL < clkHf) /* prevent CLK_HF0 disabling */
1562:Generated_Source\PSoC6\pdl\drivers/peripheral/sysclk/cy_sysclk.h ****            && (clkHf < CY_SRSS_NUM_HFROOT))
1563:Generated_Source\PSoC6\pdl\drivers/peripheral/sysclk/cy_sysclk.h ****     {
1564:Generated_Source\PSoC6\pdl\drivers/peripheral/sysclk/cy_sysclk.h ****         SRSS_CLK_ROOT_SELECT[clkHf] &= ~SRSS_CLK_ROOT_SELECT_ENABLE_Msk;
1565:Generated_Source\PSoC6\pdl\drivers/peripheral/sysclk/cy_sysclk.h ****         retVal = CY_SYSCLK_SUCCESS;
1566:Generated_Source\PSoC6\pdl\drivers/peripheral/sysclk/cy_sysclk.h ****     }
1567:Generated_Source\PSoC6\pdl\drivers/peripheral/sysclk/cy_sysclk.h ****     return (retVal);
1568:Generated_Source\PSoC6\pdl\drivers/peripheral/sysclk/cy_sysclk.h **** }
1569:Generated_Source\PSoC6\pdl\drivers/peripheral/sysclk/cy_sysclk.h **** 
1570:Generated_Source\PSoC6\pdl\drivers/peripheral/sysclk/cy_sysclk.h **** /*******************************************************************************
1571:Generated_Source\PSoC6\pdl\drivers/peripheral/sysclk/cy_sysclk.h **** * Function Name: Cy_SysClk_ClkHfSetSource
1572:Generated_Source\PSoC6\pdl\drivers/peripheral/sysclk/cy_sysclk.h **** ****************************************************************************//**
1573:Generated_Source\PSoC6\pdl\drivers/peripheral/sysclk/cy_sysclk.h **** *
1574:Generated_Source\PSoC6\pdl\drivers/peripheral/sysclk/cy_sysclk.h **** * Selects the source of the selected clkHf.
1575:Generated_Source\PSoC6\pdl\drivers/peripheral/sysclk/cy_sysclk.h **** *
1576:Generated_Source\PSoC6\pdl\drivers/peripheral/sysclk/cy_sysclk.h **** * \param clkHf selects which clkHf mux to configure.
1577:Generated_Source\PSoC6\pdl\drivers/peripheral/sysclk/cy_sysclk.h **** *
1578:Generated_Source\PSoC6\pdl\drivers/peripheral/sysclk/cy_sysclk.h **** * \param source \ref cy_en_clkhf_in_sources_t
1579:Generated_Source\PSoC6\pdl\drivers/peripheral/sysclk/cy_sysclk.h **** *
1580:Generated_Source\PSoC6\pdl\drivers/peripheral/sysclk/cy_sysclk.h **** * \return \ref cy_en_sysclk_status_t
1581:Generated_Source\PSoC6\pdl\drivers/peripheral/sysclk/cy_sysclk.h **** *
1582:Generated_Source\PSoC6\pdl\drivers/peripheral/sysclk/cy_sysclk.h **** * \note 
1583:Generated_Source\PSoC6\pdl\drivers/peripheral/sysclk/cy_sysclk.h **** * Call \ref SystemCoreClockUpdate after this function calling 
1584:Generated_Source\PSoC6\pdl\drivers/peripheral/sysclk/cy_sysclk.h **** * if it affects the CLK_HF0 frequency.
1585:Generated_Source\PSoC6\pdl\drivers/peripheral/sysclk/cy_sysclk.h **** *
1586:Generated_Source\PSoC6\pdl\drivers/peripheral/sysclk/cy_sysclk.h **** * \note 
1587:Generated_Source\PSoC6\pdl\drivers/peripheral/sysclk/cy_sysclk.h **** * Call \ref Cy_SysLib_SetWaitStates before calling this function if
1588:Generated_Source\PSoC6\pdl\drivers/peripheral/sysclk/cy_sysclk.h **** * CLK_HF0 frequency is increasing.
1589:Generated_Source\PSoC6\pdl\drivers/peripheral/sysclk/cy_sysclk.h **** *
1590:Generated_Source\PSoC6\pdl\drivers/peripheral/sysclk/cy_sysclk.h **** * \note
1591:Generated_Source\PSoC6\pdl\drivers/peripheral/sysclk/cy_sysclk.h **** * Call \ref Cy_SysLib_SetWaitStates after calling this function if
1592:Generated_Source\PSoC6\pdl\drivers/peripheral/sysclk/cy_sysclk.h **** * CLK_HF0 frequency is decreasing.
1593:Generated_Source\PSoC6\pdl\drivers/peripheral/sysclk/cy_sysclk.h **** *
1594:Generated_Source\PSoC6\pdl\drivers/peripheral/sysclk/cy_sysclk.h **** * \funcusage
1595:Generated_Source\PSoC6\pdl\drivers/peripheral/sysclk/cy_sysclk.h **** * \snippet sysclk/1.20/snippet/main.c snippet_Cy_SysClk_ClkHfSetSource
1596:Generated_Source\PSoC6\pdl\drivers/peripheral/sysclk/cy_sysclk.h **** *
1597:Generated_Source\PSoC6\pdl\drivers/peripheral/sysclk/cy_sysclk.h **** *******************************************************************************/
1598:Generated_Source\PSoC6\pdl\drivers/peripheral/sysclk/cy_sysclk.h **** __STATIC_INLINE cy_en_sysclk_status_t Cy_SysClk_ClkHfSetSource(uint32_t clkHf, cy_en_clkhf_in_sourc
1599:Generated_Source\PSoC6\pdl\drivers/peripheral/sysclk/cy_sysclk.h **** {
1600:Generated_Source\PSoC6\pdl\drivers/peripheral/sysclk/cy_sysclk.h ****     cy_en_sysclk_status_t retVal = CY_SYSCLK_BAD_PARAM;
1601:Generated_Source\PSoC6\pdl\drivers/peripheral/sysclk/cy_sysclk.h ****     if ((clkHf < CY_SRSS_NUM_HFROOT) && (source <= CY_SYSCLK_CLKHF_IN_CLKPATH15))
1602:Generated_Source\PSoC6\pdl\drivers/peripheral/sysclk/cy_sysclk.h ****     {
1603:Generated_Source\PSoC6\pdl\drivers/peripheral/sysclk/cy_sysclk.h ****         CY_REG32_CLR_SET(SRSS_CLK_ROOT_SELECT[clkHf], SRSS_CLK_ROOT_SELECT_ROOT_MUX, source);
1604:Generated_Source\PSoC6\pdl\drivers/peripheral/sysclk/cy_sysclk.h ****         retVal = CY_SYSCLK_SUCCESS;
1605:Generated_Source\PSoC6\pdl\drivers/peripheral/sysclk/cy_sysclk.h ****     }
1606:Generated_Source\PSoC6\pdl\drivers/peripheral/sysclk/cy_sysclk.h ****     return (retVal);
1607:Generated_Source\PSoC6\pdl\drivers/peripheral/sysclk/cy_sysclk.h **** }
1608:Generated_Source\PSoC6\pdl\drivers/peripheral/sysclk/cy_sysclk.h **** 
1609:Generated_Source\PSoC6\pdl\drivers/peripheral/sysclk/cy_sysclk.h **** /*******************************************************************************
1610:Generated_Source\PSoC6\pdl\drivers/peripheral/sysclk/cy_sysclk.h **** * Function Name: Cy_SysClk_ClkHfGetSource
1611:Generated_Source\PSoC6\pdl\drivers/peripheral/sysclk/cy_sysclk.h **** ****************************************************************************//**
1612:Generated_Source\PSoC6\pdl\drivers/peripheral/sysclk/cy_sysclk.h **** *
1613:Generated_Source\PSoC6\pdl\drivers/peripheral/sysclk/cy_sysclk.h **** * Reports the source of the selected clkHf.
1614:Generated_Source\PSoC6\pdl\drivers/peripheral/sysclk/cy_sysclk.h **** *
ARM GAS  C:\Users\SimonChen\AppData\Local\Temp\ccD98YNQ.s 			page 33


1615:Generated_Source\PSoC6\pdl\drivers/peripheral/sysclk/cy_sysclk.h **** * \param clkHf selects which clkHf to get the source of.
1616:Generated_Source\PSoC6\pdl\drivers/peripheral/sysclk/cy_sysclk.h **** *
1617:Generated_Source\PSoC6\pdl\drivers/peripheral/sysclk/cy_sysclk.h **** * \return \ref cy_en_clkhf_in_sources_t
1618:Generated_Source\PSoC6\pdl\drivers/peripheral/sysclk/cy_sysclk.h **** *
1619:Generated_Source\PSoC6\pdl\drivers/peripheral/sysclk/cy_sysclk.h **** * \funcusage
1620:Generated_Source\PSoC6\pdl\drivers/peripheral/sysclk/cy_sysclk.h **** * \snippet sysclk/1.20/snippet/main.c snippet_Cy_SysClk_ClkHfSetSource
1621:Generated_Source\PSoC6\pdl\drivers/peripheral/sysclk/cy_sysclk.h **** *
1622:Generated_Source\PSoC6\pdl\drivers/peripheral/sysclk/cy_sysclk.h **** *******************************************************************************/
1623:Generated_Source\PSoC6\pdl\drivers/peripheral/sysclk/cy_sysclk.h **** __STATIC_INLINE cy_en_clkhf_in_sources_t Cy_SysClk_ClkHfGetSource(uint32_t clkHf)
1624:Generated_Source\PSoC6\pdl\drivers/peripheral/sysclk/cy_sysclk.h **** {
1625:Generated_Source\PSoC6\pdl\drivers/peripheral/sysclk/cy_sysclk.h ****     CY_ASSERT_L1(clkHf < CY_SRSS_NUM_HFROOT);
1626:Generated_Source\PSoC6\pdl\drivers/peripheral/sysclk/cy_sysclk.h ****     return (cy_en_clkhf_in_sources_t)(_FLD2VAL(SRSS_CLK_ROOT_SELECT_ROOT_MUX, SRSS_CLK_ROOT_SELECT[
1627:Generated_Source\PSoC6\pdl\drivers/peripheral/sysclk/cy_sysclk.h **** }
1628:Generated_Source\PSoC6\pdl\drivers/peripheral/sysclk/cy_sysclk.h **** 
1629:Generated_Source\PSoC6\pdl\drivers/peripheral/sysclk/cy_sysclk.h **** /*******************************************************************************
1630:Generated_Source\PSoC6\pdl\drivers/peripheral/sysclk/cy_sysclk.h **** * Function Name: Cy_SysClk_ClkHfSetDivider
1631:Generated_Source\PSoC6\pdl\drivers/peripheral/sysclk/cy_sysclk.h **** ****************************************************************************//**
1632:Generated_Source\PSoC6\pdl\drivers/peripheral/sysclk/cy_sysclk.h **** *
1633:Generated_Source\PSoC6\pdl\drivers/peripheral/sysclk/cy_sysclk.h **** * Sets the pre-divider for a clkHf.
1634:Generated_Source\PSoC6\pdl\drivers/peripheral/sysclk/cy_sysclk.h **** *
1635:Generated_Source\PSoC6\pdl\drivers/peripheral/sysclk/cy_sysclk.h **** * \param clkHf selects which clkHf divider to configure.
1636:Generated_Source\PSoC6\pdl\drivers/peripheral/sysclk/cy_sysclk.h **** *
1637:Generated_Source\PSoC6\pdl\drivers/peripheral/sysclk/cy_sysclk.h **** * \param divider \ref cy_en_clkhf_dividers_t
1638:Generated_Source\PSoC6\pdl\drivers/peripheral/sysclk/cy_sysclk.h **** *
1639:Generated_Source\PSoC6\pdl\drivers/peripheral/sysclk/cy_sysclk.h **** * \return \ref cy_en_sysclk_status_t
1640:Generated_Source\PSoC6\pdl\drivers/peripheral/sysclk/cy_sysclk.h **** *
1641:Generated_Source\PSoC6\pdl\drivers/peripheral/sysclk/cy_sysclk.h **** * \note Also call \ref Cy_SysClk_ClkHfSetSource to set the clkHf source.
1642:Generated_Source\PSoC6\pdl\drivers/peripheral/sysclk/cy_sysclk.h **** *
1643:Generated_Source\PSoC6\pdl\drivers/peripheral/sysclk/cy_sysclk.h **** * \note 
1644:Generated_Source\PSoC6\pdl\drivers/peripheral/sysclk/cy_sysclk.h **** * Call \ref SystemCoreClockUpdate after this function calling 
1645:Generated_Source\PSoC6\pdl\drivers/peripheral/sysclk/cy_sysclk.h **** * if it affects the CLK_HF0 frequency.
1646:Generated_Source\PSoC6\pdl\drivers/peripheral/sysclk/cy_sysclk.h **** *
1647:Generated_Source\PSoC6\pdl\drivers/peripheral/sysclk/cy_sysclk.h **** * \note 
1648:Generated_Source\PSoC6\pdl\drivers/peripheral/sysclk/cy_sysclk.h **** * Call \ref Cy_SysLib_SetWaitStates before calling this function if
1649:Generated_Source\PSoC6\pdl\drivers/peripheral/sysclk/cy_sysclk.h **** * CLK_HF0 frequency is increasing.
1650:Generated_Source\PSoC6\pdl\drivers/peripheral/sysclk/cy_sysclk.h **** *
1651:Generated_Source\PSoC6\pdl\drivers/peripheral/sysclk/cy_sysclk.h **** * \note
1652:Generated_Source\PSoC6\pdl\drivers/peripheral/sysclk/cy_sysclk.h **** * Call \ref Cy_SysLib_SetWaitStates after calling this function if
1653:Generated_Source\PSoC6\pdl\drivers/peripheral/sysclk/cy_sysclk.h **** * CLK_HF0 frequency is decreasing.
1654:Generated_Source\PSoC6\pdl\drivers/peripheral/sysclk/cy_sysclk.h **** *
1655:Generated_Source\PSoC6\pdl\drivers/peripheral/sysclk/cy_sysclk.h **** * \funcusage
1656:Generated_Source\PSoC6\pdl\drivers/peripheral/sysclk/cy_sysclk.h **** * \snippet sysclk/1.20/snippet/main.c snippet_Cy_SysClk_ClkHfSetDivider
1657:Generated_Source\PSoC6\pdl\drivers/peripheral/sysclk/cy_sysclk.h **** *
1658:Generated_Source\PSoC6\pdl\drivers/peripheral/sysclk/cy_sysclk.h **** *******************************************************************************/
1659:Generated_Source\PSoC6\pdl\drivers/peripheral/sysclk/cy_sysclk.h **** __STATIC_INLINE cy_en_sysclk_status_t Cy_SysClk_ClkHfSetDivider(uint32_t clkHf, cy_en_clkhf_divider
1660:Generated_Source\PSoC6\pdl\drivers/peripheral/sysclk/cy_sysclk.h **** {
1661:Generated_Source\PSoC6\pdl\drivers/peripheral/sysclk/cy_sysclk.h ****     cy_en_sysclk_status_t retVal = CY_SYSCLK_BAD_PARAM;
1662:Generated_Source\PSoC6\pdl\drivers/peripheral/sysclk/cy_sysclk.h ****     if ((clkHf < CY_SRSS_NUM_HFROOT) && (divider <= CY_SYSCLK_CLKHF_DIVIDE_BY_8))
1663:Generated_Source\PSoC6\pdl\drivers/peripheral/sysclk/cy_sysclk.h ****     {
1664:Generated_Source\PSoC6\pdl\drivers/peripheral/sysclk/cy_sysclk.h ****         CY_REG32_CLR_SET(SRSS_CLK_ROOT_SELECT[clkHf], SRSS_CLK_ROOT_SELECT_ROOT_DIV, divider);
1665:Generated_Source\PSoC6\pdl\drivers/peripheral/sysclk/cy_sysclk.h ****         retVal = CY_SYSCLK_SUCCESS;
1666:Generated_Source\PSoC6\pdl\drivers/peripheral/sysclk/cy_sysclk.h ****     }
1667:Generated_Source\PSoC6\pdl\drivers/peripheral/sysclk/cy_sysclk.h ****     return (retVal);
1668:Generated_Source\PSoC6\pdl\drivers/peripheral/sysclk/cy_sysclk.h **** }
1669:Generated_Source\PSoC6\pdl\drivers/peripheral/sysclk/cy_sysclk.h **** 
1670:Generated_Source\PSoC6\pdl\drivers/peripheral/sysclk/cy_sysclk.h **** /*******************************************************************************
1671:Generated_Source\PSoC6\pdl\drivers/peripheral/sysclk/cy_sysclk.h **** * Function Name: Cy_SysClk_ClkHfGetDivider
ARM GAS  C:\Users\SimonChen\AppData\Local\Temp\ccD98YNQ.s 			page 34


1672:Generated_Source\PSoC6\pdl\drivers/peripheral/sysclk/cy_sysclk.h **** ****************************************************************************//**
1673:Generated_Source\PSoC6\pdl\drivers/peripheral/sysclk/cy_sysclk.h **** *
1674:Generated_Source\PSoC6\pdl\drivers/peripheral/sysclk/cy_sysclk.h **** * Reports the pre-divider value for a clkHf.
1675:Generated_Source\PSoC6\pdl\drivers/peripheral/sysclk/cy_sysclk.h **** *
1676:Generated_Source\PSoC6\pdl\drivers/peripheral/sysclk/cy_sysclk.h **** * \param clkHf selects which clkHf to check divider of.
1677:Generated_Source\PSoC6\pdl\drivers/peripheral/sysclk/cy_sysclk.h **** *
1678:Generated_Source\PSoC6\pdl\drivers/peripheral/sysclk/cy_sysclk.h **** * \return \ref cy_en_clkhf_dividers_t
1679:Generated_Source\PSoC6\pdl\drivers/peripheral/sysclk/cy_sysclk.h **** *
1680:Generated_Source\PSoC6\pdl\drivers/peripheral/sysclk/cy_sysclk.h **** * \funcusage
1681:Generated_Source\PSoC6\pdl\drivers/peripheral/sysclk/cy_sysclk.h **** * \snippet sysclk/1.20/snippet/main.c snippet_Cy_SysClk_ClkHfSetDivider
1682:Generated_Source\PSoC6\pdl\drivers/peripheral/sysclk/cy_sysclk.h **** *
1683:Generated_Source\PSoC6\pdl\drivers/peripheral/sysclk/cy_sysclk.h **** *******************************************************************************/
1684:Generated_Source\PSoC6\pdl\drivers/peripheral/sysclk/cy_sysclk.h **** __STATIC_INLINE cy_en_clkhf_dividers_t Cy_SysClk_ClkHfGetDivider(uint32_t clkHf)
1685:Generated_Source\PSoC6\pdl\drivers/peripheral/sysclk/cy_sysclk.h **** {
1686:Generated_Source\PSoC6\pdl\drivers/peripheral/sysclk/cy_sysclk.h ****     CY_ASSERT_L1(clkHf < CY_SRSS_NUM_HFROOT);
1687:Generated_Source\PSoC6\pdl\drivers/peripheral/sysclk/cy_sysclk.h ****     return (cy_en_clkhf_dividers_t)(_FLD2VAL(SRSS_CLK_ROOT_SELECT_ROOT_DIV, SRSS_CLK_ROOT_SELECT[cl
1688:Generated_Source\PSoC6\pdl\drivers/peripheral/sysclk/cy_sysclk.h **** }
1689:Generated_Source\PSoC6\pdl\drivers/peripheral/sysclk/cy_sysclk.h **** /** \} group_sysclk_clk_hf_funcs */
1690:Generated_Source\PSoC6\pdl\drivers/peripheral/sysclk/cy_sysclk.h **** 
1691:Generated_Source\PSoC6\pdl\drivers/peripheral/sysclk/cy_sysclk.h **** 
1692:Generated_Source\PSoC6\pdl\drivers/peripheral/sysclk/cy_sysclk.h **** /* ========================================================================== */
1693:Generated_Source\PSoC6\pdl\drivers/peripheral/sysclk/cy_sysclk.h **** /* =========================    clk_fast SECTION    ========================= */
1694:Generated_Source\PSoC6\pdl\drivers/peripheral/sysclk/cy_sysclk.h **** /* ========================================================================== */
1695:Generated_Source\PSoC6\pdl\drivers/peripheral/sysclk/cy_sysclk.h **** /**
1696:Generated_Source\PSoC6\pdl\drivers/peripheral/sysclk/cy_sysclk.h **** * \addtogroup group_sysclk_clk_fast_funcs
1697:Generated_Source\PSoC6\pdl\drivers/peripheral/sysclk/cy_sysclk.h **** * \{
1698:Generated_Source\PSoC6\pdl\drivers/peripheral/sysclk/cy_sysclk.h **** */
1699:Generated_Source\PSoC6\pdl\drivers/peripheral/sysclk/cy_sysclk.h **** __STATIC_INLINE void Cy_SysClk_ClkFastSetDivider(uint8_t divider);
1700:Generated_Source\PSoC6\pdl\drivers/peripheral/sysclk/cy_sysclk.h **** __STATIC_INLINE uint8_t Cy_SysClk_ClkFastGetDivider(void);
1701:Generated_Source\PSoC6\pdl\drivers/peripheral/sysclk/cy_sysclk.h **** 
1702:Generated_Source\PSoC6\pdl\drivers/peripheral/sysclk/cy_sysclk.h **** /*******************************************************************************
1703:Generated_Source\PSoC6\pdl\drivers/peripheral/sysclk/cy_sysclk.h **** * Function Name: Cy_SysClk_ClkFastSetDivider
1704:Generated_Source\PSoC6\pdl\drivers/peripheral/sysclk/cy_sysclk.h **** ****************************************************************************//**
1705:Generated_Source\PSoC6\pdl\drivers/peripheral/sysclk/cy_sysclk.h **** *
1706:Generated_Source\PSoC6\pdl\drivers/peripheral/sysclk/cy_sysclk.h **** * Sets the clock divider for the fast clock, which sources the main processor.
1707:Generated_Source\PSoC6\pdl\drivers/peripheral/sysclk/cy_sysclk.h **** * The source of this divider is clkHf[0].
1708:Generated_Source\PSoC6\pdl\drivers/peripheral/sysclk/cy_sysclk.h **** *
1709:Generated_Source\PSoC6\pdl\drivers/peripheral/sysclk/cy_sysclk.h **** * \param divider divider value between 0 and 255.
1710:Generated_Source\PSoC6\pdl\drivers/peripheral/sysclk/cy_sysclk.h **** * Causes integer division of (divider value + 1), or division by 1 to 256.
1711:Generated_Source\PSoC6\pdl\drivers/peripheral/sysclk/cy_sysclk.h **** *
1712:Generated_Source\PSoC6\pdl\drivers/peripheral/sysclk/cy_sysclk.h **** * \note 
1713:Generated_Source\PSoC6\pdl\drivers/peripheral/sysclk/cy_sysclk.h **** * Call \ref SystemCoreClockUpdate after this function calling.
1714:Generated_Source\PSoC6\pdl\drivers/peripheral/sysclk/cy_sysclk.h **** *
1715:Generated_Source\PSoC6\pdl\drivers/peripheral/sysclk/cy_sysclk.h **** * \note 
1716:Generated_Source\PSoC6\pdl\drivers/peripheral/sysclk/cy_sysclk.h **** * Call \ref Cy_SysLib_SetWaitStates before calling this function if
1717:Generated_Source\PSoC6\pdl\drivers/peripheral/sysclk/cy_sysclk.h **** * CLK_FAST frequency is increasing.
1718:Generated_Source\PSoC6\pdl\drivers/peripheral/sysclk/cy_sysclk.h **** *
1719:Generated_Source\PSoC6\pdl\drivers/peripheral/sysclk/cy_sysclk.h **** * \note
1720:Generated_Source\PSoC6\pdl\drivers/peripheral/sysclk/cy_sysclk.h **** * Call \ref Cy_SysLib_SetWaitStates after calling this function if
1721:Generated_Source\PSoC6\pdl\drivers/peripheral/sysclk/cy_sysclk.h **** * CLK_FAST frequency is decreasing.
1722:Generated_Source\PSoC6\pdl\drivers/peripheral/sysclk/cy_sysclk.h **** *
1723:Generated_Source\PSoC6\pdl\drivers/peripheral/sysclk/cy_sysclk.h **** * \funcusage
1724:Generated_Source\PSoC6\pdl\drivers/peripheral/sysclk/cy_sysclk.h **** * \snippet sysclk/1.20/snippet/main.c snippet_Cy_SysClk_ClkFastSetDivider
1725:Generated_Source\PSoC6\pdl\drivers/peripheral/sysclk/cy_sysclk.h **** *
1726:Generated_Source\PSoC6\pdl\drivers/peripheral/sysclk/cy_sysclk.h **** *******************************************************************************/
1727:Generated_Source\PSoC6\pdl\drivers/peripheral/sysclk/cy_sysclk.h **** __STATIC_INLINE void Cy_SysClk_ClkFastSetDivider(uint8_t divider)
1728:Generated_Source\PSoC6\pdl\drivers/peripheral/sysclk/cy_sysclk.h **** {
ARM GAS  C:\Users\SimonChen\AppData\Local\Temp\ccD98YNQ.s 			page 35


1729:Generated_Source\PSoC6\pdl\drivers/peripheral/sysclk/cy_sysclk.h ****     CY_REG32_CLR_SET(CPUSS_CM4_CLOCK_CTL, CPUSS_CM4_CLOCK_CTL_FAST_INT_DIV, divider);
1730:Generated_Source\PSoC6\pdl\drivers/peripheral/sysclk/cy_sysclk.h **** }
1731:Generated_Source\PSoC6\pdl\drivers/peripheral/sysclk/cy_sysclk.h **** 
1732:Generated_Source\PSoC6\pdl\drivers/peripheral/sysclk/cy_sysclk.h **** /*******************************************************************************
1733:Generated_Source\PSoC6\pdl\drivers/peripheral/sysclk/cy_sysclk.h **** * Function Name: Cy_SysClk_ClkFastGetDivider
1734:Generated_Source\PSoC6\pdl\drivers/peripheral/sysclk/cy_sysclk.h **** ****************************************************************************//**
1735:Generated_Source\PSoC6\pdl\drivers/peripheral/sysclk/cy_sysclk.h **** *
1736:Generated_Source\PSoC6\pdl\drivers/peripheral/sysclk/cy_sysclk.h **** * Returns the clock divider for the fast clock.
1737:Generated_Source\PSoC6\pdl\drivers/peripheral/sysclk/cy_sysclk.h **** *
1738:Generated_Source\PSoC6\pdl\drivers/peripheral/sysclk/cy_sysclk.h **** * \return The divider value for the fast clock.
1739:Generated_Source\PSoC6\pdl\drivers/peripheral/sysclk/cy_sysclk.h **** * The integer division done is by (divider value + 1), or division by 1 to 256.
1740:Generated_Source\PSoC6\pdl\drivers/peripheral/sysclk/cy_sysclk.h **** *
1741:Generated_Source\PSoC6\pdl\drivers/peripheral/sysclk/cy_sysclk.h **** * \funcusage
1742:Generated_Source\PSoC6\pdl\drivers/peripheral/sysclk/cy_sysclk.h **** * \snippet sysclk/1.20/snippet/main.c snippet_Cy_SysClk_ClkFastSetDivider
1743:Generated_Source\PSoC6\pdl\drivers/peripheral/sysclk/cy_sysclk.h **** *
1744:Generated_Source\PSoC6\pdl\drivers/peripheral/sysclk/cy_sysclk.h **** *******************************************************************************/
1745:Generated_Source\PSoC6\pdl\drivers/peripheral/sysclk/cy_sysclk.h **** __STATIC_INLINE uint8_t Cy_SysClk_ClkFastGetDivider(void)
1746:Generated_Source\PSoC6\pdl\drivers/peripheral/sysclk/cy_sysclk.h **** {
1747:Generated_Source\PSoC6\pdl\drivers/peripheral/sysclk/cy_sysclk.h ****     return ((uint8_t)_FLD2VAL(CPUSS_CM4_CLOCK_CTL_FAST_INT_DIV, CPUSS_CM4_CLOCK_CTL));
1748:Generated_Source\PSoC6\pdl\drivers/peripheral/sysclk/cy_sysclk.h **** }
1749:Generated_Source\PSoC6\pdl\drivers/peripheral/sysclk/cy_sysclk.h **** /** \} group_sysclk_clk_fast_funcs */
1750:Generated_Source\PSoC6\pdl\drivers/peripheral/sysclk/cy_sysclk.h **** 
1751:Generated_Source\PSoC6\pdl\drivers/peripheral/sysclk/cy_sysclk.h **** 
1752:Generated_Source\PSoC6\pdl\drivers/peripheral/sysclk/cy_sysclk.h **** /* ========================================================================== */
1753:Generated_Source\PSoC6\pdl\drivers/peripheral/sysclk/cy_sysclk.h **** /* ========================    clk_peri SECTION    ========================== */
1754:Generated_Source\PSoC6\pdl\drivers/peripheral/sysclk/cy_sysclk.h **** /* ========================================================================== */
1755:Generated_Source\PSoC6\pdl\drivers/peripheral/sysclk/cy_sysclk.h **** /**
1756:Generated_Source\PSoC6\pdl\drivers/peripheral/sysclk/cy_sysclk.h **** * \addtogroup group_sysclk_clk_peri_funcs
1757:Generated_Source\PSoC6\pdl\drivers/peripheral/sysclk/cy_sysclk.h **** * \{
1758:Generated_Source\PSoC6\pdl\drivers/peripheral/sysclk/cy_sysclk.h **** */
1759:Generated_Source\PSoC6\pdl\drivers/peripheral/sysclk/cy_sysclk.h **** __STATIC_INLINE void Cy_SysClk_ClkPeriSetDivider(uint8_t divider);
1760:Generated_Source\PSoC6\pdl\drivers/peripheral/sysclk/cy_sysclk.h **** __STATIC_INLINE uint8_t Cy_SysClk_ClkPeriGetDivider(void);
1761:Generated_Source\PSoC6\pdl\drivers/peripheral/sysclk/cy_sysclk.h **** 
1762:Generated_Source\PSoC6\pdl\drivers/peripheral/sysclk/cy_sysclk.h **** /*******************************************************************************
1763:Generated_Source\PSoC6\pdl\drivers/peripheral/sysclk/cy_sysclk.h **** * Function Name: Cy_SysClk_ClkPeriSetDivider
1764:Generated_Source\PSoC6\pdl\drivers/peripheral/sysclk/cy_sysclk.h **** ****************************************************************************//**
1765:Generated_Source\PSoC6\pdl\drivers/peripheral/sysclk/cy_sysclk.h **** *
1766:Generated_Source\PSoC6\pdl\drivers/peripheral/sysclk/cy_sysclk.h **** * Sets the clock divider for the peripheral clock tree. All peripheral clock
1767:Generated_Source\PSoC6\pdl\drivers/peripheral/sysclk/cy_sysclk.h **** * dividers are sourced from this clock. Also the Cortex M0+ clock divider is
1768:Generated_Source\PSoC6\pdl\drivers/peripheral/sysclk/cy_sysclk.h **** * sourced from this clock. The source of this divider is clkHf[0]
1769:Generated_Source\PSoC6\pdl\drivers/peripheral/sysclk/cy_sysclk.h **** *
1770:Generated_Source\PSoC6\pdl\drivers/peripheral/sysclk/cy_sysclk.h **** * \param divider divider value between 0 and 255
1771:Generated_Source\PSoC6\pdl\drivers/peripheral/sysclk/cy_sysclk.h **** * Causes integer division of (divider value + 1), or division by 1 to 256.
1772:Generated_Source\PSoC6\pdl\drivers/peripheral/sysclk/cy_sysclk.h **** *
1773:Generated_Source\PSoC6\pdl\drivers/peripheral/sysclk/cy_sysclk.h **** * \note 
1774:Generated_Source\PSoC6\pdl\drivers/peripheral/sysclk/cy_sysclk.h **** * Call \ref SystemCoreClockUpdate after this function calling.
1775:Generated_Source\PSoC6\pdl\drivers/peripheral/sysclk/cy_sysclk.h **** *
1776:Generated_Source\PSoC6\pdl\drivers/peripheral/sysclk/cy_sysclk.h **** * \funcusage
1777:Generated_Source\PSoC6\pdl\drivers/peripheral/sysclk/cy_sysclk.h **** * \snippet sysclk/1.20/snippet/main.c snippet_Cy_SysClk_ClkPeriSetDivider
1778:Generated_Source\PSoC6\pdl\drivers/peripheral/sysclk/cy_sysclk.h **** *
1779:Generated_Source\PSoC6\pdl\drivers/peripheral/sysclk/cy_sysclk.h **** *******************************************************************************/
1780:Generated_Source\PSoC6\pdl\drivers/peripheral/sysclk/cy_sysclk.h **** __STATIC_INLINE void Cy_SysClk_ClkPeriSetDivider(uint8_t divider)
1781:Generated_Source\PSoC6\pdl\drivers/peripheral/sysclk/cy_sysclk.h **** {
1782:Generated_Source\PSoC6\pdl\drivers/peripheral/sysclk/cy_sysclk.h ****     CY_REG32_CLR_SET(CPUSS_CM0_CLOCK_CTL, CPUSS_CM0_CLOCK_CTL_PERI_INT_DIV, divider);
1783:Generated_Source\PSoC6\pdl\drivers/peripheral/sysclk/cy_sysclk.h **** }
1784:Generated_Source\PSoC6\pdl\drivers/peripheral/sysclk/cy_sysclk.h **** 
1785:Generated_Source\PSoC6\pdl\drivers/peripheral/sysclk/cy_sysclk.h **** /*******************************************************************************
ARM GAS  C:\Users\SimonChen\AppData\Local\Temp\ccD98YNQ.s 			page 36


1786:Generated_Source\PSoC6\pdl\drivers/peripheral/sysclk/cy_sysclk.h **** * Function Name: Cy_SysClk_ClkPeriGetDivider
1787:Generated_Source\PSoC6\pdl\drivers/peripheral/sysclk/cy_sysclk.h **** ****************************************************************************//**
1788:Generated_Source\PSoC6\pdl\drivers/peripheral/sysclk/cy_sysclk.h **** *
1789:Generated_Source\PSoC6\pdl\drivers/peripheral/sysclk/cy_sysclk.h **** * Returns the clock divider of the peripheral (peri) clock.
1790:Generated_Source\PSoC6\pdl\drivers/peripheral/sysclk/cy_sysclk.h **** *
1791:Generated_Source\PSoC6\pdl\drivers/peripheral/sysclk/cy_sysclk.h **** * \return The divider value.
1792:Generated_Source\PSoC6\pdl\drivers/peripheral/sysclk/cy_sysclk.h **** * The integer division done is by (divider value + 1), or division by 1 to 256.
1793:Generated_Source\PSoC6\pdl\drivers/peripheral/sysclk/cy_sysclk.h **** *
1794:Generated_Source\PSoC6\pdl\drivers/peripheral/sysclk/cy_sysclk.h **** * \funcusage
1795:Generated_Source\PSoC6\pdl\drivers/peripheral/sysclk/cy_sysclk.h **** * \snippet sysclk/1.20/snippet/main.c snippet_Cy_SysClk_ClkPeriSetDivider
1796:Generated_Source\PSoC6\pdl\drivers/peripheral/sysclk/cy_sysclk.h **** *
1797:Generated_Source\PSoC6\pdl\drivers/peripheral/sysclk/cy_sysclk.h **** *******************************************************************************/
1798:Generated_Source\PSoC6\pdl\drivers/peripheral/sysclk/cy_sysclk.h **** __STATIC_INLINE uint8_t Cy_SysClk_ClkPeriGetDivider(void)
1799:Generated_Source\PSoC6\pdl\drivers/peripheral/sysclk/cy_sysclk.h **** {
1800:Generated_Source\PSoC6\pdl\drivers/peripheral/sysclk/cy_sysclk.h ****     return ((uint8_t)_FLD2VAL(CPUSS_CM0_CLOCK_CTL_PERI_INT_DIV, CPUSS_CM0_CLOCK_CTL));
1801:Generated_Source\PSoC6\pdl\drivers/peripheral/sysclk/cy_sysclk.h **** }
1802:Generated_Source\PSoC6\pdl\drivers/peripheral/sysclk/cy_sysclk.h **** /** \} group_sysclk_clk_peri_funcs */
1803:Generated_Source\PSoC6\pdl\drivers/peripheral/sysclk/cy_sysclk.h **** 
1804:Generated_Source\PSoC6\pdl\drivers/peripheral/sysclk/cy_sysclk.h **** 
1805:Generated_Source\PSoC6\pdl\drivers/peripheral/sysclk/cy_sysclk.h **** /* ========================================================================== */
1806:Generated_Source\PSoC6\pdl\drivers/peripheral/sysclk/cy_sysclk.h **** /* =====================    clk_peripherals SECTION    ====================== */
1807:Generated_Source\PSoC6\pdl\drivers/peripheral/sysclk/cy_sysclk.h **** /* ========================================================================== */
1808:Generated_Source\PSoC6\pdl\drivers/peripheral/sysclk/cy_sysclk.h **** /**
1809:Generated_Source\PSoC6\pdl\drivers/peripheral/sysclk/cy_sysclk.h **** * \addtogroup group_sysclk_clk_peripheral_enums
1810:Generated_Source\PSoC6\pdl\drivers/peripheral/sysclk/cy_sysclk.h **** * \{
1811:Generated_Source\PSoC6\pdl\drivers/peripheral/sysclk/cy_sysclk.h **** */
1812:Generated_Source\PSoC6\pdl\drivers/peripheral/sysclk/cy_sysclk.h **** /** Programmable clock divider types */
1813:Generated_Source\PSoC6\pdl\drivers/peripheral/sysclk/cy_sysclk.h **** typedef enum
1814:Generated_Source\PSoC6\pdl\drivers/peripheral/sysclk/cy_sysclk.h **** {
1815:Generated_Source\PSoC6\pdl\drivers/peripheral/sysclk/cy_sysclk.h ****     CY_SYSCLK_DIV_8_BIT    = 0U, /**< Divider Type is an 8 bit divider */
1816:Generated_Source\PSoC6\pdl\drivers/peripheral/sysclk/cy_sysclk.h ****     CY_SYSCLK_DIV_16_BIT   = 1U, /**< Divider Type is a 16 bit divider */
1817:Generated_Source\PSoC6\pdl\drivers/peripheral/sysclk/cy_sysclk.h ****     CY_SYSCLK_DIV_16_5_BIT = 2U, /**< Divider Type is a 16.5 bit fractional divider */
1818:Generated_Source\PSoC6\pdl\drivers/peripheral/sysclk/cy_sysclk.h ****     CY_SYSCLK_DIV_24_5_BIT = 3U  /**< Divider Type is a 24.5 bit fractional divider */
1819:Generated_Source\PSoC6\pdl\drivers/peripheral/sysclk/cy_sysclk.h **** } cy_en_divider_types_t;
1820:Generated_Source\PSoC6\pdl\drivers/peripheral/sysclk/cy_sysclk.h **** /** \} group_sysclk_clk_peripheral_enums */
1821:Generated_Source\PSoC6\pdl\drivers/peripheral/sysclk/cy_sysclk.h **** 
1822:Generated_Source\PSoC6\pdl\drivers/peripheral/sysclk/cy_sysclk.h **** /**
1823:Generated_Source\PSoC6\pdl\drivers/peripheral/sysclk/cy_sysclk.h **** * \addtogroup group_sysclk_clk_peripheral_funcs
1824:Generated_Source\PSoC6\pdl\drivers/peripheral/sysclk/cy_sysclk.h **** * \{
1825:Generated_Source\PSoC6\pdl\drivers/peripheral/sysclk/cy_sysclk.h **** */
1826:Generated_Source\PSoC6\pdl\drivers/peripheral/sysclk/cy_sysclk.h **** __STATIC_INLINE cy_en_sysclk_status_t Cy_SysClk_PeriphSetDivider(cy_en_divider_types_t dividerType,
1827:Generated_Source\PSoC6\pdl\drivers/peripheral/sysclk/cy_sysclk.h **** __STATIC_INLINE uint32_t Cy_SysClk_PeriphGetDivider(cy_en_divider_types_t dividerType, uint32_t div
1828:Generated_Source\PSoC6\pdl\drivers/peripheral/sysclk/cy_sysclk.h **** __STATIC_INLINE cy_en_sysclk_status_t Cy_SysClk_PeriphSetFracDivider(cy_en_divider_types_t dividerT
1829:Generated_Source\PSoC6\pdl\drivers/peripheral/sysclk/cy_sysclk.h **** __STATIC_INLINE void Cy_SysClk_PeriphGetFracDivider(cy_en_divider_types_t dividerType, uint32_t div
1830:Generated_Source\PSoC6\pdl\drivers/peripheral/sysclk/cy_sysclk.h **** __STATIC_INLINE cy_en_sysclk_status_t Cy_SysClk_PeriphAssignDivider(en_clk_dst_t ipBlock, cy_en_div
1831:Generated_Source\PSoC6\pdl\drivers/peripheral/sysclk/cy_sysclk.h **** __STATIC_INLINE uint32_t Cy_SysClk_PeriphGetAssignedDivider(en_clk_dst_t ipBlock);
1832:Generated_Source\PSoC6\pdl\drivers/peripheral/sysclk/cy_sysclk.h **** __STATIC_INLINE cy_en_sysclk_status_t Cy_SysClk_PeriphEnableDivider(cy_en_divider_types_t dividerTy
1833:Generated_Source\PSoC6\pdl\drivers/peripheral/sysclk/cy_sysclk.h **** __STATIC_INLINE cy_en_sysclk_status_t Cy_SysClk_PeriphDisableDivider(cy_en_divider_types_t dividerT
1834:Generated_Source\PSoC6\pdl\drivers/peripheral/sysclk/cy_sysclk.h **** __STATIC_INLINE cy_en_sysclk_status_t Cy_SysClk_PeriphEnablePhaseAlignDivider(cy_en_divider_types_t
1835:Generated_Source\PSoC6\pdl\drivers/peripheral/sysclk/cy_sysclk.h **** __STATIC_INLINE bool Cy_SysClk_PeriphGetDividerEnabled(cy_en_divider_types_t dividerType, uint32_t 
1836:Generated_Source\PSoC6\pdl\drivers/peripheral/sysclk/cy_sysclk.h **** uint32_t Cy_SysClk_PeriphGetFrequency(cy_en_divider_types_t dividerType, uint32_t dividerNum);
1837:Generated_Source\PSoC6\pdl\drivers/peripheral/sysclk/cy_sysclk.h **** 
1838:Generated_Source\PSoC6\pdl\drivers/peripheral/sysclk/cy_sysclk.h **** /*******************************************************************************
1839:Generated_Source\PSoC6\pdl\drivers/peripheral/sysclk/cy_sysclk.h **** * Function Name: Cy_SysClk_PeriphSetDivider
1840:Generated_Source\PSoC6\pdl\drivers/peripheral/sysclk/cy_sysclk.h **** ****************************************************************************//**
1841:Generated_Source\PSoC6\pdl\drivers/peripheral/sysclk/cy_sysclk.h **** *
1842:Generated_Source\PSoC6\pdl\drivers/peripheral/sysclk/cy_sysclk.h **** * Sets one of the programmable clock dividers. This is only used for integer
ARM GAS  C:\Users\SimonChen\AppData\Local\Temp\ccD98YNQ.s 			page 37


1843:Generated_Source\PSoC6\pdl\drivers/peripheral/sysclk/cy_sysclk.h **** * dividers. Use \ref Cy_SysClk_PeriphSetFracDivider for setting factional dividers.
1844:Generated_Source\PSoC6\pdl\drivers/peripheral/sysclk/cy_sysclk.h **** *
1845:Generated_Source\PSoC6\pdl\drivers/peripheral/sysclk/cy_sysclk.h **** * \pre If the specified clock divider is already enabled - it should be disabled
1846:Generated_Source\PSoC6\pdl\drivers/peripheral/sysclk/cy_sysclk.h **** * prior to use this function by \ref Cy_SysClk_PeriphDisableDivider.
1847:Generated_Source\PSoC6\pdl\drivers/peripheral/sysclk/cy_sysclk.h **** *
1848:Generated_Source\PSoC6\pdl\drivers/peripheral/sysclk/cy_sysclk.h **** * \param dividerType specifies which type of divider to use; \ref cy_en_divider_types_t
1849:Generated_Source\PSoC6\pdl\drivers/peripheral/sysclk/cy_sysclk.h **** *
1850:Generated_Source\PSoC6\pdl\drivers/peripheral/sysclk/cy_sysclk.h **** * \param dividerNum the divider number.
1851:Generated_Source\PSoC6\pdl\drivers/peripheral/sysclk/cy_sysclk.h **** *
1852:Generated_Source\PSoC6\pdl\drivers/peripheral/sysclk/cy_sysclk.h **** * \param dividerValue divider value
1853:Generated_Source\PSoC6\pdl\drivers/peripheral/sysclk/cy_sysclk.h **** * Causes integer division of (divider value + 1), or division by 1 to 256
1854:Generated_Source\PSoC6\pdl\drivers/peripheral/sysclk/cy_sysclk.h **** * (8-bit divider) or 1 to 65536 (16-bit divider).
1855:Generated_Source\PSoC6\pdl\drivers/peripheral/sysclk/cy_sysclk.h **** *
1856:Generated_Source\PSoC6\pdl\drivers/peripheral/sysclk/cy_sysclk.h **** * \return \ref cy_en_sysclk_status_t
1857:Generated_Source\PSoC6\pdl\drivers/peripheral/sysclk/cy_sysclk.h **** *
1858:Generated_Source\PSoC6\pdl\drivers/peripheral/sysclk/cy_sysclk.h **** * \funcusage
1859:Generated_Source\PSoC6\pdl\drivers/peripheral/sysclk/cy_sysclk.h **** * \snippet sysclk/1.20/snippet/main.c snippet_Cy_SysClk_PeriphSetDivider
1860:Generated_Source\PSoC6\pdl\drivers/peripheral/sysclk/cy_sysclk.h **** *
1861:Generated_Source\PSoC6\pdl\drivers/peripheral/sysclk/cy_sysclk.h **** *******************************************************************************/
1862:Generated_Source\PSoC6\pdl\drivers/peripheral/sysclk/cy_sysclk.h **** __STATIC_INLINE cy_en_sysclk_status_t
1863:Generated_Source\PSoC6\pdl\drivers/peripheral/sysclk/cy_sysclk.h ****                 Cy_SysClk_PeriphSetDivider(cy_en_divider_types_t dividerType,
1864:Generated_Source\PSoC6\pdl\drivers/peripheral/sysclk/cy_sysclk.h ****                                            uint32_t dividerNum, uint32_t dividerValue)
1865:Generated_Source\PSoC6\pdl\drivers/peripheral/sysclk/cy_sysclk.h **** {
1866:Generated_Source\PSoC6\pdl\drivers/peripheral/sysclk/cy_sysclk.h ****     cy_en_sysclk_status_t retVal = CY_SYSCLK_BAD_PARAM;
1867:Generated_Source\PSoC6\pdl\drivers/peripheral/sysclk/cy_sysclk.h ****     if (dividerType == CY_SYSCLK_DIV_8_BIT)
1868:Generated_Source\PSoC6\pdl\drivers/peripheral/sysclk/cy_sysclk.h ****     {
1869:Generated_Source\PSoC6\pdl\drivers/peripheral/sysclk/cy_sysclk.h ****         if ((dividerNum < PERI_DIV_8_NR) &&
1870:Generated_Source\PSoC6\pdl\drivers/peripheral/sysclk/cy_sysclk.h ****             (dividerValue <= (PERI_DIV_8_CTL_INT8_DIV_Msk >> PERI_DIV_8_CTL_INT8_DIV_Pos)))
1871:Generated_Source\PSoC6\pdl\drivers/peripheral/sysclk/cy_sysclk.h ****         {
1872:Generated_Source\PSoC6\pdl\drivers/peripheral/sysclk/cy_sysclk.h ****             CY_REG32_CLR_SET(PERI_DIV_8_CTL[dividerNum], PERI_DIV_8_CTL_INT8_DIV, dividerValue);
1873:Generated_Source\PSoC6\pdl\drivers/peripheral/sysclk/cy_sysclk.h ****             retVal = CY_SYSCLK_SUCCESS;
1874:Generated_Source\PSoC6\pdl\drivers/peripheral/sysclk/cy_sysclk.h ****         }
1875:Generated_Source\PSoC6\pdl\drivers/peripheral/sysclk/cy_sysclk.h ****     }
1876:Generated_Source\PSoC6\pdl\drivers/peripheral/sysclk/cy_sysclk.h ****     else if (dividerType == CY_SYSCLK_DIV_16_BIT)
1877:Generated_Source\PSoC6\pdl\drivers/peripheral/sysclk/cy_sysclk.h ****     {
1878:Generated_Source\PSoC6\pdl\drivers/peripheral/sysclk/cy_sysclk.h ****         if ((dividerNum < PERI_DIV_16_NR) &&
1879:Generated_Source\PSoC6\pdl\drivers/peripheral/sysclk/cy_sysclk.h ****             (dividerValue <= (PERI_DIV_16_CTL_INT16_DIV_Msk >> PERI_DIV_16_CTL_INT16_DIV_Pos)))
1880:Generated_Source\PSoC6\pdl\drivers/peripheral/sysclk/cy_sysclk.h ****         {
1881:Generated_Source\PSoC6\pdl\drivers/peripheral/sysclk/cy_sysclk.h ****             CY_REG32_CLR_SET(PERI_DIV_16_CTL[dividerNum], PERI_DIV_16_CTL_INT16_DIV, dividerValue);
1882:Generated_Source\PSoC6\pdl\drivers/peripheral/sysclk/cy_sysclk.h ****             retVal = CY_SYSCLK_SUCCESS;
1883:Generated_Source\PSoC6\pdl\drivers/peripheral/sysclk/cy_sysclk.h ****         }
1884:Generated_Source\PSoC6\pdl\drivers/peripheral/sysclk/cy_sysclk.h ****     }
1885:Generated_Source\PSoC6\pdl\drivers/peripheral/sysclk/cy_sysclk.h ****     else
1886:Generated_Source\PSoC6\pdl\drivers/peripheral/sysclk/cy_sysclk.h ****     { /* return bad parameter */
1887:Generated_Source\PSoC6\pdl\drivers/peripheral/sysclk/cy_sysclk.h ****     }
1888:Generated_Source\PSoC6\pdl\drivers/peripheral/sysclk/cy_sysclk.h ****     return (retVal);
1889:Generated_Source\PSoC6\pdl\drivers/peripheral/sysclk/cy_sysclk.h **** }
1890:Generated_Source\PSoC6\pdl\drivers/peripheral/sysclk/cy_sysclk.h **** 
1891:Generated_Source\PSoC6\pdl\drivers/peripheral/sysclk/cy_sysclk.h **** /*******************************************************************************
1892:Generated_Source\PSoC6\pdl\drivers/peripheral/sysclk/cy_sysclk.h **** * Function Name: Cy_SysClk_PeriphGetDivider
1893:Generated_Source\PSoC6\pdl\drivers/peripheral/sysclk/cy_sysclk.h **** ****************************************************************************//**
1894:Generated_Source\PSoC6\pdl\drivers/peripheral/sysclk/cy_sysclk.h **** *
1895:Generated_Source\PSoC6\pdl\drivers/peripheral/sysclk/cy_sysclk.h **** * Returns the integer divider value for the specified divider. One works for
1896:Generated_Source\PSoC6\pdl\drivers/peripheral/sysclk/cy_sysclk.h **** * integer dividers. Use \ref Cy_SysClk_PeriphGetFracDivider to get the fractional
1897:Generated_Source\PSoC6\pdl\drivers/peripheral/sysclk/cy_sysclk.h **** * divider value
1898:Generated_Source\PSoC6\pdl\drivers/peripheral/sysclk/cy_sysclk.h **** *
1899:Generated_Source\PSoC6\pdl\drivers/peripheral/sysclk/cy_sysclk.h **** * \param dividerType specifies which type of divider to use; \ref cy_en_divider_types_t
ARM GAS  C:\Users\SimonChen\AppData\Local\Temp\ccD98YNQ.s 			page 38


1900:Generated_Source\PSoC6\pdl\drivers/peripheral/sysclk/cy_sysclk.h **** *
1901:Generated_Source\PSoC6\pdl\drivers/peripheral/sysclk/cy_sysclk.h **** * \param dividerNum specifies which divider of the selected type to configure
1902:Generated_Source\PSoC6\pdl\drivers/peripheral/sysclk/cy_sysclk.h **** *
1903:Generated_Source\PSoC6\pdl\drivers/peripheral/sysclk/cy_sysclk.h **** * \return The divider value.
1904:Generated_Source\PSoC6\pdl\drivers/peripheral/sysclk/cy_sysclk.h **** * The integer division done is by (divider value + 1), or division by 1 to 256
1905:Generated_Source\PSoC6\pdl\drivers/peripheral/sysclk/cy_sysclk.h **** * (8-bit divider) or 1 to 65536 (16-bit divider).
1906:Generated_Source\PSoC6\pdl\drivers/peripheral/sysclk/cy_sysclk.h **** *
1907:Generated_Source\PSoC6\pdl\drivers/peripheral/sysclk/cy_sysclk.h **** * \funcusage
1908:Generated_Source\PSoC6\pdl\drivers/peripheral/sysclk/cy_sysclk.h **** * \snippet sysclk/1.20/snippet/main.c snippet_Cy_SysClk_PeriphSetDivider
1909:Generated_Source\PSoC6\pdl\drivers/peripheral/sysclk/cy_sysclk.h **** *
1910:Generated_Source\PSoC6\pdl\drivers/peripheral/sysclk/cy_sysclk.h **** *******************************************************************************/
1911:Generated_Source\PSoC6\pdl\drivers/peripheral/sysclk/cy_sysclk.h **** __STATIC_INLINE uint32_t Cy_SysClk_PeriphGetDivider(cy_en_divider_types_t dividerType, uint32_t div
1912:Generated_Source\PSoC6\pdl\drivers/peripheral/sysclk/cy_sysclk.h **** {
1913:Generated_Source\PSoC6\pdl\drivers/peripheral/sysclk/cy_sysclk.h ****     uint32_t retVal;
1914:Generated_Source\PSoC6\pdl\drivers/peripheral/sysclk/cy_sysclk.h **** 
1915:Generated_Source\PSoC6\pdl\drivers/peripheral/sysclk/cy_sysclk.h ****     CY_ASSERT_L1(dividerType <= CY_SYSCLK_DIV_16_BIT);
1916:Generated_Source\PSoC6\pdl\drivers/peripheral/sysclk/cy_sysclk.h **** 
1917:Generated_Source\PSoC6\pdl\drivers/peripheral/sysclk/cy_sysclk.h ****     if (dividerType == CY_SYSCLK_DIV_8_BIT)
1918:Generated_Source\PSoC6\pdl\drivers/peripheral/sysclk/cy_sysclk.h ****     {
1919:Generated_Source\PSoC6\pdl\drivers/peripheral/sysclk/cy_sysclk.h ****         CY_ASSERT_L1(dividerNum < PERI_DIV_8_NR);
1920:Generated_Source\PSoC6\pdl\drivers/peripheral/sysclk/cy_sysclk.h ****         retVal = _FLD2VAL(PERI_DIV_8_CTL_INT8_DIV, PERI_DIV_8_CTL[dividerNum]);
1921:Generated_Source\PSoC6\pdl\drivers/peripheral/sysclk/cy_sysclk.h ****     }
1922:Generated_Source\PSoC6\pdl\drivers/peripheral/sysclk/cy_sysclk.h ****     else
1923:Generated_Source\PSoC6\pdl\drivers/peripheral/sysclk/cy_sysclk.h ****     { /* 16-bit divider */
1924:Generated_Source\PSoC6\pdl\drivers/peripheral/sysclk/cy_sysclk.h ****         CY_ASSERT_L1(dividerNum < PERI_DIV_16_NR);
1925:Generated_Source\PSoC6\pdl\drivers/peripheral/sysclk/cy_sysclk.h ****         retVal = _FLD2VAL(PERI_DIV_16_CTL_INT16_DIV, PERI_DIV_16_CTL[dividerNum]);
1926:Generated_Source\PSoC6\pdl\drivers/peripheral/sysclk/cy_sysclk.h ****     }
1927:Generated_Source\PSoC6\pdl\drivers/peripheral/sysclk/cy_sysclk.h ****     return (retVal);
1928:Generated_Source\PSoC6\pdl\drivers/peripheral/sysclk/cy_sysclk.h **** }
1929:Generated_Source\PSoC6\pdl\drivers/peripheral/sysclk/cy_sysclk.h **** 
1930:Generated_Source\PSoC6\pdl\drivers/peripheral/sysclk/cy_sysclk.h **** /*******************************************************************************
1931:Generated_Source\PSoC6\pdl\drivers/peripheral/sysclk/cy_sysclk.h **** * Function Name: Cy_SysClk_PeriphSetFracDivider
1932:Generated_Source\PSoC6\pdl\drivers/peripheral/sysclk/cy_sysclk.h **** ****************************************************************************//**
1933:Generated_Source\PSoC6\pdl\drivers/peripheral/sysclk/cy_sysclk.h **** *
1934:Generated_Source\PSoC6\pdl\drivers/peripheral/sysclk/cy_sysclk.h **** * Sets one of the programmable clock dividers. This function should only be used
1935:Generated_Source\PSoC6\pdl\drivers/peripheral/sysclk/cy_sysclk.h **** * for fractional clock dividers.
1936:Generated_Source\PSoC6\pdl\drivers/peripheral/sysclk/cy_sysclk.h **** *
1937:Generated_Source\PSoC6\pdl\drivers/peripheral/sysclk/cy_sysclk.h **** * \pre If the specified clock divider is already enabled - it should be disabled
1938:Generated_Source\PSoC6\pdl\drivers/peripheral/sysclk/cy_sysclk.h **** * prior to use this function by \ref Cy_SysClk_PeriphDisableDivider.
1939:Generated_Source\PSoC6\pdl\drivers/peripheral/sysclk/cy_sysclk.h **** *
1940:Generated_Source\PSoC6\pdl\drivers/peripheral/sysclk/cy_sysclk.h **** * \param dividerType specifies which type of divider to use; \ref cy_en_divider_types_t
1941:Generated_Source\PSoC6\pdl\drivers/peripheral/sysclk/cy_sysclk.h **** *
1942:Generated_Source\PSoC6\pdl\drivers/peripheral/sysclk/cy_sysclk.h **** * \param dividerNum specifies which divider of the selected type to configure
1943:Generated_Source\PSoC6\pdl\drivers/peripheral/sysclk/cy_sysclk.h **** *
1944:Generated_Source\PSoC6\pdl\drivers/peripheral/sysclk/cy_sysclk.h **** * \param dividerIntValue the integer divider value
1945:Generated_Source\PSoC6\pdl\drivers/peripheral/sysclk/cy_sysclk.h **** * The source of the divider is peri_clk, which is a divided version of hf_clk[0].
1946:Generated_Source\PSoC6\pdl\drivers/peripheral/sysclk/cy_sysclk.h **** * The divider value causes integer division of (divider value + 1), or division
1947:Generated_Source\PSoC6\pdl\drivers/peripheral/sysclk/cy_sysclk.h **** * by 1 to 65536 (16-bit divider) or 1 to 16777216 (24-bit divider).
1948:Generated_Source\PSoC6\pdl\drivers/peripheral/sysclk/cy_sysclk.h **** *
1949:Generated_Source\PSoC6\pdl\drivers/peripheral/sysclk/cy_sysclk.h **** * \param dividerFracValue the fraction part of the divider
1950:Generated_Source\PSoC6\pdl\drivers/peripheral/sysclk/cy_sysclk.h **** * The fractional divider can be 1-32, thus it divides the clock by 1/32 for each
1951:Generated_Source\PSoC6\pdl\drivers/peripheral/sysclk/cy_sysclk.h **** * count. To divide the clock by 11/32nds set this value to 11.
1952:Generated_Source\PSoC6\pdl\drivers/peripheral/sysclk/cy_sysclk.h **** *
1953:Generated_Source\PSoC6\pdl\drivers/peripheral/sysclk/cy_sysclk.h **** * \return \ref cy_en_sysclk_status_t
1954:Generated_Source\PSoC6\pdl\drivers/peripheral/sysclk/cy_sysclk.h **** *
1955:Generated_Source\PSoC6\pdl\drivers/peripheral/sysclk/cy_sysclk.h **** * \funcusage
1956:Generated_Source\PSoC6\pdl\drivers/peripheral/sysclk/cy_sysclk.h **** * \snippet sysclk/1.20/snippet/main.c snippet_Cy_SysClk_PeriphSetFracDivider
ARM GAS  C:\Users\SimonChen\AppData\Local\Temp\ccD98YNQ.s 			page 39


1957:Generated_Source\PSoC6\pdl\drivers/peripheral/sysclk/cy_sysclk.h **** *
1958:Generated_Source\PSoC6\pdl\drivers/peripheral/sysclk/cy_sysclk.h **** *******************************************************************************/
1959:Generated_Source\PSoC6\pdl\drivers/peripheral/sysclk/cy_sysclk.h **** __STATIC_INLINE cy_en_sysclk_status_t
1960:Generated_Source\PSoC6\pdl\drivers/peripheral/sysclk/cy_sysclk.h ****                 Cy_SysClk_PeriphSetFracDivider(cy_en_divider_types_t dividerType, uint32_t dividerN
1961:Generated_Source\PSoC6\pdl\drivers/peripheral/sysclk/cy_sysclk.h ****                                                uint32_t dividerIntValue, uint32_t dividerFracValue)
1962:Generated_Source\PSoC6\pdl\drivers/peripheral/sysclk/cy_sysclk.h **** {
1963:Generated_Source\PSoC6\pdl\drivers/peripheral/sysclk/cy_sysclk.h ****     cy_en_sysclk_status_t retVal = CY_SYSCLK_BAD_PARAM;
1964:Generated_Source\PSoC6\pdl\drivers/peripheral/sysclk/cy_sysclk.h ****     if (dividerType == CY_SYSCLK_DIV_16_5_BIT)
1965:Generated_Source\PSoC6\pdl\drivers/peripheral/sysclk/cy_sysclk.h ****     {
1966:Generated_Source\PSoC6\pdl\drivers/peripheral/sysclk/cy_sysclk.h ****         if ((dividerNum < PERI_DIV_16_5_NR) &&
1967:Generated_Source\PSoC6\pdl\drivers/peripheral/sysclk/cy_sysclk.h ****             (dividerIntValue <= (PERI_DIV_16_5_CTL_INT16_DIV_Msk >> PERI_DIV_16_5_CTL_INT16_DIV_Pos
1968:Generated_Source\PSoC6\pdl\drivers/peripheral/sysclk/cy_sysclk.h ****             (dividerFracValue <= (PERI_DIV_16_5_CTL_FRAC5_DIV_Msk >> PERI_DIV_16_5_CTL_FRAC5_DIV_Po
1969:Generated_Source\PSoC6\pdl\drivers/peripheral/sysclk/cy_sysclk.h ****         {
1970:Generated_Source\PSoC6\pdl\drivers/peripheral/sysclk/cy_sysclk.h ****             CY_REG32_CLR_SET(PERI_DIV_16_5_CTL[dividerNum], PERI_DIV_16_5_CTL_INT16_DIV, dividerInt
1971:Generated_Source\PSoC6\pdl\drivers/peripheral/sysclk/cy_sysclk.h ****             CY_REG32_CLR_SET(PERI_DIV_16_5_CTL[dividerNum], PERI_DIV_16_5_CTL_FRAC5_DIV, dividerFra
1972:Generated_Source\PSoC6\pdl\drivers/peripheral/sysclk/cy_sysclk.h ****             retVal = CY_SYSCLK_SUCCESS;
1973:Generated_Source\PSoC6\pdl\drivers/peripheral/sysclk/cy_sysclk.h ****         }
1974:Generated_Source\PSoC6\pdl\drivers/peripheral/sysclk/cy_sysclk.h ****     }
1975:Generated_Source\PSoC6\pdl\drivers/peripheral/sysclk/cy_sysclk.h ****     else if (dividerType == CY_SYSCLK_DIV_24_5_BIT)
1976:Generated_Source\PSoC6\pdl\drivers/peripheral/sysclk/cy_sysclk.h ****     {
1977:Generated_Source\PSoC6\pdl\drivers/peripheral/sysclk/cy_sysclk.h ****         if ((dividerNum < PERI_DIV_24_5_NR) &&
1978:Generated_Source\PSoC6\pdl\drivers/peripheral/sysclk/cy_sysclk.h ****             (dividerIntValue <= (PERI_DIV_24_5_CTL_INT24_DIV_Msk >> PERI_DIV_24_5_CTL_INT24_DIV_Pos
1979:Generated_Source\PSoC6\pdl\drivers/peripheral/sysclk/cy_sysclk.h ****             (dividerFracValue <= (PERI_DIV_24_5_CTL_FRAC5_DIV_Msk >> PERI_DIV_24_5_CTL_FRAC5_DIV_Po
1980:Generated_Source\PSoC6\pdl\drivers/peripheral/sysclk/cy_sysclk.h ****         {
1981:Generated_Source\PSoC6\pdl\drivers/peripheral/sysclk/cy_sysclk.h ****             CY_REG32_CLR_SET(PERI_DIV_24_5_CTL[dividerNum], PERI_DIV_24_5_CTL_INT24_DIV, dividerInt
1982:Generated_Source\PSoC6\pdl\drivers/peripheral/sysclk/cy_sysclk.h ****             CY_REG32_CLR_SET(PERI_DIV_24_5_CTL[dividerNum], PERI_DIV_24_5_CTL_FRAC5_DIV, dividerFra
1983:Generated_Source\PSoC6\pdl\drivers/peripheral/sysclk/cy_sysclk.h ****             retVal = CY_SYSCLK_SUCCESS;
1984:Generated_Source\PSoC6\pdl\drivers/peripheral/sysclk/cy_sysclk.h ****         }
1985:Generated_Source\PSoC6\pdl\drivers/peripheral/sysclk/cy_sysclk.h ****     }
1986:Generated_Source\PSoC6\pdl\drivers/peripheral/sysclk/cy_sysclk.h ****     else
1987:Generated_Source\PSoC6\pdl\drivers/peripheral/sysclk/cy_sysclk.h ****     { /* return bad parameter */
1988:Generated_Source\PSoC6\pdl\drivers/peripheral/sysclk/cy_sysclk.h ****     }
1989:Generated_Source\PSoC6\pdl\drivers/peripheral/sysclk/cy_sysclk.h ****     return (retVal);
1990:Generated_Source\PSoC6\pdl\drivers/peripheral/sysclk/cy_sysclk.h **** }
1991:Generated_Source\PSoC6\pdl\drivers/peripheral/sysclk/cy_sysclk.h **** 
1992:Generated_Source\PSoC6\pdl\drivers/peripheral/sysclk/cy_sysclk.h **** /*******************************************************************************
